
========================================================================

** ELF Header Information

    File Name: ./output/PUF_demo.axf

    Machine class: ELFCLASS32 (32-bit)
    Data encoding: ELFDATA2LSB (Little endian)
    Header version: EV_CURRENT (Current version)
    Operating System ABI: none
    ABI Version: 0
    File Type: ET_EXEC (Executable) (2)
    Machine: EM_ARM (ARM)

    Image Entry point: 0x000000b5
    Flags: EF_ARM_HASENTRY + EF_ARM_ABI_FLOAT_SOFT (0x05000202)

    ARM ELF revision: 5 (ABI version 2)

    Conforms to Soft float procedure-call standard

    Built with
    Component: ARM Compiler 5.06 update 4 (build 422) Tool: armasm [4d35cf]
    Component: ARM Compiler 5.06 update 4 (build 422) Tool: armlink [4d35d2]

    Header size: 52 bytes (0x34)
    Program header entry size: 32 bytes (0x20)
    Section header entry size: 40 bytes (0x28)

    Program header entries: 1
    Section header entries: 16

    Program header offset: 161168 (0x00027590)
    Section header offset: 161200 (0x000275b0)

    Section header string table index: 15

========================================================================

** Program header #0 (PT_LOAD) [PF_X + PF_W + PF_R + PF_ARM_ENTRY]
    Size : 16836 bytes (13524 bytes in file)
    Virtual address: 0x00000000 (Alignment 8)


========================================================================

** Section #1 'ER_RO' (SHT_PROGBITS) [SHF_ALLOC + SHF_EXECINSTR]
    Size   : 13404 bytes (alignment 4)
    Address: 0x00000000

    $d.realdata
    RESET
    __Vectors
        0x00000000:    20000d68    h..     DCD    536874344
        0x00000004:    000000b5    ....    DCD    181
        0x00000008:    000000bf    ....    DCD    191
        0x0000000c:    00000099    ....    DCD    153
        0x00000010:    00000000    ....    DCD    0
        0x00000014:    00000000    ....    DCD    0
        0x00000018:    00000000    ....    DCD    0
        0x0000001c:    00000000    ....    DCD    0
        0x00000020:    00000000    ....    DCD    0
        0x00000024:    00000000    ....    DCD    0
        0x00000028:    00000000    ....    DCD    0
        0x0000002c:    000000c3    ....    DCD    195
        0x00000030:    00000000    ....    DCD    0
        0x00000034:    00000000    ....    DCD    0
        0x00000038:    000000c5    ....    DCD    197
        0x0000003c:    00000fa9    ....    DCD    4009
        0x00000040:    000000c9    ....    DCD    201
        0x00000044:    000000c9    ....    DCD    201
        0x00000048:    000000c9    ....    DCD    201
        0x0000004c:    000000c9    ....    DCD    201
        0x00000050:    000000c9    ....    DCD    201
        0x00000054:    000000c9    ....    DCD    201
        0x00000058:    000000c9    ....    DCD    201
        0x0000005c:    000000c9    ....    DCD    201
        0x00000060:    000000c9    ....    DCD    201
        0x00000064:    000000c9    ....    DCD    201
        0x00000068:    00002cf9    .,..    DCD    11513
        0x0000006c:    00002d15    .-..    DCD    11541
        0x00000070:    000000c9    ....    DCD    201
        0x00000074:    000000c9    ....    DCD    201
        0x00000078:    000000c9    ....    DCD    201
        0x0000007c:    000000c9    ....    DCD    201
        0x00000080:    000000c9    ....    DCD    201
    $t
    .ARM.Collect$$$$00000000
    .ARM.Collect$$$$00000001
    __main
    _main_stk
        0x00000084:    4803        .H      LDR      r0,__lit__00000000 ; [0x94] = 0x20000d68
        0x00000086:    4685        .F      MOV      sp,r0
    .ARM.Collect$$$$00000004
    _main_scatterload
        0x00000088:    f000f982    ....    BL       __scatterload ; 0x390
    .ARM.Collect$$$$00000008
    .ARM.Collect$$$$0000000A
    .ARM.Collect$$$$0000000B
    __main_after_scatterload
    _main_clock
    _main_cpp_init
    _main_init
        0x0000008c:    4800        .H      LDR      r0,[pc,#0] ; [0x90] = 0x29d5
        0x0000008e:    4700        .G      BX       r0
    $d
        0x00000090:    000029d5    .)..    DCD    10709
    .ARM.Collect$$$$00002712
    __lit__00000000
    .ARM.Collect$$$$0000000D
    .ARM.Collect$$$$0000000F
    __rt_final_cpp
    __rt_final_exit
        0x00000094:    20000d68    h..     DCD    536874344
    $t
    .emb_text
    HardFault_Handler
        0x00000098:    2004        .       MOVS     r0,#4
        0x0000009a:    4671        qF      MOV      r1,lr
        0x0000009c:    4208        .B      TST      r0,r1
        0x0000009e:    d002        ..      BEQ      0xa6 ; HardFault_Handler + 14
        0x000000a0:    f3ef8009    ....    MRS      r0,PSP
        0x000000a4:    e001        ..      B        0xaa ; HardFault_Handler + 18
        0x000000a6:    f3ef8008    ....    MRS      r0,MSP
        0x000000aa:    4671        qF      MOV      r1,lr
        0x000000ac:    4a00        .J      LDR      r2,[pc,#0] ; [0xb0] = 0x251d
        0x000000ae:    4710        .G      BX       r2
    $d
        0x000000b0:    0000251d    .%..    DCD    9501
    $t
    .text
    Reset_Handler
        0x000000b4:    4a05        .J      LDR      r2,[pc,#20] ; [0xcc] = 0x400600a0
        0x000000b6:    4b06        .K      LDR      r3,[pc,#24] ; [0xd0] = 0x12d
        0x000000b8:    6013        .`      STR      r3,[r2,#0]
        0x000000ba:    4806        .H      LDR      r0,[pc,#24] ; [0xd4] = 0x85
        0x000000bc:    4700        .G      BX       r0
    NMI_Handler
        0x000000be:    e7fe        ..      B        NMI_Handler ; 0xbe
        0x000000c0:    e7fe        ..      B        0xc0 ; NMI_Handler + 2
    SVC_Handler
        0x000000c2:    e7fe        ..      B        SVC_Handler ; 0xc2
    PendSV_Handler
        0x000000c4:    e7fe        ..      B        PendSV_Handler ; 0xc4
        0x000000c6:    e7fe        ..      B        0xc6 ; PendSV_Handler + 2
    n00_WDG_IRQHandler
    n01_DMA_IRQHandler
    n02_ADC_IRQHandler
    n03_LVD_IRQHandler
    n04_PWM0_IRQHandler
    n05_PWM1_IRQHandler
    n06_PWM2_IRQHandler
    n07_PWM3_IRQHandler
    n08_UART0_IRQHandler
    n09_UART1_IRQHandler
    n12_TMR2_IRQHandler
    n13_I2C_IRQHandler
    n14_SPI_IRQHandler
    n15_GIO_IRQHandler
    n16_flash_IRQHandler
        0x000000c8:    e7fe        ..      B        n00_WDG_IRQHandler ; 0xc8
    $d
        0x000000ca:    0000        ..      DCW    0
        0x000000cc:    400600a0    ...@    DCD    1074135200
        0x000000d0:    0000012d    -...    DCD    301
        0x000000d4:    00000085    ....    DCD    133
    $t
    .text
    __aeabi_uidiv
    __aeabi_uidivmod
        0x000000d8:    b530        0.      PUSH     {r4,r5,lr}
        0x000000da:    460b        .F      MOV      r3,r1
        0x000000dc:    4601        .F      MOV      r1,r0
        0x000000de:    2000        .       MOVS     r0,#0
        0x000000e0:    2220         "      MOVS     r2,#0x20
        0x000000e2:    2401        .$      MOVS     r4,#1
        0x000000e4:    e009        ..      B        0xfa ; __aeabi_uidiv + 34
        0x000000e6:    460d        .F      MOV      r5,r1
        0x000000e8:    40d5        .@      LSRS     r5,r5,r2
        0x000000ea:    429d        .B      CMP      r5,r3
        0x000000ec:    d305        ..      BCC      0xfa ; __aeabi_uidiv + 34
        0x000000ee:    461d        .F      MOV      r5,r3
        0x000000f0:    4095        .@      LSLS     r5,r5,r2
        0x000000f2:    1b49        I.      SUBS     r1,r1,r5
        0x000000f4:    4625        %F      MOV      r5,r4
        0x000000f6:    4095        .@      LSLS     r5,r5,r2
        0x000000f8:    1940        @.      ADDS     r0,r0,r5
        0x000000fa:    4615        .F      MOV      r5,r2
        0x000000fc:    1e52        R.      SUBS     r2,r2,#1
        0x000000fe:    2d00        .-      CMP      r5,#0
        0x00000100:    dcf1        ..      BGT      0xe6 ; __aeabi_uidiv + 14
        0x00000102:    bd30        0.      POP      {r4,r5,pc}
    .text
    __aeabi_llsl
    _ll_shift_l
        0x00000104:    b510        ..      PUSH     {r4,lr}
        0x00000106:    2a20         *      CMP      r2,#0x20
        0x00000108:    db04        ..      BLT      0x114 ; __aeabi_llsl + 16
        0x0000010a:    4601        .F      MOV      r1,r0
        0x0000010c:    3a20         :      SUBS     r2,r2,#0x20
        0x0000010e:    4091        .@      LSLS     r1,r1,r2
        0x00000110:    2000        .       MOVS     r0,#0
        0x00000112:    bd10        ..      POP      {r4,pc}
        0x00000114:    4091        .@      LSLS     r1,r1,r2
        0x00000116:    2320         #      MOVS     r3,#0x20
        0x00000118:    1a9c        ..      SUBS     r4,r3,r2
        0x0000011a:    4603        .F      MOV      r3,r0
        0x0000011c:    40e3        .@      LSRS     r3,r3,r4
        0x0000011e:    4319        .C      ORRS     r1,r1,r3
        0x00000120:    4090        .@      LSLS     r0,r0,r2
        0x00000122:    bd10        ..      POP      {r4,pc}
    .text
    __aeabi_llsr
    _ll_ushift_r
        0x00000124:    b510        ..      PUSH     {r4,lr}
        0x00000126:    2a20         *      CMP      r2,#0x20
        0x00000128:    db04        ..      BLT      0x134 ; __aeabi_llsr + 16
        0x0000012a:    4608        .F      MOV      r0,r1
        0x0000012c:    3a20         :      SUBS     r2,r2,#0x20
        0x0000012e:    40d0        .@      LSRS     r0,r0,r2
        0x00000130:    2100        .!      MOVS     r1,#0
        0x00000132:    bd10        ..      POP      {r4,pc}
        0x00000134:    460b        .F      MOV      r3,r1
        0x00000136:    40d3        .@      LSRS     r3,r3,r2
        0x00000138:    40d0        .@      LSRS     r0,r0,r2
        0x0000013a:    2420         $      MOVS     r4,#0x20
        0x0000013c:    1aa2        ..      SUBS     r2,r4,r2
        0x0000013e:    4091        .@      LSLS     r1,r1,r2
        0x00000140:    4308        .C      ORRS     r0,r0,r1
        0x00000142:    4619        .F      MOV      r1,r3
        0x00000144:    bd10        ..      POP      {r4,pc}
    .text
    __aeabi_memcpy
    __aeabi_memcpy4
    __aeabi_memcpy8
        0x00000146:    4603        .F      MOV      r3,r0
        0x00000148:    430b        .C      ORRS     r3,r3,r1
        0x0000014a:    079b        ..      LSLS     r3,r3,#30
        0x0000014c:    d003        ..      BEQ      0x156 ; __aeabi_memcpy + 16
        0x0000014e:    e009        ..      B        0x164 ; __aeabi_memcpy + 30
        0x00000150:    c908        ..      LDM      r1!,{r3}
        0x00000152:    1f12        ..      SUBS     r2,r2,#4
        0x00000154:    c008        ..      STM      r0!,{r3}
        0x00000156:    2a04        .*      CMP      r2,#4
        0x00000158:    d2fa        ..      BCS      0x150 ; __aeabi_memcpy + 10
        0x0000015a:    e003        ..      B        0x164 ; __aeabi_memcpy + 30
        0x0000015c:    780b        .x      LDRB     r3,[r1,#0]
        0x0000015e:    7003        .p      STRB     r3,[r0,#0]
        0x00000160:    1c40        @.      ADDS     r0,r0,#1
        0x00000162:    1c49        I.      ADDS     r1,r1,#1
        0x00000164:    1e52        R.      SUBS     r2,r2,#1
        0x00000166:    d2f9        ..      BCS      0x15c ; __aeabi_memcpy + 22
        0x00000168:    4770        pG      BX       lr
    .text
    __aeabi_memset
    __aeabi_memset4
    __aeabi_memset8
        0x0000016a:    b2d2        ..      UXTB     r2,r2
        0x0000016c:    e001        ..      B        0x172 ; __aeabi_memset + 8
        0x0000016e:    7002        .p      STRB     r2,[r0,#0]
        0x00000170:    1c40        @.      ADDS     r0,r0,#1
        0x00000172:    1e49        I.      SUBS     r1,r1,#1
        0x00000174:    d2fb        ..      BCS      0x16e ; __aeabi_memset + 4
        0x00000176:    4770        pG      BX       lr
    __aeabi_memclr
    __aeabi_memclr4
    __aeabi_memclr8
        0x00000178:    2200        ."      MOVS     r2,#0
        0x0000017a:    e7f6        ..      B        __aeabi_memset ; 0x16a
    _memset$wrapper
        0x0000017c:    b510        ..      PUSH     {r4,lr}
        0x0000017e:    4613        .F      MOV      r3,r2
        0x00000180:    460a        .F      MOV      r2,r1
        0x00000182:    4604        .F      MOV      r4,r0
        0x00000184:    4619        .F      MOV      r1,r3
        0x00000186:    f7fffff0    ....    BL       __aeabi_memset ; 0x16a
        0x0000018a:    4620         F      MOV      r0,r4
        0x0000018c:    bd10        ..      POP      {r4,pc}
        0x0000018e:    0000        ..      MOVS     r0,r0
    .text
    __0scanf
        0x00000190:    b40f        ..      PUSH     {r0-r3}
        0x00000192:    b500        ..      PUSH     {lr}
        0x00000194:    b089        ..      SUB      sp,sp,#0x24
        0x00000196:    a80b        ..      ADD      r0,sp,#0x2c
        0x00000198:    9000        ..      STR      r0,[sp,#0]
        0x0000019a:    466a        jF      MOV      r2,sp
        0x0000019c:    4803        .H      LDR      r0,[pc,#12] ; [0x1ac] = 0x20000070
        0x0000019e:    990a        ..      LDR      r1,[sp,#0x28]
        0x000001a0:    f000f8ea    ....    BL       __vfscanf_char_file ; 0x378
        0x000001a4:    b009        ..      ADD      sp,sp,#0x24
        0x000001a6:    bc08        ..      POP      {r3}
        0x000001a8:    b004        ..      ADD      sp,sp,#0x10
        0x000001aa:    4718        .G      BX       r3
    $d
        0x000001ac:    20000070    p..     DCD    536871024
    $t
    .text
    _scanf_int
        0x000001b0:    b5ff        ..      PUSH     {r0-r7,lr}
        0x000001b2:    2700        .'      MOVS     r7,#0
        0x000001b4:    43ff        .C      MVNS     r7,r7
        0x000001b6:    b083        ..      SUB      sp,sp,#0xc
        0x000001b8:    2000        .       MOVS     r0,#0
        0x000001ba:    685c        \h      LDR      r4,[r3,#4]
        0x000001bc:    9001        ..      STR      r0,[sp,#4]
        0x000001be:    689e        .h      LDR      r6,[r3,#8]
        0x000001c0:    461d        .F      MOV      r5,r3
        0x000001c2:    69a9        .i      LDR      r1,[r5,#0x18]
        0x000001c4:    1c7f        ..      ADDS     r7,r7,#1
        0x000001c6:    9804        ..      LDR      r0,[sp,#0x10]
        0x000001c8:    4788        .G      BLX      r1
        0x000001ca:    9000        ..      STR      r0,[sp,#0]
        0x000001cc:    6a29        )j      LDR      r1,[r5,#0x20]
        0x000001ce:    4788        .G      BLX      r1
        0x000001d0:    2800        .(      CMP      r0,#0
        0x000001d2:    d1f6        ..      BNE      0x1c2 ; _scanf_int + 18
        0x000001d4:    9800        ..      LDR      r0,[sp,#0]
        0x000001d6:    1c40        @.      ADDS     r0,r0,#1
        0x000001d8:    d00c        ..      BEQ      0x1f4 ; _scanf_int + 68
        0x000001da:    2003        .       MOVS     r0,#3
        0x000001dc:    0240        @.      LSLS     r0,r0,#9
        0x000001de:    4384        .C      BICS     r4,r4,r0
        0x000001e0:    2e00        ..      CMP      r6,#0
        0x000001e2:    dd19        ..      BLE      0x218 ; _scanf_int + 104
        0x000001e4:    0660        `.      LSLS     r0,r4,#25
        0x000001e6:    d514        ..      BPL      0x212 ; _scanf_int + 98
        0x000001e8:    9800        ..      LDR      r0,[sp,#0]
        0x000001ea:    282b        +(      CMP      r0,#0x2b
        0x000001ec:    d009        ..      BEQ      0x202 ; _scanf_int + 82
        0x000001ee:    282d        -(      CMP      r0,#0x2d
        0x000001f0:    d10f        ..      BNE      0x212 ; _scanf_int + 98
        0x000001f2:    e003        ..      B        0x1fc ; _scanf_int + 76
        0x000001f4:    2000        .       MOVS     r0,#0
        0x000001f6:    43c0        .C      MVNS     r0,r0
        0x000001f8:    b007        ..      ADD      sp,sp,#0x1c
        0x000001fa:    bdf0        ..      POP      {r4-r7,pc}
        0x000001fc:    2001        .       MOVS     r0,#1
        0x000001fe:    0280        ..      LSLS     r0,r0,#10
        0x00000200:    4304        .C      ORRS     r4,r4,r0
        0x00000202:    69a9        .i      LDR      r1,[r5,#0x18]
        0x00000204:    1c7f        ..      ADDS     r7,r7,#1
        0x00000206:    9804        ..      LDR      r0,[sp,#0x10]
        0x00000208:    4788        .G      BLX      r1
        0x0000020a:    1e76        v.      SUBS     r6,r6,#1
        0x0000020c:    9000        ..      STR      r0,[sp,#0]
        0x0000020e:    2e00        ..      CMP      r6,#0
        0x00000210:    dd02        ..      BLE      0x218 ; _scanf_int + 104
        0x00000212:    9800        ..      LDR      r0,[sp,#0]
        0x00000214:    2830        0(      CMP      r0,#0x30
        0x00000216:    d003        ..      BEQ      0x220 ; _scanf_int + 112
        0x00000218:    9805        ..      LDR      r0,[sp,#0x14]
        0x0000021a:    2800        .(      CMP      r0,#0
        0x0000021c:    d025        %.      BEQ      0x26a ; _scanf_int + 186
        0x0000021e:    e035        5.      B        0x28c ; _scanf_int + 220
        0x00000220:    2001        .       MOVS     r0,#1
        0x00000222:    0240        @.      LSLS     r0,r0,#9
        0x00000224:    4304        .C      ORRS     r4,r4,r0
        0x00000226:    69a9        .i      LDR      r1,[r5,#0x18]
        0x00000228:    1e76        v.      SUBS     r6,r6,#1
        0x0000022a:    1c7f        ..      ADDS     r7,r7,#1
        0x0000022c:    9804        ..      LDR      r0,[sp,#0x10]
        0x0000022e:    4788        .G      BLX      r1
        0x00000230:    9000        ..      STR      r0,[sp,#0]
        0x00000232:    2e00        ..      CMP      r6,#0
        0x00000234:    dd03        ..      BLE      0x23e ; _scanf_int + 142
        0x00000236:    2878        x(      CMP      r0,#0x78
        0x00000238:    d005        ..      BEQ      0x246 ; _scanf_int + 150
        0x0000023a:    2858        X(      CMP      r0,#0x58
        0x0000023c:    d003        ..      BEQ      0x246 ; _scanf_int + 150
        0x0000023e:    9805        ..      LDR      r0,[sp,#0x14]
        0x00000240:    2800        .(      CMP      r0,#0
        0x00000242:    d010        ..      BEQ      0x266 ; _scanf_int + 182
        0x00000244:    e022        ".      B        0x28c ; _scanf_int + 220
        0x00000246:    9805        ..      LDR      r0,[sp,#0x14]
        0x00000248:    2800        .(      CMP      r0,#0
        0x0000024a:    d001        ..      BEQ      0x250 ; _scanf_int + 160
        0x0000024c:    2810        .(      CMP      r0,#0x10
        0x0000024e:    d11d        ..      BNE      0x28c ; _scanf_int + 220
        0x00000250:    2001        .       MOVS     r0,#1
        0x00000252:    0240        @.      LSLS     r0,r0,#9
        0x00000254:    4384        .C      BICS     r4,r4,r0
        0x00000256:    69a9        .i      LDR      r1,[r5,#0x18]
        0x00000258:    1e76        v.      SUBS     r6,r6,#1
        0x0000025a:    1c7f        ..      ADDS     r7,r7,#1
        0x0000025c:    9804        ..      LDR      r0,[sp,#0x10]
        0x0000025e:    4788        .G      BLX      r1
        0x00000260:    9000        ..      STR      r0,[sp,#0]
        0x00000262:    2010        .       MOVS     r0,#0x10
        0x00000264:    e002        ..      B        0x26c ; _scanf_int + 188
        0x00000266:    2008        .       MOVS     r0,#8
        0x00000268:    e000        ..      B        0x26c ; _scanf_int + 188
        0x0000026a:    200a        .       MOVS     r0,#0xa
        0x0000026c:    9005        ..      STR      r0,[sp,#0x14]
        0x0000026e:    e00d        ..      B        0x28c ; _scanf_int + 220
        0x00000270:    2101        .!      MOVS     r1,#1
        0x00000272:    0249        I.      LSLS     r1,r1,#9
        0x00000274:    430c        .C      ORRS     r4,r4,r1
        0x00000276:    9a05        ..      LDR      r2,[sp,#0x14]
        0x00000278:    9901        ..      LDR      r1,[sp,#4]
        0x0000027a:    1e76        v.      SUBS     r6,r6,#1
        0x0000027c:    4351        QC      MULS     r1,r2,r1
        0x0000027e:    1808        ..      ADDS     r0,r1,r0
        0x00000280:    9001        ..      STR      r0,[sp,#4]
        0x00000282:    69a9        .i      LDR      r1,[r5,#0x18]
        0x00000284:    1c7f        ..      ADDS     r7,r7,#1
        0x00000286:    9804        ..      LDR      r0,[sp,#0x10]
        0x00000288:    4788        .G      BLX      r1
        0x0000028a:    9000        ..      STR      r0,[sp,#0]
        0x0000028c:    2e00        ..      CMP      r6,#0
        0x0000028e:    dd05        ..      BLE      0x29c ; _scanf_int + 236
        0x00000290:    9905        ..      LDR      r1,[sp,#0x14]
        0x00000292:    9800        ..      LDR      r0,[sp,#0]
        0x00000294:    f000f861    ..a.    BL       _chval ; 0x35a
        0x00000298:    2800        .(      CMP      r0,#0
        0x0000029a:    dae9        ..      BGE      0x270 ; _scanf_int + 192
        0x0000029c:    69e9        .i      LDR      r1,[r5,#0x1c]
        0x0000029e:    9804        ..      LDR      r0,[sp,#0x10]
        0x000002a0:    4788        .G      BLX      r1
        0x000002a2:    05a0        ..      LSLS     r0,r4,#22
        0x000002a4:    d402        ..      BMI      0x2ac ; _scanf_int + 252
        0x000002a6:    2001        .       MOVS     r0,#1
        0x000002a8:    43c0        .C      MVNS     r0,r0
        0x000002aa:    e7a5        ..      B        0x1f8 ; _scanf_int + 72
        0x000002ac:    07e0        ..      LSLS     r0,r4,#31
        0x000002ae:    d122        ".      BNE      0x2f6 ; _scanf_int + 326
        0x000002b0:    0660        `.      LSLS     r0,r4,#25
        0x000002b2:    d511        ..      BPL      0x2d8 ; _scanf_int + 296
        0x000002b4:    0560        `.      LSLS     r0,r4,#21
        0x000002b6:    9801        ..      LDR      r0,[sp,#4]
        0x000002b8:    d500        ..      BPL      0x2bc ; _scanf_int + 268
        0x000002ba:    4240        @B      RSBS     r0,r0,#0
        0x000002bc:    6829        )h      LDR      r1,[r5,#0]
        0x000002be:    1d0a        ..      ADDS     r2,r1,#4
        0x000002c0:    602a        *`      STR      r2,[r5,#0]
        0x000002c2:    6809        .h      LDR      r1,[r1,#0]
        0x000002c4:    0522        ".      LSLS     r2,r4,#20
        0x000002c6:    d501        ..      BPL      0x2cc ; _scanf_int + 284
        0x000002c8:    7008        .p      STRB     r0,[r1,#0]
        0x000002ca:    e014        ..      B        0x2f6 ; _scanf_int + 326
        0x000002cc:    0722        ".      LSLS     r2,r4,#28
        0x000002ce:    d501        ..      BPL      0x2d4 ; _scanf_int + 292
        0x000002d0:    8008        ..      STRH     r0,[r1,#0]
        0x000002d2:    e010        ..      B        0x2f6 ; _scanf_int + 326
        0x000002d4:    6008        .`      STR      r0,[r1,#0]
        0x000002d6:    e00e        ..      B        0x2f6 ; _scanf_int + 326
        0x000002d8:    6828        (h      LDR      r0,[r5,#0]
        0x000002da:    1d01        ..      ADDS     r1,r0,#4
        0x000002dc:    6029        )`      STR      r1,[r5,#0]
        0x000002de:    6800        .h      LDR      r0,[r0,#0]
        0x000002e0:    0521        !.      LSLS     r1,r4,#20
        0x000002e2:    d502        ..      BPL      0x2ea ; _scanf_int + 314
        0x000002e4:    9901        ..      LDR      r1,[sp,#4]
        0x000002e6:    7001        .p      STRB     r1,[r0,#0]
        0x000002e8:    e005        ..      B        0x2f6 ; _scanf_int + 326
        0x000002ea:    0721        !.      LSLS     r1,r4,#28
        0x000002ec:    9901        ..      LDR      r1,[sp,#4]
        0x000002ee:    d501        ..      BPL      0x2f4 ; _scanf_int + 324
        0x000002f0:    8001        ..      STRH     r1,[r0,#0]
        0x000002f2:    e000        ..      B        0x2f6 ; _scanf_int + 326
        0x000002f4:    6001        .`      STR      r1,[r0,#0]
        0x000002f6:    4638        8F      MOV      r0,r7
        0x000002f8:    e77e        ~.      B        0x1f8 ; _scanf_int + 72
    .text
    __aeabi_uldivmod
        0x000002fa:    b5f0        ..      PUSH     {r4-r7,lr}
        0x000002fc:    b41f        ..      PUSH     {r0-r4}
        0x000002fe:    4606        .F      MOV      r6,r0
        0x00000300:    2000        .       MOVS     r0,#0
        0x00000302:    b082        ..      SUB      sp,sp,#8
        0x00000304:    4605        .F      MOV      r5,r0
        0x00000306:    2440        @$      MOVS     r4,#0x40
        0x00000308:    9101        ..      STR      r1,[sp,#4]
        0x0000030a:    9000        ..      STR      r0,[sp,#0]
        0x0000030c:    e01b        ..      B        0x346 ; __aeabi_uldivmod + 76
        0x0000030e:    9901        ..      LDR      r1,[sp,#4]
        0x00000310:    4622        "F      MOV      r2,r4
        0x00000312:    460f        .F      MOV      r7,r1
        0x00000314:    4630        0F      MOV      r0,r6
        0x00000316:    f7ffff05    ....    BL       __aeabi_llsr ; 0x124
        0x0000031a:    9a04        ..      LDR      r2,[sp,#0x10]
        0x0000031c:    9b05        ..      LDR      r3,[sp,#0x14]
        0x0000031e:    1a80        ..      SUBS     r0,r0,r2
        0x00000320:    4199        .A      SBCS     r1,r1,r3
        0x00000322:    d310        ..      BCC      0x346 ; __aeabi_uldivmod + 76
        0x00000324:    4610        .F      MOV      r0,r2
        0x00000326:    4619        .F      MOV      r1,r3
        0x00000328:    4622        "F      MOV      r2,r4
        0x0000032a:    f7fffeeb    ....    BL       __aeabi_llsl ; 0x104
        0x0000032e:    1a36        6.      SUBS     r6,r6,r0
        0x00000330:    418f        .A      SBCS     r7,r7,r1
        0x00000332:    9701        ..      STR      r7,[sp,#4]
        0x00000334:    4622        "F      MOV      r2,r4
        0x00000336:    2001        .       MOVS     r0,#1
        0x00000338:    2100        .!      MOVS     r1,#0
        0x0000033a:    9f00        ..      LDR      r7,[sp,#0]
        0x0000033c:    f7fffee2    ....    BL       __aeabi_llsl ; 0x104
        0x00000340:    1838        8.      ADDS     r0,r7,r0
        0x00000342:    414d        MA      ADCS     r5,r5,r1
        0x00000344:    9000        ..      STR      r0,[sp,#0]
        0x00000346:    4620         F      MOV      r0,r4
        0x00000348:    1e64        d.      SUBS     r4,r4,#1
        0x0000034a:    2800        .(      CMP      r0,#0
        0x0000034c:    dcdf        ..      BGT      0x30e ; __aeabi_uldivmod + 20
        0x0000034e:    9b01        ..      LDR      r3,[sp,#4]
        0x00000350:    9800        ..      LDR      r0,[sp,#0]
        0x00000352:    4629        )F      MOV      r1,r5
        0x00000354:    4632        2F      MOV      r2,r6
        0x00000356:    b007        ..      ADD      sp,sp,#0x1c
        0x00000358:    bdf0        ..      POP      {r4-r7,pc}
    .text
    _chval
        0x0000035a:    283a        :(      CMP      r0,#0x3a
        0x0000035c:    d200        ..      BCS      0x360 ; _chval + 6
        0x0000035e:    3830        08      SUBS     r0,r0,#0x30
        0x00000360:    2320         #      MOVS     r3,#0x20
        0x00000362:    4602        .F      MOV      r2,r0
        0x00000364:    439a        .C      BICS     r2,r2,r3
        0x00000366:    2a41        A*      CMP      r2,#0x41
        0x00000368:    d301        ..      BCC      0x36e ; _chval + 20
        0x0000036a:    4610        .F      MOV      r0,r2
        0x0000036c:    3837        78      SUBS     r0,r0,#0x37
        0x0000036e:    4288        .B      CMP      r0,r1
        0x00000370:    d301        ..      BCC      0x376 ; _chval + 28
        0x00000372:    2000        .       MOVS     r0,#0
        0x00000374:    43c0        .C      MVNS     r0,r0
        0x00000376:    4770        pG      BX       lr
    .text
    __vfscanf_char_file
        0x00000378:    b510        ..      PUSH     {r4,lr}
        0x0000037a:    4b03        .K      LDR      r3,[pc,#12] ; [0x388] = 0x2009
        0x0000037c:    6193        .a      STR      r3,[r2,#0x18]
        0x0000037e:    4b03        .K      LDR      r3,[pc,#12] ; [0x38c] = 0x3d3
        0x00000380:    61d3        .a      STR      r3,[r2,#0x1c]
        0x00000382:    f000f833    ..3.    BL       __vfscanf_char ; 0x3ec
        0x00000386:    bd10        ..      POP      {r4,pc}
    $d
        0x00000388:    00002009    . ..    DCD    8201
        0x0000038c:    000003d3    ....    DCD    979
    $t
    .text
    __scatterload
    __scatterload_rt2
        0x00000390:    4c06        .L      LDR      r4,[pc,#24] ; [0x3ac] = 0x343c
        0x00000392:    2501        .%      MOVS     r5,#1
        0x00000394:    4e06        .N      LDR      r6,[pc,#24] ; [0x3b0] = 0x345c
        0x00000396:    e005        ..      B        0x3a4 ; __scatterload + 20
        0x00000398:    68e3        .h      LDR      r3,[r4,#0xc]
        0x0000039a:    cc07        ..      LDM      r4!,{r0-r2}
        0x0000039c:    432b        +C      ORRS     r3,r3,r5
        0x0000039e:    3c0c        .<      SUBS     r4,r4,#0xc
        0x000003a0:    4798        .G      BLX      r3
        0x000003a2:    3410        .4      ADDS     r4,r4,#0x10
        0x000003a4:    42b4        .B      CMP      r4,r6
        0x000003a6:    d3f7        ..      BCC      0x398 ; __scatterload + 8
        0x000003a8:    f7fffe70    ..p.    BL       __main_after_scatterload ; 0x8c
    $d
        0x000003ac:    0000343c    <4..    DCD    13372
        0x000003b0:    0000345c    \4..    DCD    13404
    $t
    .text
    _fgetc$bs
        0x000003b4:    b510        ..      PUSH     {r4,lr}
        0x000003b6:    4909        .I      LDR      r1,[pc,#36] ; [0x3dc] = 0x20000074
        0x000003b8:    7808        .x      LDRB     r0,[r1,#0]
        0x000003ba:    1c4c        L.      ADDS     r4,r1,#1
        0x000003bc:    2800        .(      CMP      r0,#0
        0x000003be:    d003        ..      BEQ      0x3c8 ; _fgetc$bs + 20
        0x000003c0:    1e40        @.      SUBS     r0,r0,#1
        0x000003c2:    7008        .p      STRB     r0,[r1,#0]
        0x000003c4:    5c20         \      LDRB     r0,[r4,r0]
        0x000003c6:    bd10        ..      POP      {r4,pc}
        0x000003c8:    2100        .!      MOVS     r1,#0
        0x000003ca:    2007        .       MOVS     r0,#7
        0x000003cc:    beab        ..      BKPT     #0xab
        0x000003ce:    7020         p      STRB     r0,[r4,#0]
        0x000003d0:    bd10        ..      POP      {r4,pc}
    __backspace
        0x000003d2:    4902        .I      LDR      r1,[pc,#8] ; [0x3dc] = 0x20000074
        0x000003d4:    7808        .x      LDRB     r0,[r1,#0]
        0x000003d6:    1c42        B.      ADDS     r2,r0,#1
        0x000003d8:    700a        .p      STRB     r2,[r1,#0]
        0x000003da:    4770        pG      BX       lr
    $d
        0x000003dc:    20000074    t..     DCD    536871028
    $t
    .text
    _scanf_char_input
        0x000003e0:    6802        .h      LDR      r2,[r0,#0]
        0x000003e2:    7813        .x      LDRB     r3,[r2,#0]
        0x000003e4:    1851        Q.      ADDS     r1,r2,r1
        0x000003e6:    6001        .`      STR      r1,[r0,#0]
        0x000003e8:    4618        .F      MOV      r0,r3
        0x000003ea:    4770        pG      BX       lr
    __vfscanf_char
        0x000003ec:    b510        ..      PUSH     {r4,lr}
        0x000003ee:    60d1        .`      STR      r1,[r2,#0xc]
        0x000003f0:    4904        .I      LDR      r1,[pc,#16] ; [0x404] = 0x3e1
        0x000003f2:    6151        Qa      STR      r1,[r2,#0x14]
        0x000003f4:    4904        .I      LDR      r1,[pc,#16] ; [0x408] = 0x40d
        0x000003f6:    6211        .b      STR      r1,[r2,#0x20]
        0x000003f8:    2100        .!      MOVS     r1,#0
        0x000003fa:    6111        .a      STR      r1,[r2,#0x10]
        0x000003fc:    4611        .F      MOV      r1,r2
        0x000003fe:    f000f80d    ....    BL       __vfscanf ; 0x41c
        0x00000402:    bd10        ..      POP      {r4,pc}
    $d
        0x00000404:    000003e1    ....    DCD    993
        0x00000408:    0000040d    ....    DCD    1037
    $t
    .text
    .text
    __semihosting_library_function
    isspace
        0x0000040c:    b510        ..      PUSH     {r4,lr}
        0x0000040e:    210f        .!      MOVS     r1,#0xf
        0x00000410:    b2c0        ..      UXTB     r0,r0
        0x00000412:    0249        I.      LSLS     r1,r1,#9
        0x00000414:    f000f99e    ....    BL       __I$use$semihosting$fgetc ; 0x754
        0x00000418:    bd10        ..      POP      {r4,pc}
        0x0000041a:    0000        ..      MOVS     r0,r0
    .text
    __vfscanf
        0x0000041c:    b5f3        ..      PUSH     {r0,r1,r4-r7,lr}
        0x0000041e:    b08d        ..      SUB      sp,sp,#0x34
        0x00000420:    2000        .       MOVS     r0,#0
        0x00000422:    900a        ..      STR      r0,[sp,#0x28]
        0x00000424:    2001        .       MOVS     r0,#1
        0x00000426:    900b        ..      STR      r0,[sp,#0x2c]
        0x00000428:    2600        .&      MOVS     r6,#0
        0x0000042a:    4608        .F      MOV      r0,r1
        0x0000042c:    300c        .0      ADDS     r0,r0,#0xc
        0x0000042e:    460c        .F      MOV      r4,r1
        0x00000430:    9009        ..      STR      r0,[sp,#0x24]
        0x00000432:    6962        bi      LDR      r2,[r4,#0x14]
        0x00000434:    2101        .!      MOVS     r1,#1
        0x00000436:    9809        ..      LDR      r0,[sp,#0x24]
        0x00000438:    4790        .G      BLX      r2
        0x0000043a:    1e05        ..      SUBS     r5,r0,#0
        0x0000043c:    d02e        ..      BEQ      0x49c ; __vfscanf + 128
        0x0000043e:    2d25        %-      CMP      r5,#0x25
        0x00000440:    d02d        -.      BEQ      0x49e ; __vfscanf + 130
        0x00000442:    6a21        !j      LDR      r1,[r4,#0x20]
        0x00000444:    4788        .G      BLX      r1
        0x00000446:    2800        .(      CMP      r0,#0
        0x00000448:    d018        ..      BEQ      0x47c ; __vfscanf + 96
        0x0000044a:    6962        bi      LDR      r2,[r4,#0x14]
        0x0000044c:    2101        .!      MOVS     r1,#1
        0x0000044e:    9809        ..      LDR      r0,[sp,#0x24]
        0x00000450:    4790        .G      BLX      r2
        0x00000452:    6a21        !j      LDR      r1,[r4,#0x20]
        0x00000454:    4788        .G      BLX      r1
        0x00000456:    2800        .(      CMP      r0,#0
        0x00000458:    d1f7        ..      BNE      0x44a ; __vfscanf + 46
        0x0000045a:    1e41        A.      SUBS     r1,r0,#1
        0x0000045c:    6962        bi      LDR      r2,[r4,#0x14]
        0x0000045e:    9809        ..      LDR      r0,[sp,#0x24]
        0x00000460:    4790        .G      BLX      r2
        0x00000462:    e000        ..      B        0x466 ; __vfscanf + 74
        0x00000464:    1c76        v.      ADDS     r6,r6,#1
        0x00000466:    69a1        .i      LDR      r1,[r4,#0x18]
        0x00000468:    980d        ..      LDR      r0,[sp,#0x34]
        0x0000046a:    4788        .G      BLX      r1
        0x0000046c:    6a21        !j      LDR      r1,[r4,#0x20]
        0x0000046e:    4788        .G      BLX      r1
        0x00000470:    2800        .(      CMP      r0,#0
        0x00000472:    d1f7        ..      BNE      0x464 ; __vfscanf + 72
        0x00000474:    69e1        .i      LDR      r1,[r4,#0x1c]
        0x00000476:    980d        ..      LDR      r0,[sp,#0x34]
        0x00000478:    4788        .G      BLX      r1
        0x0000047a:    e7da        ..      B        0x432 ; __vfscanf + 22
        0x0000047c:    69a1        .i      LDR      r1,[r4,#0x18]
        0x0000047e:    980d        ..      LDR      r0,[sp,#0x34]
        0x00000480:    4788        .G      BLX      r1
        0x00000482:    4607        .F      MOV      r7,r0
        0x00000484:    42a8        .B      CMP      r0,r5
        0x00000486:    d101        ..      BNE      0x48c ; __vfscanf + 112
        0x00000488:    1c76        v.      ADDS     r6,r6,#1
        0x0000048a:    e7d2        ..      B        0x432 ; __vfscanf + 22
        0x0000048c:    69e1        .i      LDR      r1,[r4,#0x1c]
        0x0000048e:    980d        ..      LDR      r0,[sp,#0x34]
        0x00000490:    4788        .G      BLX      r1
        0x00000492:    1c7f        ..      ADDS     r7,r7,#1
        0x00000494:    d102        ..      BNE      0x49c ; __vfscanf + 128
        0x00000496:    980a        ..      LDR      r0,[sp,#0x28]
        0x00000498:    2800        .(      CMP      r0,#0
        0x0000049a:    d077        w.      BEQ      0x58c ; __vfscanf + 368
        0x0000049c:    e149        I.      B        0x732 ; __vfscanf + 790
        0x0000049e:    2700        .'      MOVS     r7,#0
        0x000004a0:    6962        bi      LDR      r2,[r4,#0x14]
        0x000004a2:    463d        =F      MOV      r5,r7
        0x000004a4:    4639        9F      MOV      r1,r7
        0x000004a6:    9809        ..      LDR      r0,[sp,#0x24]
        0x000004a8:    4790        .G      BLX      r2
        0x000004aa:    282a        *(      CMP      r0,#0x2a
        0x000004ac:    d10c        ..      BNE      0x4c8 ; __vfscanf + 172
        0x000004ae:    6962        bi      LDR      r2,[r4,#0x14]
        0x000004b0:    2101        .!      MOVS     r1,#1
        0x000004b2:    9809        ..      LDR      r0,[sp,#0x24]
        0x000004b4:    4790        .G      BLX      r2
        0x000004b6:    2501        .%      MOVS     r5,#1
        0x000004b8:    e006        ..      B        0x4c8 ; __vfscanf + 172
        0x000004ba:    210a        .!      MOVS     r1,#0xa
        0x000004bc:    434f        OC      MULS     r7,r1,r7
        0x000004be:    183f        ?.      ADDS     r7,r7,r0
        0x000004c0:    3f30        0?      SUBS     r7,r7,#0x30
        0x000004c2:    d4eb        ..      BMI      0x49c ; __vfscanf + 128
        0x000004c4:    2010        .       MOVS     r0,#0x10
        0x000004c6:    4305        .C      ORRS     r5,r5,r0
        0x000004c8:    6962        bi      LDR      r2,[r4,#0x14]
        0x000004ca:    2101        .!      MOVS     r1,#1
        0x000004cc:    9809        ..      LDR      r0,[sp,#0x24]
        0x000004ce:    4790        .G      BLX      r2
        0x000004d0:    4601        .F      MOV      r1,r0
        0x000004d2:    3930        09      SUBS     r1,r1,#0x30
        0x000004d4:    290a        .)      CMP      r1,#0xa
        0x000004d6:    d203        ..      BCS      0x4e0 ; __vfscanf + 196
        0x000004d8:    499b        .I      LDR      r1,[pc,#620] ; [0x748] = 0xccccccc
        0x000004da:    428f        .B      CMP      r7,r1
        0x000004dc:    dcde        ..      BGT      0x49c ; __vfscanf + 128
        0x000004de:    e7ec        ..      B        0x4ba ; __vfscanf + 158
        0x000004e0:    06e9        ..      LSLS     r1,r5,#27
        0x000004e2:    d400        ..      BMI      0x4e6 ; __vfscanf + 202
        0x000004e4:    4f99        .O      LDR      r7,[pc,#612] ; [0x74c] = 0x7fffffff
        0x000004e6:    286c        l(      CMP      r0,#0x6c
        0x000004e8:    d00a        ..      BEQ      0x500 ; __vfscanf + 228
        0x000004ea:    284c        L(      CMP      r0,#0x4c
        0x000004ec:    d010        ..      BEQ      0x510 ; __vfscanf + 244
        0x000004ee:    2868        h(      CMP      r0,#0x68
        0x000004f0:    d024        $.      BEQ      0x53c ; __vfscanf + 288
        0x000004f2:    286a        j(      CMP      r0,#0x6a
        0x000004f4:    d02e        ..      BEQ      0x554 ; __vfscanf + 312
        0x000004f6:    2874        t(      CMP      r0,#0x74
        0x000004f8:    d00c        ..      BEQ      0x514 ; __vfscanf + 248
        0x000004fa:    287a        z(      CMP      r0,#0x7a
        0x000004fc:    d00a        ..      BEQ      0x514 ; __vfscanf + 248
        0x000004fe:    e00d        ..      B        0x51c ; __vfscanf + 256
        0x00000500:    6962        bi      LDR      r2,[r4,#0x14]
        0x00000502:    2101        .!      MOVS     r1,#1
        0x00000504:    9809        ..      LDR      r0,[sp,#0x24]
        0x00000506:    4790        .G      BLX      r2
        0x00000508:    286c        l(      CMP      r0,#0x6c
        0x0000050a:    d023        #.      BEQ      0x554 ; __vfscanf + 312
        0x0000050c:    2104        .!      MOVS     r1,#4
        0x0000050e:    e01c        ..      B        0x54a ; __vfscanf + 302
        0x00000510:    2020                MOVS     r0,#0x20
        0x00000512:    4305        .C      ORRS     r5,r5,r0
        0x00000514:    6962        bi      LDR      r2,[r4,#0x14]
        0x00000516:    2101        .!      MOVS     r1,#1
        0x00000518:    9809        ..      LDR      r0,[sp,#0x24]
        0x0000051a:    4790        .G      BLX      r2
        0x0000051c:    60a7        .`      STR      r7,[r4,#8]
        0x0000051e:    6065        e`      STR      r5,[r4,#4]
        0x00000520:    2865        e(      CMP      r0,#0x65
        0x00000522:    d04f        O.      BEQ      0x5c4 ; __vfscanf + 424
        0x00000524:    dc26        &.      BGT      0x574 ; __vfscanf + 344
        0x00000526:    2858        X(      CMP      r0,#0x58
        0x00000528:    d039        9.      BEQ      0x59e ; __vfscanf + 386
        0x0000052a:    dc1a        ..      BGT      0x562 ; __vfscanf + 326
        0x0000052c:    2845        E(      CMP      r0,#0x45
        0x0000052e:    d049        I.      BEQ      0x5c4 ; __vfscanf + 424
        0x00000530:    dc12        ..      BGT      0x558 ; __vfscanf + 316
        0x00000532:    2825        %(      CMP      r0,#0x25
        0x00000534:    d034        4.      BEQ      0x5a0 ; __vfscanf + 388
        0x00000536:    2841        A(      CMP      r0,#0x41
        0x00000538:    d1b0        ..      BNE      0x49c ; __vfscanf + 128
        0x0000053a:    e043        C.      B        0x5c4 ; __vfscanf + 424
        0x0000053c:    6962        bi      LDR      r2,[r4,#0x14]
        0x0000053e:    2101        .!      MOVS     r1,#1
        0x00000540:    9809        ..      LDR      r0,[sp,#0x24]
        0x00000542:    4790        .G      BLX      r2
        0x00000544:    2868        h(      CMP      r0,#0x68
        0x00000546:    d002        ..      BEQ      0x54e ; __vfscanf + 306
        0x00000548:    2108        .!      MOVS     r1,#8
        0x0000054a:    430d        .C      ORRS     r5,r5,r1
        0x0000054c:    e7e6        ..      B        0x51c ; __vfscanf + 256
        0x0000054e:    2001        .       MOVS     r0,#1
        0x00000550:    02c0        ..      LSLS     r0,r0,#11
        0x00000552:    e7de        ..      B        0x512 ; __vfscanf + 246
        0x00000554:    2002        .       MOVS     r0,#2
        0x00000556:    e7dc        ..      B        0x512 ; __vfscanf + 246
        0x00000558:    2846        F(      CMP      r0,#0x46
        0x0000055a:    d033        3.      BEQ      0x5c4 ; __vfscanf + 424
        0x0000055c:    2847        G(      CMP      r0,#0x47
        0x0000055e:    d12c        ,.      BNE      0x5ba ; __vfscanf + 414
        0x00000560:    e030        0.      B        0x5c4 ; __vfscanf + 424
        0x00000562:    285b        [(      CMP      r0,#0x5b
        0x00000564:    d070        p.      BEQ      0x648 ; __vfscanf + 556
        0x00000566:    2861        a(      CMP      r0,#0x61
        0x00000568:    d02c        ,.      BEQ      0x5c4 ; __vfscanf + 424
        0x0000056a:    2863        c(      CMP      r0,#0x63
        0x0000056c:    d06c        l.      BEQ      0x648 ; __vfscanf + 556
        0x0000056e:    2864        d(      CMP      r0,#0x64
        0x00000570:    d123        #.      BNE      0x5ba ; __vfscanf + 414
        0x00000572:    e061        a.      B        0x638 ; __vfscanf + 540
        0x00000574:    286f        o(      CMP      r0,#0x6f
        0x00000576:    d04f        O.      BEQ      0x618 ; __vfscanf + 508
        0x00000578:    dc09        ..      BGT      0x58e ; __vfscanf + 370
        0x0000057a:    2866        f(      CMP      r0,#0x66
        0x0000057c:    d022        ".      BEQ      0x5c4 ; __vfscanf + 424
        0x0000057e:    2867        g(      CMP      r0,#0x67
        0x00000580:    d020         .      BEQ      0x5c4 ; __vfscanf + 424
        0x00000582:    2869        i(      CMP      r0,#0x69
        0x00000584:    d026        &.      BEQ      0x5d4 ; __vfscanf + 440
        0x00000586:    286e        n(      CMP      r0,#0x6e
        0x00000588:    d117        ..      BNE      0x5ba ; __vfscanf + 414
        0x0000058a:    e02e        ..      B        0x5ea ; __vfscanf + 462
        0x0000058c:    e0cd        ..      B        0x72a ; __vfscanf + 782
        0x0000058e:    2870        p(      CMP      r0,#0x70
        0x00000590:    d04d        M.      BEQ      0x62e ; __vfscanf + 530
        0x00000592:    2873        s(      CMP      r0,#0x73
        0x00000594:    d06f        o.      BEQ      0x676 ; __vfscanf + 602
        0x00000596:    2875        u(      CMP      r0,#0x75
        0x00000598:    d04e        N.      BEQ      0x638 ; __vfscanf + 540
        0x0000059a:    2878        x(      CMP      r0,#0x78
        0x0000059c:    d10d        ..      BNE      0x5ba ; __vfscanf + 414
        0x0000059e:    e054        T.      B        0x64a ; __vfscanf + 558
        0x000005a0:    69a1        .i      LDR      r1,[r4,#0x18]
        0x000005a2:    980d        ..      LDR      r0,[sp,#0x34]
        0x000005a4:    4788        .G      BLX      r1
        0x000005a6:    4605        .F      MOV      r5,r0
        0x000005a8:    2825        %(      CMP      r0,#0x25
        0x000005aa:    d100        ..      BNE      0x5ae ; __vfscanf + 402
        0x000005ac:    e76c        l.      B        0x488 ; __vfscanf + 108
        0x000005ae:    69e1        .i      LDR      r1,[r4,#0x1c]
        0x000005b0:    980d        ..      LDR      r0,[sp,#0x34]
        0x000005b2:    4788        .G      BLX      r1
        0x000005b4:    1c6d        m.      ADDS     r5,r5,#1
        0x000005b6:    d100        ..      BNE      0x5ba ; __vfscanf + 414
        0x000005b8:    e76d        m.      B        0x496 ; __vfscanf + 122
        0x000005ba:    e0ba        ..      B        0x732 ; __vfscanf + 790
        0x000005bc:    220a        ."      MOVS     r2,#0xa
        0x000005be:    e04c        L.      B        0x65a ; __vfscanf + 574
        0x000005c0:    220a        ."      MOVS     r2,#0xa
        0x000005c2:    e052        R.      B        0x66a ; __vfscanf + 590
        0x000005c4:    2001        .       MOVS     r0,#1
        0x000005c6:    4623        #F      MOV      r3,r4
        0x000005c8:    466a        jF      MOV      r2,sp
        0x000005ca:    43c0        .C      MVNS     r0,r0
        0x000005cc:    990d        ..      LDR      r1,[sp,#0x34]
        0x000005ce:    46c0        .F      MOV      r8,r8
        0x000005d0:    46c0        .F      MOV      r8,r8
        0x000005d2:    e0a3        ..      B        0x71c ; __vfscanf + 768
        0x000005d4:    4628        (F      MOV      r0,r5
        0x000005d6:    2140        @!      MOVS     r1,#0x40
        0x000005d8:    4308        .C      ORRS     r0,r0,r1
        0x000005da:    6060        ``      STR      r0,[r4,#4]
        0x000005dc:    07a8        ..      LSLS     r0,r5,#30
        0x000005de:    4623        #F      MOV      r3,r4
        0x000005e0:    d501        ..      BPL      0x5e6 ; __vfscanf + 458
        0x000005e2:    2200        ."      MOVS     r2,#0
        0x000005e4:    e039        9.      B        0x65a ; __vfscanf + 574
        0x000005e6:    2200        ."      MOVS     r2,#0
        0x000005e8:    e03f        ?.      B        0x66a ; __vfscanf + 590
        0x000005ea:    07e8        ..      LSLS     r0,r5,#31
        0x000005ec:    d000        ..      BEQ      0x5f0 ; __vfscanf + 468
        0x000005ee:    e720         .      B        0x432 ; __vfscanf + 22
        0x000005f0:    6820         h      LDR      r0,[r4,#0]
        0x000005f2:    1d01        ..      ADDS     r1,r0,#4
        0x000005f4:    6021        !`      STR      r1,[r4,#0]
        0x000005f6:    6800        .h      LDR      r0,[r0,#0]
        0x000005f8:    0529        ).      LSLS     r1,r5,#20
        0x000005fa:    d501        ..      BPL      0x600 ; __vfscanf + 484
        0x000005fc:    7006        .p      STRB     r6,[r0,#0]
        0x000005fe:    e718        ..      B        0x432 ; __vfscanf + 22
        0x00000600:    0729        ).      LSLS     r1,r5,#28
        0x00000602:    d501        ..      BPL      0x608 ; __vfscanf + 492
        0x00000604:    8006        ..      STRH     r6,[r0,#0]
        0x00000606:    e714        ..      B        0x432 ; __vfscanf + 22
        0x00000608:    07a9        ..      LSLS     r1,r5,#30
        0x0000060a:    d503        ..      BPL      0x614 ; __vfscanf + 504
        0x0000060c:    17f1        ..      ASRS     r1,r6,#31
        0x0000060e:    6006        .`      STR      r6,[r0,#0]
        0x00000610:    6041        A`      STR      r1,[r0,#4]
        0x00000612:    e70e        ..      B        0x432 ; __vfscanf + 22
        0x00000614:    6006        .`      STR      r6,[r0,#0]
        0x00000616:    e70c        ..      B        0x432 ; __vfscanf + 22
        0x00000618:    4628        (F      MOV      r0,r5
        0x0000061a:    2140        @!      MOVS     r1,#0x40
        0x0000061c:    4308        .C      ORRS     r0,r0,r1
        0x0000061e:    6060        ``      STR      r0,[r4,#4]
        0x00000620:    07a8        ..      LSLS     r0,r5,#30
        0x00000622:    4623        #F      MOV      r3,r4
        0x00000624:    d501        ..      BPL      0x62a ; __vfscanf + 526
        0x00000626:    2208        ."      MOVS     r2,#8
        0x00000628:    e017        ..      B        0x65a ; __vfscanf + 574
        0x0000062a:    2208        ."      MOVS     r2,#8
        0x0000062c:    e01d        ..      B        0x66a ; __vfscanf + 590
        0x0000062e:    4948        HI      LDR      r1,[pc,#288] ; [0x750] = 0xfffff7f1
        0x00000630:    4628        (F      MOV      r0,r5
        0x00000632:    4008        .@      ANDS     r0,r0,r1
        0x00000634:    6060        ``      STR      r0,[r4,#4]
        0x00000636:    e016        ..      B        0x666 ; __vfscanf + 586
        0x00000638:    4628        (F      MOV      r0,r5
        0x0000063a:    2140        @!      MOVS     r1,#0x40
        0x0000063c:    4308        .C      ORRS     r0,r0,r1
        0x0000063e:    6060        ``      STR      r0,[r4,#4]
        0x00000640:    07a8        ..      LSLS     r0,r5,#30
        0x00000642:    4623        #F      MOV      r3,r4
        0x00000644:    d5bc        ..      BPL      0x5c0 ; __vfscanf + 420
        0x00000646:    e7b9        ..      B        0x5bc ; __vfscanf + 416
        0x00000648:    e015        ..      B        0x676 ; __vfscanf + 602
        0x0000064a:    4628        (F      MOV      r0,r5
        0x0000064c:    2140        @!      MOVS     r1,#0x40
        0x0000064e:    4308        .C      ORRS     r0,r0,r1
        0x00000650:    6060        ``      STR      r0,[r4,#4]
        0x00000652:    07a8        ..      LSLS     r0,r5,#30
        0x00000654:    d507        ..      BPL      0x666 ; __vfscanf + 586
        0x00000656:    4623        #F      MOV      r3,r4
        0x00000658:    2210        ."      MOVS     r2,#0x10
        0x0000065a:    2001        .       MOVS     r0,#1
        0x0000065c:    43c0        .C      MVNS     r0,r0
        0x0000065e:    990d        ..      LDR      r1,[sp,#0x34]
        0x00000660:    46c0        .F      MOV      r8,r8
        0x00000662:    46c0        .F      MOV      r8,r8
        0x00000664:    e05a        Z.      B        0x71c ; __vfscanf + 768
        0x00000666:    4623        #F      MOV      r3,r4
        0x00000668:    2210        ."      MOVS     r2,#0x10
        0x0000066a:    2001        .       MOVS     r0,#1
        0x0000066c:    43c0        .C      MVNS     r0,r0
        0x0000066e:    990d        ..      LDR      r1,[sp,#0x34]
        0x00000670:    f7fffd9e    ....    BL       _scanf_int ; 0x1b0
        0x00000674:    e052        R.      B        0x71c ; __vfscanf + 768
        0x00000676:    2100        .!      MOVS     r1,#0
        0x00000678:    910c        ..      STR      r1,[sp,#0x30]
        0x0000067a:    460b        .F      MOV      r3,r1
        0x0000067c:    9100        ..      STR      r1,[sp,#0]
        0x0000067e:    2863        c(      CMP      r0,#0x63
        0x00000680:    d002        ..      BEQ      0x688 ; __vfscanf + 620
        0x00000682:    285b        [(      CMP      r0,#0x5b
        0x00000684:    d007        ..      BEQ      0x696 ; __vfscanf + 634
        0x00000686:    e043        C.      B        0x710 ; __vfscanf + 756
        0x00000688:    06e8        ..      LSLS     r0,r5,#27
        0x0000068a:    d401        ..      BMI      0x690 ; __vfscanf + 628
        0x0000068c:    2001        .       MOVS     r0,#1
        0x0000068e:    60a0        .`      STR      r0,[r4,#8]
        0x00000690:    2001        .       MOVS     r0,#1
        0x00000692:    9000        ..      STR      r0,[sp,#0]
        0x00000694:    e03c        <.      B        0x710 ; __vfscanf + 756
        0x00000696:    6962        bi      LDR      r2,[r4,#0x14]
        0x00000698:    2101        .!      MOVS     r1,#1
        0x0000069a:    9809        ..      LDR      r0,[sp,#0x24]
        0x0000069c:    4790        .G      BLX      r2
        0x0000069e:    285e        ^(      CMP      r0,#0x5e
        0x000006a0:    d105        ..      BNE      0x6ae ; __vfscanf + 658
        0x000006a2:    2001        .       MOVS     r0,#1
        0x000006a4:    900c        ..      STR      r0,[sp,#0x30]
        0x000006a6:    4601        .F      MOV      r1,r0
        0x000006a8:    6962        bi      LDR      r2,[r4,#0x14]
        0x000006aa:    9809        ..      LDR      r0,[sp,#0x24]
        0x000006ac:    4790        .G      BLX      r2
        0x000006ae:    6921        !i      LDR      r1,[r4,#0x10]
        0x000006b0:    2900        .)      CMP      r1,#0
        0x000006b2:    d106        ..      BNE      0x6c2 ; __vfscanf + 678
        0x000006b4:    460b        .F      MOV      r3,r1
        0x000006b6:    aa01        ..      ADD      r2,sp,#4
        0x000006b8:    008f        ..      LSLS     r7,r1,#2
        0x000006ba:    1c49        I.      ADDS     r1,r1,#1
        0x000006bc:    51d3        .Q      STR      r3,[r2,r7]
        0x000006be:    2908        .)      CMP      r1,#8
        0x000006c0:    dbfa        ..      BLT      0x6b8 ; __vfscanf + 668
        0x000006c2:    2800        .(      CMP      r0,#0
        0x000006c4:    d035        5.      BEQ      0x732 ; __vfscanf + 790
        0x000006c6:    6921        !i      LDR      r1,[r4,#0x10]
        0x000006c8:    2900        .)      CMP      r1,#0
        0x000006ca:    d10e        ..      BNE      0x6ea ; __vfscanf + 718
        0x000006cc:    17c1        ..      ASRS     r1,r0,#31
        0x000006ce:    0ec9        ..      LSRS     r1,r1,#27
        0x000006d0:    1809        ..      ADDS     r1,r1,r0
        0x000006d2:    114a        J.      ASRS     r2,r1,#5
        0x000006d4:    0093        ..      LSLS     r3,r2,#2
        0x000006d6:    aa01        ..      ADD      r2,sp,#4
        0x000006d8:    189a        ..      ADDS     r2,r3,r2
        0x000006da:    0949        I.      LSRS     r1,r1,#5
        0x000006dc:    0149        I.      LSLS     r1,r1,#5
        0x000006de:    1a41        A.      SUBS     r1,r0,r1
        0x000006e0:    2001        .       MOVS     r0,#1
        0x000006e2:    6813        .h      LDR      r3,[r2,#0]
        0x000006e4:    4088        .@      LSLS     r0,r0,r1
        0x000006e6:    4303        .C      ORRS     r3,r3,r0
        0x000006e8:    6013        .`      STR      r3,[r2,#0]
        0x000006ea:    6962        bi      LDR      r2,[r4,#0x14]
        0x000006ec:    2101        .!      MOVS     r1,#1
        0x000006ee:    9809        ..      LDR      r0,[sp,#0x24]
        0x000006f0:    4790        .G      BLX      r2
        0x000006f2:    285d        ](      CMP      r0,#0x5d
        0x000006f4:    d1e5        ..      BNE      0x6c2 ; __vfscanf + 678
        0x000006f6:    980c        ..      LDR      r0,[sp,#0x30]
        0x000006f8:    2800        .(      CMP      r0,#0
        0x000006fa:    d008        ..      BEQ      0x70e ; __vfscanf + 754
        0x000006fc:    2000        .       MOVS     r0,#0
        0x000006fe:    ab01        ..      ADD      r3,sp,#4
        0x00000700:    0081        ..      LSLS     r1,r0,#2
        0x00000702:    585a        ZX      LDR      r2,[r3,r1]
        0x00000704:    1c40        @.      ADDS     r0,r0,#1
        0x00000706:    43d2        .C      MVNS     r2,r2
        0x00000708:    505a        ZP      STR      r2,[r3,r1]
        0x0000070a:    2808        .(      CMP      r0,#8
        0x0000070c:    dbf8        ..      BLT      0x700 ; __vfscanf + 740
        0x0000070e:    ab01        ..      ADD      r3,sp,#4
        0x00000710:    2001        .       MOVS     r0,#1
        0x00000712:    4622        "F      MOV      r2,r4
        0x00000714:    43c0        .C      MVNS     r0,r0
        0x00000716:    990d        ..      LDR      r1,[sp,#0x34]
        0x00000718:    46c0        .F      MOV      r8,r8
        0x0000071a:    46c0        .F      MOV      r8,r8
        0x0000071c:    2800        .(      CMP      r0,#0
        0x0000071e:    da0a        ..      BGE      0x736 ; __vfscanf + 794
        0x00000720:    1c40        @.      ADDS     r0,r0,#1
        0x00000722:    d106        ..      BNE      0x732 ; __vfscanf + 790
        0x00000724:    980b        ..      LDR      r0,[sp,#0x2c]
        0x00000726:    2800        .(      CMP      r0,#0
        0x00000728:    d003        ..      BEQ      0x732 ; __vfscanf + 790
        0x0000072a:    2000        .       MOVS     r0,#0
        0x0000072c:    43c0        .C      MVNS     r0,r0
        0x0000072e:    b00f        ..      ADD      sp,sp,#0x3c
        0x00000730:    bdf0        ..      POP      {r4-r7,pc}
        0x00000732:    980a        ..      LDR      r0,[sp,#0x28]
        0x00000734:    e7fb        ..      B        0x72e ; __vfscanf + 786
        0x00000736:    07e9        ..      LSLS     r1,r5,#31
        0x00000738:    d102        ..      BNE      0x740 ; __vfscanf + 804
        0x0000073a:    990a        ..      LDR      r1,[sp,#0x28]
        0x0000073c:    1c49        I.      ADDS     r1,r1,#1
        0x0000073e:    910a        ..      STR      r1,[sp,#0x28]
        0x00000740:    1836        6.      ADDS     r6,r6,r0
        0x00000742:    2000        .       MOVS     r0,#0
        0x00000744:    900b        ..      STR      r0,[sp,#0x2c]
        0x00000746:    e674        t.      B        0x432 ; __vfscanf + 22
    $d
        0x00000748:    0ccccccc    ....    DCD    214748364
        0x0000074c:    7fffffff    ....    DCD    2147483647
        0x00000750:    fffff7f1    ....    DCD    4294965233
    $t
    .text
    .text
    __I$use$semihosting$fgetc
    __ctype_lookup
        0x00000754:    287f        .(      CMP      r0,#0x7f
        0x00000756:    d901        ..      BLS      0x75c ; __I$use$semihosting$fgetc + 8
        0x00000758:    2200        ."      MOVS     r2,#0
        0x0000075a:    e007        ..      B        0x76c ; __I$use$semihosting$fgetc + 24
        0x0000075c:    4b05        .K      LDR      r3,[pc,#20] ; [0x774] = 0x334c
        0x0000075e:    0842        B.      LSRS     r2,r0,#1
        0x00000760:    5c9a        .\      LDRB     r2,[r3,r2]
        0x00000762:    07c0        ..      LSLS     r0,r0,#31
        0x00000764:    d100        ..      BNE      0x768 ; __I$use$semihosting$fgetc + 20
        0x00000766:    0912        ..      LSRS     r2,r2,#4
        0x00000768:    0712        ..      LSLS     r2,r2,#28
        0x0000076a:    0f12        ..      LSRS     r2,r2,#28
        0x0000076c:    2001        .       MOVS     r0,#1
        0x0000076e:    4090        .@      LSLS     r0,r0,r2
        0x00000770:    4008        .@      ANDS     r0,r0,r1
        0x00000772:    4770        pG      BX       lr
    $d
        0x00000774:    0000334c    L3..    DCD    13132
    $t
    INITIAL_CODE
    initial_MCU007
        0x00000778:    4a01        .J      LDR      r2,[pc,#4] ; [0x780] = 0x400600a0
        0x0000077a:    4b02        .K      LDR      r3,[pc,#8] ; [0x784] = 0x12d
        0x0000077c:    6013        .`      STR      r3,[r2,#0]
        0x0000077e:    4770        pG      BX       lr
    $d
        0x00000780:    400600a0    ...@    DCD    1074135200
        0x00000784:    0000012d    -...    DCD    301
    $t
    i.DMA_Disable
    DMA_Disable
        0x00000788:    4803        .H      LDR      r0,[pc,#12] ; [0x798] = 0x40070000
        0x0000078a:    6b00        .k      LDR      r0,[r0,#0x30]
        0x0000078c:    0840        @.      LSRS     r0,r0,#1
        0x0000078e:    0040        @.      LSLS     r0,r0,#1
        0x00000790:    4901        .I      LDR      r1,[pc,#4] ; [0x798] = 0x40070000
        0x00000792:    6308        .c      STR      r0,[r1,#0x30]
        0x00000794:    4770        pG      BX       lr
    $d
        0x00000796:    0000        ..      DCW    0
        0x00000798:    40070000    ...@    DCD    1074200576
    $t
    i.DMA_Enable
    DMA_Enable
        0x0000079c:    4803        .H      LDR      r0,[pc,#12] ; [0x7ac] = 0x40070000
        0x0000079e:    6b00        .k      LDR      r0,[r0,#0x30]
        0x000007a0:    2101        .!      MOVS     r1,#1
        0x000007a2:    4308        .C      ORRS     r0,r0,r1
        0x000007a4:    4901        .I      LDR      r1,[pc,#4] ; [0x7ac] = 0x40070000
        0x000007a6:    6308        .c      STR      r0,[r1,#0x30]
        0x000007a8:    4770        pG      BX       lr
    $d
        0x000007aa:    0000        ..      DCW    0
        0x000007ac:    40070000    ...@    DCD    1074200576
    $t
    i.DMA_Enable_Sync
    DMA_Enable_Sync
        0x000007b0:    4903        .I      LDR      r1,[pc,#12] ; [0x7c0] = 0x40070000
        0x000007b2:    6b49        Ik      LDR      r1,[r1,#0x34]
        0x000007b4:    2201        ."      MOVS     r2,#1
        0x000007b6:    4082        .@      LSLS     r2,r2,r0
        0x000007b8:    4311        .C      ORRS     r1,r1,r2
        0x000007ba:    4a01        .J      LDR      r2,[pc,#4] ; [0x7c0] = 0x40070000
        0x000007bc:    6351        Qc      STR      r1,[r2,#0x34]
        0x000007be:    4770        pG      BX       lr
    $d
        0x000007c0:    40070000    ...@    DCD    1074200576
    $t
    i.DMA_GetActiveChannels
    DMA_GetActiveChannels
        0x000007c4:    4801        .H      LDR      r0,[pc,#4] ; [0x7cc] = 0x40070000
        0x000007c6:    69c0        .i      LDR      r0,[r0,#0x1c]
        0x000007c8:    b2c0        ..      UXTB     r0,r0
        0x000007ca:    4770        pG      BX       lr
    $d
        0x000007cc:    40070000    ...@    DCD    1074200576
    $t
    i.DMA_LittleEndian
    DMA_LittleEndian
        0x000007d0:    2800        .(      CMP      r0,#0
        0x000007d2:    d106        ..      BNE      0x7e2 ; DMA_LittleEndian + 18
        0x000007d4:    4907        .I      LDR      r1,[pc,#28] ; [0x7f4] = 0x40070000
        0x000007d6:    6b09        .k      LDR      r1,[r1,#0x30]
        0x000007d8:    2202        ."      MOVS     r2,#2
        0x000007da:    4391        .C      BICS     r1,r1,r2
        0x000007dc:    4a05        .J      LDR      r2,[pc,#20] ; [0x7f4] = 0x40070000
        0x000007de:    6311        .c      STR      r1,[r2,#0x30]
        0x000007e0:    e007        ..      B        0x7f2 ; DMA_LittleEndian + 34
        0x000007e2:    2801        .(      CMP      r0,#1
        0x000007e4:    d105        ..      BNE      0x7f2 ; DMA_LittleEndian + 34
        0x000007e6:    4903        .I      LDR      r1,[pc,#12] ; [0x7f4] = 0x40070000
        0x000007e8:    6b09        .k      LDR      r1,[r1,#0x30]
        0x000007ea:    2204        ."      MOVS     r2,#4
        0x000007ec:    4391        .C      BICS     r1,r1,r2
        0x000007ee:    4a01        .J      LDR      r2,[pc,#4] ; [0x7f4] = 0x40070000
        0x000007f0:    6311        .c      STR      r1,[r2,#0x30]
        0x000007f2:    4770        pG      BX       lr
    $d
        0x000007f4:    40070000    ...@    DCD    1074200576
    $t
    i.DMA_SetChConfig
    DMA_SetChConfig
        0x000007f8:    4601        .F      MOV      r1,r0
        0x000007fa:    780a        .x      LDRB     r2,[r1,#0]
        0x000007fc:    0492        ..      LSLS     r2,r2,#18
        0x000007fe:    788b        .x      LDRB     r3,[r1,#2]
        0x00000800:    041b        ..      LSLS     r3,r3,#16
        0x00000802:    431a        .C      ORRS     r2,r2,r3
        0x00000804:    78cb        .x      LDRB     r3,[r1,#3]
        0x00000806:    03db        ..      LSLS     r3,r3,#15
        0x00000808:    431a        .C      ORRS     r2,r2,r3
        0x0000080a:    790b        .y      LDRB     r3,[r1,#4]
        0x0000080c:    039b        ..      LSLS     r3,r3,#14
        0x0000080e:    431a        .C      ORRS     r2,r2,r3
        0x00000810:    794b        Ky      LDRB     r3,[r1,#5]
        0x00000812:    02db        ..      LSLS     r3,r3,#11
        0x00000814:    431a        .C      ORRS     r2,r2,r3
        0x00000816:    798b        .y      LDRB     r3,[r1,#6]
        0x00000818:    019b        ..      LSLS     r3,r3,#6
        0x0000081a:    431a        .C      ORRS     r2,r2,r3
        0x0000081c:    79cb        .y      LDRB     r3,[r1,#7]
        0x0000081e:    005b        [.      LSLS     r3,r3,#1
        0x00000820:    431a        .C      ORRS     r2,r2,r3
        0x00000822:    7a0b        .z      LDRB     r3,[r1,#8]
        0x00000824:    431a        .C      ORRS     r2,r2,r3
        0x00000826:    4610        .F      MOV      r0,r2
        0x00000828:    4770        pG      BX       lr
    i.DMA_SetChControl
    DMA_SetChControl
        0x0000082a:    4601        .F      MOV      r1,r0
        0x0000082c:    780a        .x      LDRB     r2,[r1,#0]
        0x0000082e:    07d2        ..      LSLS     r2,r2,#31
        0x00000830:    784b        Kx      LDRB     r3,[r1,#1]
        0x00000832:    071b        ..      LSLS     r3,r3,#28
        0x00000834:    431a        .C      ORRS     r2,r2,r3
        0x00000836:    788b        .x      LDRB     r3,[r1,#2]
        0x00000838:    06db        ..      LSLS     r3,r3,#27
        0x0000083a:    431a        .C      ORRS     r2,r2,r3
        0x0000083c:    78cb        .x      LDRB     r3,[r1,#3]
        0x0000083e:    069b        ..      LSLS     r3,r3,#26
        0x00000840:    431a        .C      ORRS     r2,r2,r3
        0x00000842:    790b        .y      LDRB     r3,[r1,#4]
        0x00000844:    065b        [.      LSLS     r3,r3,#25
        0x00000846:    431a        .C      ORRS     r2,r2,r3
        0x00000848:    794b        Ky      LDRB     r3,[r1,#5]
        0x0000084a:    061b        ..      LSLS     r3,r3,#24
        0x0000084c:    431a        .C      ORRS     r2,r2,r3
        0x0000084e:    798b        .y      LDRB     r3,[r1,#6]
        0x00000850:    055b        [.      LSLS     r3,r3,#21
        0x00000852:    431a        .C      ORRS     r2,r2,r3
        0x00000854:    79cb        .y      LDRB     r3,[r1,#7]
        0x00000856:    049b        ..      LSLS     r3,r3,#18
        0x00000858:    431a        .C      ORRS     r2,r2,r3
        0x0000085a:    7a0b        .z      LDRB     r3,[r1,#8]
        0x0000085c:    03db        ..      LSLS     r3,r3,#15
        0x0000085e:    431a        .C      ORRS     r2,r2,r3
        0x00000860:    7a4b        Kz      LDRB     r3,[r1,#9]
        0x00000862:    031b        ..      LSLS     r3,r3,#12
        0x00000864:    431a        .C      ORRS     r2,r2,r3
        0x00000866:    68cb        .h      LDR      r3,[r1,#0xc]
        0x00000868:    431a        .C      ORRS     r2,r2,r3
        0x0000086a:    4610        .F      MOV      r0,r2
        0x0000086c:    4770        pG      BX       lr
    i.DMA_SetChLLI
    DMA_SetChLLI
        0x0000086e:    4601        .F      MOV      r1,r0
        0x00000870:    680a        .h      LDR      r2,[r1,#0]
        0x00000872:    0092        ..      LSLS     r2,r2,#2
        0x00000874:    790b        .y      LDRB     r3,[r1,#4]
        0x00000876:    431a        .C      ORRS     r2,r2,r3
        0x00000878:    4610        .F      MOV      r0,r2
        0x0000087a:    4770        pG      BX       lr
    i.DMA_SetChannelReg
    DMA_SetChannelReg
        0x0000087c:    b5ff        ..      PUSH     {r0-r7,lr}
        0x0000087e:    4605        .F      MOV      r5,r0
        0x00000880:    460e        .F      MOV      r6,r1
        0x00000882:    4617        .F      MOV      r7,r2
        0x00000884:    9c0a        ..      LDR      r4,[sp,#0x28]
        0x00000886:    480f        .H      LDR      r0,[pc,#60] ; [0x8c4] = 0x40070100
        0x00000888:    0161        a.      LSLS     r1,r4,#5
        0x0000088a:    5046        FP      STR      r6,[r0,r1]
        0x0000088c:    0161        a.      LSLS     r1,r4,#5
        0x0000088e:    1840        @.      ADDS     r0,r0,r1
        0x00000890:    6045        E`      STR      r5,[r0,#4]
        0x00000892:    4638        8F      MOV      r0,r7
        0x00000894:    f7ffffeb    ....    BL       DMA_SetChLLI ; 0x86e
        0x00000898:    4601        .F      MOV      r1,r0
        0x0000089a:    480a        .H      LDR      r0,[pc,#40] ; [0x8c4] = 0x40070100
        0x0000089c:    0162        b.      LSLS     r2,r4,#5
        0x0000089e:    1880        ..      ADDS     r0,r0,r2
        0x000008a0:    6081        .`      STR      r1,[r0,#8]
        0x000008a2:    9803        ..      LDR      r0,[sp,#0xc]
        0x000008a4:    f7ffffc1    ....    BL       DMA_SetChControl ; 0x82a
        0x000008a8:    4601        .F      MOV      r1,r0
        0x000008aa:    4806        .H      LDR      r0,[pc,#24] ; [0x8c4] = 0x40070100
        0x000008ac:    0162        b.      LSLS     r2,r4,#5
        0x000008ae:    1880        ..      ADDS     r0,r0,r2
        0x000008b0:    60c1        .`      STR      r1,[r0,#0xc]
        0x000008b2:    9809        ..      LDR      r0,[sp,#0x24]
        0x000008b4:    f7ffffa0    ....    BL       DMA_SetChConfig ; 0x7f8
        0x000008b8:    4902        .I      LDR      r1,[pc,#8] ; [0x8c4] = 0x40070100
        0x000008ba:    0162        b.      LSLS     r2,r4,#5
        0x000008bc:    1889        ..      ADDS     r1,r1,r2
        0x000008be:    6108        .a      STR      r0,[r1,#0x10]
        0x000008c0:    bdff        ..      POP      {r0-r7,pc}
    $d
        0x000008c2:    0000        ..      DCW    0
        0x000008c4:    40070100    ...@    DCD    1074200832
    $t
    i.File_Check_Sector
    File_Check_Sector
        0x000008c8:    4601        .F      MOV      r1,r0
        0x000008ca:    31ff        .1      ADDS     r1,r1,#0xff
        0x000008cc:    31ff        .1      ADDS     r1,r1,#0xff
        0x000008ce:    7808        .x      LDRB     r0,[r1,#0]
        0x000008d0:    2855        U(      CMP      r0,#0x55
        0x000008d2:    d106        ..      BNE      0x8e2 ; File_Check_Sector + 26
        0x000008d4:    1c48        H.      ADDS     r0,r1,#1
        0x000008d6:    4601        .F      MOV      r1,r0
        0x000008d8:    7800        .x      LDRB     r0,[r0,#0]
        0x000008da:    28aa        .(      CMP      r0,#0xaa
        0x000008dc:    d101        ..      BNE      0x8e2 ; File_Check_Sector + 26
        0x000008de:    2001        .       MOVS     r0,#1
        0x000008e0:    4770        pG      BX       lr
        0x000008e2:    2000        .       MOVS     r0,#0
        0x000008e4:    e7fc        ..      B        0x8e0 ; File_Check_Sector + 24
        0x000008e6:    0000        ..      MOVS     r0,r0
    i.NVIC_ClearPendingIRQ
    NVIC_ClearPendingIRQ
        0x000008e8:    06c2        ..      LSLS     r2,r0,#27
        0x000008ea:    0ed2        ..      LSRS     r2,r2,#27
        0x000008ec:    2101        .!      MOVS     r1,#1
        0x000008ee:    4091        .@      LSLS     r1,r1,r2
        0x000008f0:    4a01        .J      LDR      r2,[pc,#4] ; [0x8f8] = 0xe000e280
        0x000008f2:    6011        .`      STR      r1,[r2,#0]
        0x000008f4:    4770        pG      BX       lr
    $d
        0x000008f6:    0000        ..      DCW    0
        0x000008f8:    e000e280    ....    DCD    3758154368
    $t
    i.NVIC_DisableIRQ
    NVIC_DisableIRQ
        0x000008fc:    06c2        ..      LSLS     r2,r0,#27
        0x000008fe:    0ed2        ..      LSRS     r2,r2,#27
        0x00000900:    2101        .!      MOVS     r1,#1
        0x00000902:    4091        .@      LSLS     r1,r1,r2
        0x00000904:    4a01        .J      LDR      r2,[pc,#4] ; [0x90c] = 0xe000e180
        0x00000906:    6011        .`      STR      r1,[r2,#0]
        0x00000908:    4770        pG      BX       lr
    $d
        0x0000090a:    0000        ..      DCW    0
        0x0000090c:    e000e180    ....    DCD    3758154112
    $t
    i.NVIC_EnableIRQ
    NVIC_EnableIRQ
        0x00000910:    06c2        ..      LSLS     r2,r0,#27
        0x00000912:    0ed2        ..      LSRS     r2,r2,#27
        0x00000914:    2101        .!      MOVS     r1,#1
        0x00000916:    4091        .@      LSLS     r1,r1,r2
        0x00000918:    4a01        .J      LDR      r2,[pc,#4] ; [0x920] = 0xe000e100
        0x0000091a:    6011        .`      STR      r1,[r2,#0]
        0x0000091c:    4770        pG      BX       lr
    $d
        0x0000091e:    0000        ..      DCW    0
        0x00000920:    e000e100    ....    DCD    3758153984
    $t
    i.PinCtrl_GIOSet
    PinCtrl_GIOSet
        0x00000924:    b570        p.      PUSH     {r4-r6,lr}
        0x00000926:    4603        .F      MOV      r3,r0
        0x00000928:    2000        .       MOVS     r0,#0
        0x0000092a:    bf00        ..      NOP      
        0x0000092c:    e019        ..      B        0x962 ; PinCtrl_GIOSet + 62
        0x0000092e:    460c        .F      MOV      r4,r1
        0x00000930:    40c4        .@      LSRS     r4,r4,r0
        0x00000932:    07e4        ..      LSLS     r4,r4,#31
        0x00000934:    0fe4        ..      LSRS     r4,r4,#31
        0x00000936:    2c00        .,      CMP      r4,#0
        0x00000938:    d012        ..      BEQ      0x960 ; PinCtrl_GIOSet + 60
        0x0000093a:    7914        .y      LDRB     r4,[r2,#4]
        0x0000093c:    78d5        .x      LDRB     r5,[r2,#3]
        0x0000093e:    432c        ,C      ORRS     r4,r4,r5
        0x00000940:    7895        .x      LDRB     r5,[r2,#2]
        0x00000942:    432c        ,C      ORRS     r4,r4,r5
        0x00000944:    7855        Ux      LDRB     r5,[r2,#1]
        0x00000946:    432c        ,C      ORRS     r4,r4,r5
        0x00000948:    015d        ].      LSLS     r5,r3,#5
        0x0000094a:    4e07        .N      LDR      r6,[pc,#28] ; [0x968] = 0x40040000
        0x0000094c:    19ad        ..      ADDS     r5,r5,r6
        0x0000094e:    0086        ..      LSLS     r6,r0,#2
        0x00000950:    55ac        .U      STRB     r4,[r5,r6]
        0x00000952:    7814        .x      LDRB     r4,[r2,#0]
        0x00000954:    015d        ].      LSLS     r5,r3,#5
        0x00000956:    4e04        .N      LDR      r6,[pc,#16] ; [0x968] = 0x40040000
        0x00000958:    19ad        ..      ADDS     r5,r5,r6
        0x0000095a:    0086        ..      LSLS     r6,r0,#2
        0x0000095c:    19ad        ..      ADDS     r5,r5,r6
        0x0000095e:    706c        lp      STRB     r4,[r5,#1]
        0x00000960:    1c40        @.      ADDS     r0,r0,#1
        0x00000962:    2808        .(      CMP      r0,#8
        0x00000964:    d3e3        ..      BCC      0x92e ; PinCtrl_GIOSet + 10
        0x00000966:    bd70        p.      POP      {r4-r6,pc}
    $d
        0x00000968:    40040000    ...@    DCD    1074003968
    $t
    i.Read_puf_key
    Read_puf_key
        0x0000096c:    b5f0        ..      PUSH     {r4-r7,lr}
        0x0000096e:    b0b5        ..      SUB      sp,sp,#0xd4
        0x00000970:    4605        .F      MOV      r5,r0
        0x00000972:    2400        .$      MOVS     r4,#0
        0x00000974:    2000        .       MOVS     r0,#0
        0x00000976:    9034        4.      STR      r0,[sp,#0xd0]
        0x00000978:    4936        6I      LDR      r1,[pc,#216] ; [0xa54] = 0x16466464
        0x0000097a:    9132        2.      STR      r1,[sp,#0xc8]
        0x0000097c:    9033        3.      STR      r0,[sp,#0xcc]
        0x0000097e:    2600        .&      MOVS     r6,#0
        0x00000980:    2691        .&      MOVS     r6,#0x91
        0x00000982:    4631        1F      MOV      r1,r6
        0x00000984:    2010        .       MOVS     r0,#0x10
        0x00000986:    f001fb1b    ....    BL       des_write_reg ; 0x1fc0
        0x0000098a:    2101        .!      MOVS     r1,#1
        0x0000098c:    20ff        .       MOVS     r0,#0xff
        0x0000098e:    3041        A0      ADDS     r0,r0,#0x41
        0x00000990:    f001fb0c    ....    BL       des_set_bits ; 0x1fac
        0x00000994:    f000fe92    ....    BL       apDes_Enable ; 0x16bc
        0x00000998:    2020                MOVS     r0,#0x20
        0x0000099a:    f001faff    ....    BL       des_read_reg ; 0x1f9c
        0x0000099e:    9001        ..      STR      r0,[sp,#4]
        0x000009a0:    492d        -I      LDR      r1,[pc,#180] ; [0xa58] = 0x2d1d3010
        0x000009a2:    2020                MOVS     r0,#0x20
        0x000009a4:    f001fb0c    ....    BL       des_write_reg ; 0x1fc0
        0x000009a8:    a832        2.      ADD      r0,sp,#0xc8
        0x000009aa:    f000ff09    ....    BL       apDes_Write_Data ; 0x17c0
        0x000009ae:    bf00        ..      NOP      
        0x000009b0:    e02f        /.      B        0xa12 ; Read_puf_key + 166
        0x000009b2:    2070        p       MOVS     r0,#0x70
        0x000009b4:    f001faf2    ....    BL       des_read_reg ; 0x1f9c
        0x000009b8:    2118        .!      MOVS     r1,#0x18
        0x000009ba:    4361        aC      MULS     r1,r4,r1
        0x000009bc:    aa02        ..      ADD      r2,sp,#8
        0x000009be:    5050        PP      STR      r0,[r2,r1]
        0x000009c0:    2080        .       MOVS     r0,#0x80
        0x000009c2:    f001faeb    ....    BL       des_read_reg ; 0x1f9c
        0x000009c6:    2118        .!      MOVS     r1,#0x18
        0x000009c8:    4361        aC      MULS     r1,r4,r1
        0x000009ca:    aa02        ..      ADD      r2,sp,#8
        0x000009cc:    1889        ..      ADDS     r1,r1,r2
        0x000009ce:    6048        H`      STR      r0,[r1,#4]
        0x000009d0:    2090        .       MOVS     r0,#0x90
        0x000009d2:    f001fae3    ....    BL       des_read_reg ; 0x1f9c
        0x000009d6:    2118        .!      MOVS     r1,#0x18
        0x000009d8:    4361        aC      MULS     r1,r4,r1
        0x000009da:    aa02        ..      ADD      r2,sp,#8
        0x000009dc:    1889        ..      ADDS     r1,r1,r2
        0x000009de:    6088        .`      STR      r0,[r1,#8]
        0x000009e0:    20a0        .       MOVS     r0,#0xa0
        0x000009e2:    f001fadb    ....    BL       des_read_reg ; 0x1f9c
        0x000009e6:    2118        .!      MOVS     r1,#0x18
        0x000009e8:    4361        aC      MULS     r1,r4,r1
        0x000009ea:    aa02        ..      ADD      r2,sp,#8
        0x000009ec:    1889        ..      ADDS     r1,r1,r2
        0x000009ee:    60c8        .`      STR      r0,[r1,#0xc]
        0x000009f0:    20b0        .       MOVS     r0,#0xb0
        0x000009f2:    f001fad3    ....    BL       des_read_reg ; 0x1f9c
        0x000009f6:    2118        .!      MOVS     r1,#0x18
        0x000009f8:    4361        aC      MULS     r1,r4,r1
        0x000009fa:    aa02        ..      ADD      r2,sp,#8
        0x000009fc:    1889        ..      ADDS     r1,r1,r2
        0x000009fe:    6108        .a      STR      r0,[r1,#0x10]
        0x00000a00:    20c0        .       MOVS     r0,#0xc0
        0x00000a02:    f001facb    ....    BL       des_read_reg ; 0x1f9c
        0x00000a06:    2118        .!      MOVS     r1,#0x18
        0x00000a08:    4361        aC      MULS     r1,r4,r1
        0x00000a0a:    aa02        ..      ADD      r2,sp,#8
        0x00000a0c:    1889        ..      ADDS     r1,r1,r2
        0x00000a0e:    6148        Ha      STR      r0,[r1,#0x14]
        0x00000a10:    1c64        d.      ADDS     r4,r4,#1
        0x00000a12:    2c08        .,      CMP      r4,#8
        0x00000a14:    d3cd        ..      BCC      0x9b2 ; Read_puf_key + 70
        0x00000a16:    2400        .$      MOVS     r4,#0
        0x00000a18:    e011        ..      B        0xa3e ; Read_puf_key + 210
        0x00000a1a:    2106        .!      MOVS     r1,#6
        0x00000a1c:    4620         F      MOV      r0,r4
        0x00000a1e:    f7fffb5b    ..[.    BL       __aeabi_uidiv ; 0xd8
        0x00000a22:    1c80        ..      ADDS     r0,r0,#2
        0x00000a24:    2118        .!      MOVS     r1,#0x18
        0x00000a26:    4348        HC      MULS     r0,r1,r0
        0x00000a28:    a902        ..      ADD      r1,sp,#8
        0x00000a2a:    1847        G.      ADDS     r7,r0,r1
        0x00000a2c:    2106        .!      MOVS     r1,#6
        0x00000a2e:    4620         F      MOV      r0,r4
        0x00000a30:    f7fffb52    ..R.    BL       __aeabi_uidiv ; 0xd8
        0x00000a34:    0088        ..      LSLS     r0,r1,#2
        0x00000a36:    5838        8X      LDR      r0,[r7,r0]
        0x00000a38:    6028        (`      STR      r0,[r5,#0]
        0x00000a3a:    1d2d        -.      ADDS     r5,r5,#4
        0x00000a3c:    1c64        d.      ADDS     r4,r4,#1
        0x00000a3e:    2c18        .,      CMP      r4,#0x18
        0x00000a40:    d3eb        ..      BCC      0xa1a ; Read_puf_key + 174
        0x00000a42:    a832        2.      ADD      r0,sp,#0xc8
        0x00000a44:    f000fe84    ....    BL       apDes_Read_Data ; 0x1750
        0x00000a48:    2020                MOVS     r0,#0x20
        0x00000a4a:    9901        ..      LDR      r1,[sp,#4]
        0x00000a4c:    f001fab8    ....    BL       des_write_reg ; 0x1fc0
        0x00000a50:    b035        5.      ADD      sp,sp,#0xd4
        0x00000a52:    bdf0        ..      POP      {r4-r7,pc}
    $d
        0x00000a54:    16466464    ddF.    DCD    373711972
        0x00000a58:    2d1d3010    .0.-    DCD    756887568
    $t
    i.SD_spi_command
    SD_spi_command
        0x00000a5c:    b5f7        ..      PUSH     {r0-r2,r4-r7,lr}
        0x00000a5e:    b086        ..      SUB      sp,sp,#0x18
        0x00000a60:    460f        .F      MOV      r7,r1
        0x00000a62:    2000        .       MOVS     r0,#0
        0x00000a64:    9001        ..      STR      r0,[sp,#4]
        0x00000a66:    9002        ..      STR      r0,[sp,#8]
        0x00000a68:    2100        .!      MOVS     r1,#0
        0x00000a6a:    460c        .F      MOV      r4,r1
        0x00000a6c:    460d        .F      MOV      r5,r1
        0x00000a6e:    21ff        .!      MOVS     r1,#0xff
        0x00000a70:    3101        .1      ADDS     r1,#1
        0x00000a72:    0588        ..      LSLS     r0,r1,#22
        0x00000a74:    6181        .a      STR      r1,[r0,#0x18]
        0x00000a76:    200a        .       MOVS     r0,#0xa
        0x00000a78:    f001fa64    ..d.    BL       delay ; 0x1f44
        0x00000a7c:    9806        ..      LDR      r0,[sp,#0x18]
        0x00000a7e:    0680        ..      LSLS     r0,r0,#26
        0x00000a80:    0e80        ..      LSRS     r0,r0,#26
        0x00000a82:    3040        @0      ADDS     r0,r0,#0x40
        0x00000a84:    4669        iF      MOV      r1,sp
        0x00000a86:    7408        .t      STRB     r0,[r1,#0x10]
        0x00000a88:    0e39        9.      LSRS     r1,r7,#24
        0x00000a8a:    4668        hF      MOV      r0,sp
        0x00000a8c:    7441        At      STRB     r1,[r0,#0x11]
        0x00000a8e:    0238        8.      LSLS     r0,r7,#8
        0x00000a90:    0e01        ..      LSRS     r1,r0,#24
        0x00000a92:    4668        hF      MOV      r0,sp
        0x00000a94:    7481        .t      STRB     r1,[r0,#0x12]
        0x00000a96:    0438        8.      LSLS     r0,r7,#16
        0x00000a98:    0e01        ..      LSRS     r1,r0,#24
        0x00000a9a:    4668        hF      MOV      r0,sp
        0x00000a9c:    74c1        .t      STRB     r1,[r0,#0x13]
        0x00000a9e:    7507        .u      STRB     r7,[r0,#0x14]
        0x00000aa0:    2105        .!      MOVS     r1,#5
        0x00000aa2:    a804        ..      ADD      r0,sp,#0x10
        0x00000aa4:    f001f838    ..8.    BL       crc7_mmc ; 0x1b18
        0x00000aa8:    9003        ..      STR      r0,[sp,#0xc]
        0x00000aaa:    9803        ..      LDR      r0,[sp,#0xc]
        0x00000aac:    0040        @.      LSLS     r0,r0,#1
        0x00000aae:    1c40        @.      ADDS     r0,r0,#1
        0x00000ab0:    b2c1        ..      UXTB     r1,r0
        0x00000ab2:    4668        hF      MOV      r0,sp
        0x00000ab4:    7541        Au      STRB     r1,[r0,#0x15]
        0x00000ab6:    2600        .&      MOVS     r6,#0
        0x00000ab8:    e005        ..      B        0xac6 ; SD_spi_command + 106
        0x00000aba:    a804        ..      ADD      r0,sp,#0x10
        0x00000abc:    5d80        .]      LDRB     r0,[r0,r6]
        0x00000abe:    4942        BI      LDR      r1,[pc,#264] ; [0xbc8] = 0x40018000
        0x00000ac0:    6088        .`      STR      r0,[r1,#8]
        0x00000ac2:    1c70        p.      ADDS     r0,r6,#1
        0x00000ac4:    b2c6        ..      UXTB     r6,r0
        0x00000ac6:    2e06        ..      CMP      r6,#6
        0x00000ac8:    dbf7        ..      BLT      0xaba ; SD_spi_command + 94
        0x00000aca:    483f        ?H      LDR      r0,[pc,#252] ; [0xbc8] = 0x40018000
        0x00000acc:    f000fed3    ....    BL       apSSP_DeviceEnable ; 0x1876
        0x00000ad0:    bf00        ..      NOP      
        0x00000ad2:    483d        =H      LDR      r0,[pc,#244] ; [0xbc8] = 0x40018000
        0x00000ad4:    f000fec5    ....    BL       apSSP_DeviceBusyGet ; 0x1862
        0x00000ad8:    2800        .(      CMP      r0,#0
        0x00000ada:    d1fa        ..      BNE      0xad2 ; SD_spi_command + 118
        0x00000adc:    483a        :H      LDR      r0,[pc,#232] ; [0xbc8] = 0x40018000
        0x00000ade:    f000fec5    ....    BL       apSSP_DeviceDisable ; 0x186c
        0x00000ae2:    4839        9H      LDR      r0,[pc,#228] ; [0xbc8] = 0x40018000
        0x00000ae4:    f000fee5    ....    BL       apSSP_DeviceReceiveClear ; 0x18b2
        0x00000ae8:    2600        .&      MOVS     r6,#0
        0x00000aea:    bf00        ..      NOP      
        0x00000aec:    f000f870    ..p.    BL       SD_spi_getdata ; 0xbd0
        0x00000af0:    4669        iF      MOV      r1,sp
        0x00000af2:    7108        .q      STRB     r0,[r1,#4]
        0x00000af4:    1c70        p.      ADDS     r0,r6,#1
        0x00000af6:    b2c6        ..      UXTB     r6,r0
        0x00000af8:    4668        hF      MOV      r0,sp
        0x00000afa:    7901        .y      LDRB     r1,[r0,#4]
        0x00000afc:    7401        .t      STRB     r1,[r0,#0x10]
        0x00000afe:    7900        .y      LDRB     r0,[r0,#4]
        0x00000b00:    2180        .!      MOVS     r1,#0x80
        0x00000b02:    4008        .@      ANDS     r0,r0,r1
        0x00000b04:    2880        .(      CMP      r0,#0x80
        0x00000b06:    d0f1        ..      BEQ      0xaec ; SD_spi_command + 144
        0x00000b08:    9808        ..      LDR      r0,[sp,#0x20]
        0x00000b0a:    0003        ..      MOVS     r3,r0
        0x00000b0c:    f000fa98    ....    BL       __ARM_common_switch8 ; 0x1040
    $d
        0x00000b10:    0c0b0508    ....    DCD    202048776
        0x00000b14:    47474717    .GGG    DCD    1195853591
        0x00000b18:    472f        /G      DCW    18223
    $t
        0x00000b1a:    f000f859    ..Y.    BL       SD_spi_getdata ; 0xbd0
        0x00000b1e:    4668        hF      MOV      r0,sp
        0x00000b20:    7904        .y      LDRB     r4,[r0,#4]
        0x00000b22:    2500        .%      MOVS     r5,#0
        0x00000b24:    e03c        <.      B        0xba0 ; SD_spi_command + 324
        0x00000b26:    e03b        ;.      B        0xba0 ; SD_spi_command + 324
        0x00000b28:    f000f852    ..R.    BL       SD_spi_getdata ; 0xbd0
        0x00000b2c:    4669        iF      MOV      r1,sp
        0x00000b2e:    7148        Hq      STRB     r0,[r1,#5]
        0x00000b30:    4668        hF      MOV      r0,sp
        0x00000b32:    7900        .y      LDRB     r0,[r0,#4]
        0x00000b34:    0204        ..      LSLS     r4,r0,#8
        0x00000b36:    7949        Iy      LDRB     r1,[r1,#5]
        0x00000b38:    430c        .C      ORRS     r4,r4,r1
        0x00000b3a:    17e5        ..      ASRS     r5,r4,#31
        0x00000b3c:    e030        0.      B        0xba0 ; SD_spi_command + 324
        0x00000b3e:    2601        .&      MOVS     r6,#1
        0x00000b40:    e005        ..      B        0xb4e ; SD_spi_command + 242
        0x00000b42:    f000f845    ..E.    BL       SD_spi_getdata ; 0xbd0
        0x00000b46:    a901        ..      ADD      r1,sp,#4
        0x00000b48:    5588        .U      STRB     r0,[r1,r6]
        0x00000b4a:    1c70        p.      ADDS     r0,r6,#1
        0x00000b4c:    b2c6        ..      UXTB     r6,r0
        0x00000b4e:    2e05        ..      CMP      r6,#5
        0x00000b50:    dbf7        ..      BLT      0xb42 ; SD_spi_command + 230
        0x00000b52:    2600        .&      MOVS     r6,#0
        0x00000b54:    e008        ..      B        0xb68 ; SD_spi_command + 268
        0x00000b56:    a801        ..      ADD      r0,sp,#4
        0x00000b58:    5d80        .]      LDRB     r0,[r0,r6]
        0x00000b5a:    00f1        ..      LSLS     r1,r6,#3
        0x00000b5c:    4088        .@      LSLS     r0,r0,r1
        0x00000b5e:    17c1        ..      ASRS     r1,r0,#31
        0x00000b60:    4304        .C      ORRS     r4,r4,r0
        0x00000b62:    430d        .C      ORRS     r5,r5,r1
        0x00000b64:    1c70        p.      ADDS     r0,r6,#1
        0x00000b66:    b2c6        ..      UXTB     r6,r0
        0x00000b68:    2e05        ..      CMP      r6,#5
        0x00000b6a:    dbf4        ..      BLT      0xb56 ; SD_spi_command + 250
        0x00000b6c:    e018        ..      B        0xba0 ; SD_spi_command + 324
        0x00000b6e:    2601        .&      MOVS     r6,#1
        0x00000b70:    e005        ..      B        0xb7e ; SD_spi_command + 290
        0x00000b72:    f000f82d    ..-.    BL       SD_spi_getdata ; 0xbd0
        0x00000b76:    a901        ..      ADD      r1,sp,#4
        0x00000b78:    5588        .U      STRB     r0,[r1,r6]
        0x00000b7a:    1c70        p.      ADDS     r0,r6,#1
        0x00000b7c:    b2c6        ..      UXTB     r6,r0
        0x00000b7e:    2e05        ..      CMP      r6,#5
        0x00000b80:    dbf7        ..      BLT      0xb72 ; SD_spi_command + 278
        0x00000b82:    2600        .&      MOVS     r6,#0
        0x00000b84:    e008        ..      B        0xb98 ; SD_spi_command + 316
        0x00000b86:    a801        ..      ADD      r0,sp,#4
        0x00000b88:    5d80        .]      LDRB     r0,[r0,r6]
        0x00000b8a:    00f1        ..      LSLS     r1,r6,#3
        0x00000b8c:    4088        .@      LSLS     r0,r0,r1
        0x00000b8e:    17c1        ..      ASRS     r1,r0,#31
        0x00000b90:    4304        .C      ORRS     r4,r4,r0
        0x00000b92:    430d        .C      ORRS     r5,r5,r1
        0x00000b94:    1c70        p.      ADDS     r0,r6,#1
        0x00000b96:    b2c6        ..      UXTB     r6,r0
        0x00000b98:    2e05        ..      CMP      r6,#5
        0x00000b9a:    dbf4        ..      BLT      0xb86 ; SD_spi_command + 298
        0x00000b9c:    e000        ..      B        0xba0 ; SD_spi_command + 324
        0x00000b9e:    bf00        ..      NOP      
        0x00000ba0:    bf00        ..      NOP      
        0x00000ba2:    21ff        .!      MOVS     r1,#0xff
        0x00000ba4:    3101        .1      ADDS     r1,#1
        0x00000ba6:    0588        ..      LSLS     r0,r1,#22
        0x00000ba8:    6141        Aa      STR      r1,[r0,#0x14]
        0x00000baa:    bf00        ..      NOP      
        0x00000bac:    4807        .H      LDR      r0,[pc,#28] ; [0xbcc] = 0x40010000
        0x00000bae:    f000feb5    ....    BL       apUART_Check_BUSY ; 0x191c
        0x00000bb2:    2801        .(      CMP      r0,#1
        0x00000bb4:    d0fa        ..      BEQ      0xbac ; SD_spi_command + 336
        0x00000bb6:    f000f80b    ....    BL       SD_spi_getdata ; 0xbd0
        0x00000bba:    f000f809    ....    BL       SD_spi_getdata ; 0xbd0
        0x00000bbe:    4620         F      MOV      r0,r4
        0x00000bc0:    4629        )F      MOV      r1,r5
        0x00000bc2:    b009        ..      ADD      sp,sp,#0x24
        0x00000bc4:    bdf0        ..      POP      {r4-r7,pc}
    $d
        0x00000bc6:    0000        ..      DCW    0
        0x00000bc8:    40018000    ...@    DCD    1073840128
        0x00000bcc:    40010000    ...@    DCD    1073807360
    $t
    i.SD_spi_getdata
    SD_spi_getdata
        0x00000bd0:    b510        ..      PUSH     {r4,lr}
        0x00000bd2:    20ff        .       MOVS     r0,#0xff
        0x00000bd4:    4909        .I      LDR      r1,[pc,#36] ; [0xbfc] = 0x40018000
        0x00000bd6:    6088        .`      STR      r0,[r1,#8]
        0x00000bd8:    4608        .F      MOV      r0,r1
        0x00000bda:    f000fe4c    ..L.    BL       apSSP_DeviceEnable ; 0x1876
        0x00000bde:    bf00        ..      NOP      
        0x00000be0:    4806        .H      LDR      r0,[pc,#24] ; [0xbfc] = 0x40018000
        0x00000be2:    f000fe3e    ..>.    BL       apSSP_DeviceBusyGet ; 0x1862
        0x00000be6:    2800        .(      CMP      r0,#0
        0x00000be8:    d1fa        ..      BNE      0xbe0 ; SD_spi_getdata + 16
        0x00000bea:    4804        .H      LDR      r0,[pc,#16] ; [0xbfc] = 0x40018000
        0x00000bec:    f000fe3e    ..>.    BL       apSSP_DeviceDisable ; 0x186c
        0x00000bf0:    4802        .H      LDR      r0,[pc,#8] ; [0xbfc] = 0x40018000
        0x00000bf2:    f000fe6f    ..o.    BL       apSSP_ReadFIFO ; 0x18d4
        0x00000bf6:    b2c0        ..      UXTB     r0,r0
        0x00000bf8:    bd10        ..      POP      {r4,pc}
    $d
        0x00000bfa:    0000        ..      DCW    0
        0x00000bfc:    40018000    ...@    DCD    1073840128
    $t
    i.SD_spi_read_command
    SD_spi_read_command
        0x00000c00:    b5d7        ..      PUSH     {r0-r2,r4,r6,r7,lr}
        0x00000c02:    b085        ..      SUB      sp,sp,#0x14
        0x00000c04:    460f        .F      MOV      r7,r1
        0x00000c06:    2000        .       MOVS     r0,#0
        0x00000c08:    9000        ..      STR      r0,[sp,#0]
        0x00000c0a:    9001        ..      STR      r0,[sp,#4]
        0x00000c0c:    2400        .$      MOVS     r4,#0
        0x00000c0e:    21ff        .!      MOVS     r1,#0xff
        0x00000c10:    3101        .1      ADDS     r1,#1
        0x00000c12:    0588        ..      LSLS     r0,r1,#22
        0x00000c14:    6181        .a      STR      r1,[r0,#0x18]
        0x00000c16:    200a        .       MOVS     r0,#0xa
        0x00000c18:    f001f994    ....    BL       delay ; 0x1f44
        0x00000c1c:    9805        ..      LDR      r0,[sp,#0x14]
        0x00000c1e:    0680        ..      LSLS     r0,r0,#26
        0x00000c20:    0e80        ..      LSRS     r0,r0,#26
        0x00000c22:    3040        @0      ADDS     r0,r0,#0x40
        0x00000c24:    4669        iF      MOV      r1,sp
        0x00000c26:    7308        .s      STRB     r0,[r1,#0xc]
        0x00000c28:    0e39        9.      LSRS     r1,r7,#24
        0x00000c2a:    4668        hF      MOV      r0,sp
        0x00000c2c:    7341        As      STRB     r1,[r0,#0xd]
        0x00000c2e:    0238        8.      LSLS     r0,r7,#8
        0x00000c30:    0e01        ..      LSRS     r1,r0,#24
        0x00000c32:    4668        hF      MOV      r0,sp
        0x00000c34:    7381        .s      STRB     r1,[r0,#0xe]
        0x00000c36:    0438        8.      LSLS     r0,r7,#16
        0x00000c38:    0e01        ..      LSRS     r1,r0,#24
        0x00000c3a:    4668        hF      MOV      r0,sp
        0x00000c3c:    73c1        .s      STRB     r1,[r0,#0xf]
        0x00000c3e:    7407        .t      STRB     r7,[r0,#0x10]
        0x00000c40:    2105        .!      MOVS     r1,#5
        0x00000c42:    a803        ..      ADD      r0,sp,#0xc
        0x00000c44:    f000ff68    ..h.    BL       crc7_mmc ; 0x1b18
        0x00000c48:    9002        ..      STR      r0,[sp,#8]
        0x00000c4a:    9802        ..      LDR      r0,[sp,#8]
        0x00000c4c:    0040        @.      LSLS     r0,r0,#1
        0x00000c4e:    1c40        @.      ADDS     r0,r0,#1
        0x00000c50:    b2c1        ..      UXTB     r1,r0
        0x00000c52:    4668        hF      MOV      r0,sp
        0x00000c54:    7441        At      STRB     r1,[r0,#0x11]
        0x00000c56:    bf00        ..      NOP      
        0x00000c58:    483e        >H      LDR      r0,[pc,#248] ; [0xd54] = 0x40010000
        0x00000c5a:    f000fe5f    .._.    BL       apUART_Check_BUSY ; 0x191c
        0x00000c5e:    2801        .(      CMP      r0,#1
        0x00000c60:    d0fa        ..      BEQ      0xc58 ; SD_spi_read_command + 88
        0x00000c62:    2600        .&      MOVS     r6,#0
        0x00000c64:    e005        ..      B        0xc72 ; SD_spi_read_command + 114
        0x00000c66:    a803        ..      ADD      r0,sp,#0xc
        0x00000c68:    5d80        .]      LDRB     r0,[r0,r6]
        0x00000c6a:    493b        ;I      LDR      r1,[pc,#236] ; [0xd58] = 0x40018000
        0x00000c6c:    6088        .`      STR      r0,[r1,#8]
        0x00000c6e:    1c70        p.      ADDS     r0,r6,#1
        0x00000c70:    b2c6        ..      UXTB     r6,r0
        0x00000c72:    2e06        ..      CMP      r6,#6
        0x00000c74:    dbf7        ..      BLT      0xc66 ; SD_spi_read_command + 102
        0x00000c76:    4838        8H      LDR      r0,[pc,#224] ; [0xd58] = 0x40018000
        0x00000c78:    f000fdfd    ....    BL       apSSP_DeviceEnable ; 0x1876
        0x00000c7c:    bf00        ..      NOP      
        0x00000c7e:    4836        6H      LDR      r0,[pc,#216] ; [0xd58] = 0x40018000
        0x00000c80:    f000fdef    ....    BL       apSSP_DeviceBusyGet ; 0x1862
        0x00000c84:    2800        .(      CMP      r0,#0
        0x00000c86:    d1fa        ..      BNE      0xc7e ; SD_spi_read_command + 126
        0x00000c88:    4833        3H      LDR      r0,[pc,#204] ; [0xd58] = 0x40018000
        0x00000c8a:    f000fdef    ....    BL       apSSP_DeviceDisable ; 0x186c
        0x00000c8e:    4832        2H      LDR      r0,[pc,#200] ; [0xd58] = 0x40018000
        0x00000c90:    f000fe0f    ....    BL       apSSP_DeviceReceiveClear ; 0x18b2
        0x00000c94:    2600        .&      MOVS     r6,#0
        0x00000c96:    bf00        ..      NOP      
        0x00000c98:    f7ffff9a    ....    BL       SD_spi_getdata ; 0xbd0
        0x00000c9c:    4669        iF      MOV      r1,sp
        0x00000c9e:    7008        .p      STRB     r0,[r1,#0]
        0x00000ca0:    1c70        p.      ADDS     r0,r6,#1
        0x00000ca2:    b2c6        ..      UXTB     r6,r0
        0x00000ca4:    4668        hF      MOV      r0,sp
        0x00000ca6:    7801        .x      LDRB     r1,[r0,#0]
        0x00000ca8:    7301        .s      STRB     r1,[r0,#0xc]
        0x00000caa:    7800        .x      LDRB     r0,[r0,#0]
        0x00000cac:    2180        .!      MOVS     r1,#0x80
        0x00000cae:    4008        .@      ANDS     r0,r0,r1
        0x00000cb0:    2880        .(      CMP      r0,#0x80
        0x00000cb2:    d0f1        ..      BEQ      0xc98 ; SD_spi_read_command + 152
        0x00000cb4:    9807        ..      LDR      r0,[sp,#0x1c]
        0x00000cb6:    0003        ..      MOVS     r3,r0
        0x00000cb8:    f000f9c2    ....    BL       __ARM_common_switch8 ; 0x1040
    $d
        0x00000cbc:    0b0a0508    ....    DCD    185206024
        0x00000cc0:    41414115    .AAA    DCD    1094795541
        0x00000cc4:    412b        +A      DCW    16683
    $t
        0x00000cc6:    f7ffff83    ....    BL       SD_spi_getdata ; 0xbd0
        0x00000cca:    4668        hF      MOV      r0,sp
        0x00000ccc:    7804        .x      LDRB     r4,[r0,#0]
        0x00000cce:    e037        7.      B        0xd40 ; SD_spi_read_command + 320
        0x00000cd0:    e036        6.      B        0xd40 ; SD_spi_read_command + 320
        0x00000cd2:    f7ffff7d    ..}.    BL       SD_spi_getdata ; 0xbd0
        0x00000cd6:    4669        iF      MOV      r1,sp
        0x00000cd8:    7048        Hp      STRB     r0,[r1,#1]
        0x00000cda:    4668        hF      MOV      r0,sp
        0x00000cdc:    7800        .x      LDRB     r0,[r0,#0]
        0x00000cde:    0204        ..      LSLS     r4,r0,#8
        0x00000ce0:    7849        Ix      LDRB     r1,[r1,#1]
        0x00000ce2:    430c        .C      ORRS     r4,r4,r1
        0x00000ce4:    e02c        ,.      B        0xd40 ; SD_spi_read_command + 320
        0x00000ce6:    2601        .&      MOVS     r6,#1
        0x00000ce8:    e005        ..      B        0xcf6 ; SD_spi_read_command + 246
        0x00000cea:    f7ffff71    ..q.    BL       SD_spi_getdata ; 0xbd0
        0x00000cee:    4669        iF      MOV      r1,sp
        0x00000cf0:    5588        .U      STRB     r0,[r1,r6]
        0x00000cf2:    1c70        p.      ADDS     r0,r6,#1
        0x00000cf4:    b2c6        ..      UXTB     r6,r0
        0x00000cf6:    2e05        ..      CMP      r6,#5
        0x00000cf8:    dbf7        ..      BLT      0xcea ; SD_spi_read_command + 234
        0x00000cfa:    2600        .&      MOVS     r6,#0
        0x00000cfc:    e006        ..      B        0xd0c ; SD_spi_read_command + 268
        0x00000cfe:    4668        hF      MOV      r0,sp
        0x00000d00:    5d80        .]      LDRB     r0,[r0,r6]
        0x00000d02:    00f1        ..      LSLS     r1,r6,#3
        0x00000d04:    4088        .@      LSLS     r0,r0,r1
        0x00000d06:    4304        .C      ORRS     r4,r4,r0
        0x00000d08:    1c70        p.      ADDS     r0,r6,#1
        0x00000d0a:    b2c6        ..      UXTB     r6,r0
        0x00000d0c:    2e05        ..      CMP      r6,#5
        0x00000d0e:    dbf6        ..      BLT      0xcfe ; SD_spi_read_command + 254
        0x00000d10:    e016        ..      B        0xd40 ; SD_spi_read_command + 320
        0x00000d12:    2601        .&      MOVS     r6,#1
        0x00000d14:    e005        ..      B        0xd22 ; SD_spi_read_command + 290
        0x00000d16:    f7ffff5b    ..[.    BL       SD_spi_getdata ; 0xbd0
        0x00000d1a:    4669        iF      MOV      r1,sp
        0x00000d1c:    5588        .U      STRB     r0,[r1,r6]
        0x00000d1e:    1c70        p.      ADDS     r0,r6,#1
        0x00000d20:    b2c6        ..      UXTB     r6,r0
        0x00000d22:    2e05        ..      CMP      r6,#5
        0x00000d24:    dbf7        ..      BLT      0xd16 ; SD_spi_read_command + 278
        0x00000d26:    2600        .&      MOVS     r6,#0
        0x00000d28:    e006        ..      B        0xd38 ; SD_spi_read_command + 312
        0x00000d2a:    4668        hF      MOV      r0,sp
        0x00000d2c:    5d80        .]      LDRB     r0,[r0,r6]
        0x00000d2e:    00f1        ..      LSLS     r1,r6,#3
        0x00000d30:    4088        .@      LSLS     r0,r0,r1
        0x00000d32:    4304        .C      ORRS     r4,r4,r0
        0x00000d34:    1c70        p.      ADDS     r0,r6,#1
        0x00000d36:    b2c6        ..      UXTB     r6,r0
        0x00000d38:    2e05        ..      CMP      r6,#5
        0x00000d3a:    dbf6        ..      BLT      0xd2a ; SD_spi_read_command + 298
        0x00000d3c:    e000        ..      B        0xd40 ; SD_spi_read_command + 320
        0x00000d3e:    bf00        ..      NOP      
        0x00000d40:    bf00        ..      NOP      
        0x00000d42:    bf00        ..      NOP      
        0x00000d44:    4803        .H      LDR      r0,[pc,#12] ; [0xd54] = 0x40010000
        0x00000d46:    f000fde9    ....    BL       apUART_Check_BUSY ; 0x191c
        0x00000d4a:    2801        .(      CMP      r0,#1
        0x00000d4c:    d0fa        ..      BEQ      0xd44 ; SD_spi_read_command + 324
        0x00000d4e:    4620         F      MOV      r0,r4
        0x00000d50:    b008        ..      ADD      sp,sp,#0x20
        0x00000d52:    bdd0        ..      POP      {r4,r6,r7,pc}
    $d
        0x00000d54:    40010000    ...@    DCD    1073807360
        0x00000d58:    40018000    ...@    DCD    1073840128
    $t
    i.SD_spi_read_single_blk
    SD_spi_read_single_blk
        0x00000d5c:    b5fe        ..      PUSH     {r1-r7,lr}
        0x00000d5e:    460e        .F      MOV      r6,r1
        0x00000d60:    4615        .F      MOV      r5,r2
        0x00000d62:    21ff        .!      MOVS     r1,#0xff
        0x00000d64:    3101        .1      ADDS     r1,#1
        0x00000d66:    0588        ..      LSLS     r0,r1,#22
        0x00000d68:    6181        .a      STR      r1,[r0,#0x18]
        0x00000d6a:    2200        ."      MOVS     r2,#0
        0x00000d6c:    4631        1F      MOV      r1,r6
        0x00000d6e:    2011        .       MOVS     r0,#0x11
        0x00000d70:    f7ffff46    ..F.    BL       SD_spi_read_command ; 0xc00
        0x00000d74:    bf00        ..      NOP      
        0x00000d76:    f7ffff2b    ..+.    BL       SD_spi_getdata ; 0xbd0
        0x00000d7a:    4604        .F      MOV      r4,r0
        0x00000d7c:    2cff        .,      CMP      r4,#0xff
        0x00000d7e:    d0fa        ..      BEQ      0xd76 ; SD_spi_read_single_blk + 26
        0x00000d80:    2cfe        .,      CMP      r4,#0xfe
        0x00000d82:    d001        ..      BEQ      0xd88 ; SD_spi_read_single_blk + 44
        0x00000d84:    2000        .       MOVS     r0,#0
        0x00000d86:    bdfe        ..      POP      {r1-r7,pc}
        0x00000d88:    482c        ,H      LDR      r0,[pc,#176] ; [0xe3c] = 0x40018000
        0x00000d8a:    f000fd74    ..t.    BL       apSSP_DeviceEnable ; 0x1876
        0x00000d8e:    482b        +H      LDR      r0,[pc,#172] ; [0xe3c] = 0x40018000
        0x00000d90:    f000fd8f    ....    BL       apSSP_DeviceReceiveClear ; 0x18b2
        0x00000d94:    2101        .!      MOVS     r1,#1
        0x00000d96:    4829        )H      LDR      r0,[pc,#164] ; [0xe3c] = 0x40018000
        0x00000d98:    f000fd44    ..D.    BL       apSSP_DMAModeSet ; 0x1824
        0x00000d9c:    2103        .!      MOVS     r1,#3
        0x00000d9e:    4827        'H      LDR      r0,[pc,#156] ; [0xe3c] = 0x40018000
        0x00000da0:    f000fd40    ..@.    BL       apSSP_DMAModeSet ; 0x1824
        0x00000da4:    f7fffcfa    ....    BL       DMA_Enable ; 0x79c
        0x00000da8:    4824        $H      LDR      r0,[pc,#144] ; [0xe3c] = 0x40018000
        0x00000daa:    f000fd37    ..7.    BL       apSSP_DMAAddressGet ; 0x181c
        0x00000dae:    9002        ..      STR      r0,[sp,#8]
        0x00000db0:    2000        .       MOVS     r0,#0
        0x00000db2:    4923        #I      LDR      r1,[pc,#140] ; [0xe40] = 0x20000040
        0x00000db4:    6809        .h      LDR      r1,[r1,#0]
        0x00000db6:    9100        ..      STR      r1,[sp,#0]
        0x00000db8:    9001        ..      STR      r0,[sp,#4]
        0x00000dba:    4822        "H      LDR      r0,[pc,#136] ; [0xe44] = 0x2000003c
        0x00000dbc:    6803        .h      LDR      r3,[r0,#0]
        0x00000dbe:    4822        "H      LDR      r0,[pc,#136] ; [0xe48] = 0x20000038
        0x00000dc0:    6802        .h      LDR      r2,[r0,#0]
        0x00000dc2:    4628        (F      MOV      r0,r5
        0x00000dc4:    9902        ..      LDR      r1,[sp,#8]
        0x00000dc6:    f7fffd59    ..Y.    BL       DMA_SetChannelReg ; 0x87c
        0x00000dca:    481c        .H      LDR      r0,[pc,#112] ; [0xe3c] = 0x40018000
        0x00000dcc:    f000fd26    ..&.    BL       apSSP_DMAAddressGet ; 0x181c
        0x00000dd0:    9002        ..      STR      r0,[sp,#8]
        0x00000dd2:    2001        .       MOVS     r0,#1
        0x00000dd4:    491d        .I      LDR      r1,[pc,#116] ; [0xe4c] = 0x20000054
        0x00000dd6:    6809        .h      LDR      r1,[r1,#0]
        0x00000dd8:    9100        ..      STR      r1,[sp,#0]
        0x00000dda:    9001        ..      STR      r0,[sp,#4]
        0x00000ddc:    481c        .H      LDR      r0,[pc,#112] ; [0xe50] = 0x20000050
        0x00000dde:    6803        .h      LDR      r3,[r0,#0]
        0x00000de0:    481c        .H      LDR      r0,[pc,#112] ; [0xe54] = 0x2000004c
        0x00000de2:    4621        !F      MOV      r1,r4
        0x00000de4:    6802        .h      LDR      r2,[r0,#0]
        0x00000de6:    9802        ..      LDR      r0,[sp,#8]
        0x00000de8:    f7fffd48    ..H.    BL       DMA_SetChannelReg ; 0x87c
        0x00000dec:    bf00        ..      NOP      
        0x00000dee:    f7fffce9    ....    BL       DMA_GetActiveChannels ; 0x7c4
        0x00000df2:    2800        .(      CMP      r0,#0
        0x00000df4:    d1fb        ..      BNE      0xdee ; SD_spi_read_single_blk + 146
        0x00000df6:    4811        .H      LDR      r0,[pc,#68] ; [0xe3c] = 0x40018000
        0x00000df8:    f000fd38    ..8.    BL       apSSP_DeviceDisable ; 0x186c
        0x00000dfc:    2102        .!      MOVS     r1,#2
        0x00000dfe:    480f        .H      LDR      r0,[pc,#60] ; [0xe3c] = 0x40018000
        0x00000e00:    f000fd10    ....    BL       apSSP_DMAModeSet ; 0x1824
        0x00000e04:    2104        .!      MOVS     r1,#4
        0x00000e06:    480d        .H      LDR      r0,[pc,#52] ; [0xe3c] = 0x40018000
        0x00000e08:    f000fd0c    ....    BL       apSSP_DMAModeSet ; 0x1824
        0x00000e0c:    f7fffcbc    ....    BL       DMA_Disable ; 0x788
        0x00000e10:    f7fffede    ....    BL       SD_spi_getdata ; 0xbd0
        0x00000e14:    0207        ..      LSLS     r7,r0,#8
        0x00000e16:    f7fffedb    ....    BL       SD_spi_getdata ; 0xbd0
        0x00000e1a:    4307        .C      ORRS     r7,r7,r0
        0x00000e1c:    21ff        .!      MOVS     r1,#0xff
        0x00000e1e:    3101        .1      ADDS     r1,#1
        0x00000e20:    0588        ..      LSLS     r0,r1,#22
        0x00000e22:    6141        Aa      STR      r1,[r0,#0x14]
        0x00000e24:    f7fffed4    ....    BL       SD_spi_getdata ; 0xbd0
        0x00000e28:    f7fffed2    ....    BL       SD_spi_getdata ; 0xbd0
        0x00000e2c:    bf00        ..      NOP      
        0x00000e2e:    480a        .H      LDR      r0,[pc,#40] ; [0xe58] = 0x40010000
        0x00000e30:    f000fd74    ..t.    BL       apUART_Check_BUSY ; 0x191c
        0x00000e34:    2801        .(      CMP      r0,#1
        0x00000e36:    d0fa        ..      BEQ      0xe2e ; SD_spi_read_single_blk + 210
        0x00000e38:    2002        .       MOVS     r0,#2
        0x00000e3a:    e7a4        ..      B        0xd86 ; SD_spi_read_single_blk + 42
    $d
        0x00000e3c:    40018000    ...@    DCD    1073840128
        0x00000e40:    20000040    @..     DCD    536870976
        0x00000e44:    2000003c    <..     DCD    536870972
        0x00000e48:    20000038    8..     DCD    536870968
        0x00000e4c:    20000054    T..     DCD    536870996
        0x00000e50:    20000050    P..     DCD    536870992
        0x00000e54:    2000004c    L..     DCD    536870988
        0x00000e58:    40010000    ...@    DCD    1073807360
    $t
    i.SD_spi_send_byte
    SD_spi_send_byte
        0x00000e5c:    b510        ..      PUSH     {r4,lr}
        0x00000e5e:    4604        .F      MOV      r4,r0
        0x00000e60:    4808        .H      LDR      r0,[pc,#32] ; [0xe84] = 0x40018000
        0x00000e62:    6084        .`      STR      r4,[r0,#8]
        0x00000e64:    f000fd07    ....    BL       apSSP_DeviceEnable ; 0x1876
        0x00000e68:    bf00        ..      NOP      
        0x00000e6a:    4806        .H      LDR      r0,[pc,#24] ; [0xe84] = 0x40018000
        0x00000e6c:    f000fcf9    ....    BL       apSSP_DeviceBusyGet ; 0x1862
        0x00000e70:    2800        .(      CMP      r0,#0
        0x00000e72:    d1fa        ..      BNE      0xe6a ; SD_spi_send_byte + 14
        0x00000e74:    4803        .H      LDR      r0,[pc,#12] ; [0xe84] = 0x40018000
        0x00000e76:    f000fcf9    ....    BL       apSSP_DeviceDisable ; 0x186c
        0x00000e7a:    4802        .H      LDR      r0,[pc,#8] ; [0xe84] = 0x40018000
        0x00000e7c:    f000fd2a    ..*.    BL       apSSP_ReadFIFO ; 0x18d4
        0x00000e80:    bd10        ..      POP      {r4,pc}
    $d
        0x00000e82:    0000        ..      DCW    0
        0x00000e84:    40018000    ...@    DCD    1073840128
    $t
    i.SD_spi_write_single_blk
    SD_spi_write_single_blk
        0x00000e88:    b5fe        ..      PUSH     {r1-r7,lr}
        0x00000e8a:    460f        .F      MOV      r7,r1
        0x00000e8c:    4616        .F      MOV      r6,r2
        0x00000e8e:    21ff        .!      MOVS     r1,#0xff
        0x00000e90:    3101        .1      ADDS     r1,#1
        0x00000e92:    0588        ..      LSLS     r0,r1,#22
        0x00000e94:    6181        .a      STR      r1,[r0,#0x18]
        0x00000e96:    bf00        ..      NOP      
        0x00000e98:    482e        .H      LDR      r0,[pc,#184] ; [0xf54] = 0x40010000
        0x00000e9a:    f000fd3f    ..?.    BL       apUART_Check_BUSY ; 0x191c
        0x00000e9e:    2801        .(      CMP      r0,#1
        0x00000ea0:    d0fa        ..      BEQ      0xe98 ; SD_spi_write_single_blk + 16
        0x00000ea2:    2200        ."      MOVS     r2,#0
        0x00000ea4:    4639        9F      MOV      r1,r7
        0x00000ea6:    2018        .       MOVS     r0,#0x18
        0x00000ea8:    f7fffeaa    ....    BL       SD_spi_read_command ; 0xc00
        0x00000eac:    20fe        .       MOVS     r0,#0xfe
        0x00000eae:    f7ffffd5    ....    BL       SD_spi_send_byte ; 0xe5c
        0x00000eb2:    4829        )H      LDR      r0,[pc,#164] ; [0xf58] = 0x40018000
        0x00000eb4:    f000fcdf    ....    BL       apSSP_DeviceEnable ; 0x1876
        0x00000eb8:    4827        'H      LDR      r0,[pc,#156] ; [0xf58] = 0x40018000
        0x00000eba:    f000fcfa    ....    BL       apSSP_DeviceReceiveClear ; 0x18b2
        0x00000ebe:    2101        .!      MOVS     r1,#1
        0x00000ec0:    4825        %H      LDR      r0,[pc,#148] ; [0xf58] = 0x40018000
        0x00000ec2:    f000fcaf    ....    BL       apSSP_DMAModeSet ; 0x1824
        0x00000ec6:    f7fffc69    ..i.    BL       DMA_Enable ; 0x79c
        0x00000eca:    4823        #H      LDR      r0,[pc,#140] ; [0xf58] = 0x40018000
        0x00000ecc:    f000fca6    ....    BL       apSSP_DMAAddressGet ; 0x181c
        0x00000ed0:    9002        ..      STR      r0,[sp,#8]
        0x00000ed2:    2001        .       MOVS     r0,#1
        0x00000ed4:    4921        !I      LDR      r1,[pc,#132] ; [0xf5c] = 0x20000068
        0x00000ed6:    6809        .h      LDR      r1,[r1,#0]
        0x00000ed8:    9100        ..      STR      r1,[sp,#0]
        0x00000eda:    9001        ..      STR      r0,[sp,#4]
        0x00000edc:    4820         H      LDR      r0,[pc,#128] ; [0xf60] = 0x20000064
        0x00000ede:    6803        .h      LDR      r3,[r0,#0]
        0x00000ee0:    4820         H      LDR      r0,[pc,#128] ; [0xf64] = 0x20000060
        0x00000ee2:    4631        1F      MOV      r1,r6
        0x00000ee4:    6802        .h      LDR      r2,[r0,#0]
        0x00000ee6:    9802        ..      LDR      r0,[sp,#8]
        0x00000ee8:    f7fffcc8    ....    BL       DMA_SetChannelReg ; 0x87c
        0x00000eec:    bf00        ..      NOP      
        0x00000eee:    f7fffc69    ..i.    BL       DMA_GetActiveChannels ; 0x7c4
        0x00000ef2:    2800        .(      CMP      r0,#0
        0x00000ef4:    d1fb        ..      BNE      0xeee ; SD_spi_write_single_blk + 102
        0x00000ef6:    4818        .H      LDR      r0,[pc,#96] ; [0xf58] = 0x40018000
        0x00000ef8:    f000fcb8    ....    BL       apSSP_DeviceDisable ; 0x186c
        0x00000efc:    2102        .!      MOVS     r1,#2
        0x00000efe:    4816        .H      LDR      r0,[pc,#88] ; [0xf58] = 0x40018000
        0x00000f00:    f000fc90    ....    BL       apSSP_DMAModeSet ; 0x1824
        0x00000f04:    f7fffc40    ..@.    BL       DMA_Disable ; 0x788
        0x00000f08:    2000        .       MOVS     r0,#0
        0x00000f0a:    f7ffffa7    ....    BL       SD_spi_send_byte ; 0xe5c
        0x00000f0e:    2000        .       MOVS     r0,#0
        0x00000f10:    f7ffffa4    ....    BL       SD_spi_send_byte ; 0xe5c
        0x00000f14:    20ff        .       MOVS     r0,#0xff
        0x00000f16:    f7ffffa1    ....    BL       SD_spi_send_byte ; 0xe5c
        0x00000f1a:    bf00        ..      NOP      
        0x00000f1c:    f7fffe58    ..X.    BL       SD_spi_getdata ; 0xbd0
        0x00000f20:    4604        .F      MOV      r4,r0
        0x00000f22:    2cff        .,      CMP      r4,#0xff
        0x00000f24:    d0fa        ..      BEQ      0xf1c ; SD_spi_write_single_blk + 148
        0x00000f26:    06e4        ..      LSLS     r4,r4,#27
        0x00000f28:    0ee4        ..      LSRS     r4,r4,#27
        0x00000f2a:    bf00        ..      NOP      
        0x00000f2c:    4809        .H      LDR      r0,[pc,#36] ; [0xf54] = 0x40010000
        0x00000f2e:    f000fcf5    ....    BL       apUART_Check_BUSY ; 0x191c
        0x00000f32:    2801        .(      CMP      r0,#1
        0x00000f34:    d0fa        ..      BEQ      0xf2c ; SD_spi_write_single_blk + 164
        0x00000f36:    bf00        ..      NOP      
        0x00000f38:    f7fffe4a    ..J.    BL       SD_spi_getdata ; 0xbd0
        0x00000f3c:    4605        .F      MOV      r5,r0
        0x00000f3e:    2dff        .-      CMP      r5,#0xff
        0x00000f40:    d1fa        ..      BNE      0xf38 ; SD_spi_write_single_blk + 176
        0x00000f42:    1c41        A.      ADDS     r1,r0,#1
        0x00000f44:    0588        ..      LSLS     r0,r1,#22
        0x00000f46:    6141        Aa      STR      r1,[r0,#0x14]
        0x00000f48:    f7fffe42    ..B.    BL       SD_spi_getdata ; 0xbd0
        0x00000f4c:    f7fffe40    ..@.    BL       SD_spi_getdata ; 0xbd0
        0x00000f50:    4620         F      MOV      r0,r4
        0x00000f52:    bdfe        ..      POP      {r1-r7,pc}
    $d
        0x00000f54:    40010000    ...@    DCD    1073807360
        0x00000f58:    40018000    ...@    DCD    1073840128
        0x00000f5c:    20000068    h..     DCD    536871016
        0x00000f60:    20000064    d..     DCD    536871012
        0x00000f64:    20000060    `..     DCD    536871008
    $t
    i.SER_GetChar
    SER_GetChar
        0x00000f68:    b510        ..      PUSH     {r4,lr}
        0x00000f6a:    4802        .H      LDR      r0,[pc,#8] ; [0xf74] = 0x40010000
        0x00000f6c:    f000f852    ..R.    BL       UART_ReceData ; 0x1014
        0x00000f70:    bd10        ..      POP      {r4,pc}
    $d
        0x00000f72:    0000        ..      DCW    0
        0x00000f74:    40010000    ...@    DCD    1073807360
    $t
    i.SER_PutChar
    SER_PutChar
        0x00000f78:    b510        ..      PUSH     {r4,lr}
        0x00000f7a:    4604        .F      MOV      r4,r0
        0x00000f7c:    b2e1        ..      UXTB     r1,r4
        0x00000f7e:    4802        .H      LDR      r0,[pc,#8] ; [0xf88] = 0x40010000
        0x00000f80:    f002f97a    ..z.    BL       sendchar ; 0x3278
        0x00000f84:    4620         F      MOV      r0,r4
        0x00000f86:    bd10        ..      POP      {r4,pc}
    $d
        0x00000f88:    40010000    ...@    DCD    1073807360
    $t
    i.SYSCTRL_ClrReset_APB_PinCtrl
    SYSCTRL_ClrReset_APB_PinCtrl
        0x00000f8c:    2101        .!      MOVS     r1,#1
        0x00000f8e:    4801        .H      LDR      r0,[pc,#4] ; [0xf94] = 0x40060000
        0x00000f90:    6781        .g      STR      r1,[r0,#0x78]
        0x00000f92:    4770        pG      BX       lr
    $d
        0x00000f94:    40060000    ...@    DCD    1074135040
    $t
    i.SYSCTRL_ClrReset_APB_SCI0
    SYSCTRL_ClrReset_APB_SCI0
        0x00000f98:    2101        .!      MOVS     r1,#1
        0x00000f9a:    0249        I.      LSLS     r1,r1,#9
        0x00000f9c:    4801        .H      LDR      r0,[pc,#4] ; [0xfa4] = 0x40060000
        0x00000f9e:    6781        .g      STR      r1,[r0,#0x78]
        0x00000fa0:    4770        pG      BX       lr
    $d
        0x00000fa2:    0000        ..      DCW    0
        0x00000fa4:    40060000    ...@    DCD    1074135040
    $t
    i.SysTick_Handler
    SysTick_Handler
        0x00000fa8:    4802        .H      LDR      r0,[pc,#8] ; [0xfb4] = 0x2000000c
        0x00000faa:    6800        .h      LDR      r0,[r0,#0]
        0x00000fac:    1c40        @.      ADDS     r0,r0,#1
        0x00000fae:    4901        .I      LDR      r1,[pc,#4] ; [0xfb4] = 0x2000000c
        0x00000fb0:    6008        .`      STR      r0,[r1,#0]
        0x00000fb2:    4770        pG      BX       lr
    $d
        0x00000fb4:    2000000c    ...     DCD    536870924
    $t
    i.TMR_Clr_CNT
    TMR_Clr_CNT
        0x00000fb8:    6881        .h      LDR      r1,[r0,#8]
        0x00000fba:    2202        ."      MOVS     r2,#2
        0x00000fbc:    4311        .C      ORRS     r1,r1,r2
        0x00000fbe:    6081        .`      STR      r1,[r0,#8]
        0x00000fc0:    4770        pG      BX       lr
    i.TMR_Disable
    TMR_Disable
        0x00000fc2:    6881        .h      LDR      r1,[r0,#8]
        0x00000fc4:    0849        I.      LSRS     r1,r1,#1
        0x00000fc6:    0049        I.      LSLS     r1,r1,#1
        0x00000fc8:    6081        .`      STR      r1,[r0,#8]
        0x00000fca:    4770        pG      BX       lr
    i.TMR_Enable
    TMR_Enable
        0x00000fcc:    6881        .h      LDR      r1,[r0,#8]
        0x00000fce:    2201        ."      MOVS     r2,#1
        0x00000fd0:    4311        .C      ORRS     r1,r1,r2
        0x00000fd2:    6081        .`      STR      r1,[r0,#8]
        0x00000fd4:    4770        pG      BX       lr
    i.TMR_Get_CNT
    TMR_Get_CNT
        0x00000fd6:    4601        .F      MOV      r1,r0
        0x00000fd8:    6808        .h      LDR      r0,[r1,#0]
        0x00000fda:    4770        pG      BX       lr
    i.TMR_Int_Clr
    TMR_Int_Clr
        0x00000fdc:    6881        .h      LDR      r1,[r0,#8]
        0x00000fde:    2240        @"      MOVS     r2,#0x40
        0x00000fe0:    4311        .C      ORRS     r1,r1,r2
        0x00000fe2:    6081        .`      STR      r1,[r0,#8]
        0x00000fe4:    4770        pG      BX       lr
    i.TMR_Int_Disable
    TMR_Int_Disable
        0x00000fe6:    6881        .h      LDR      r1,[r0,#8]
        0x00000fe8:    2210        ."      MOVS     r2,#0x10
        0x00000fea:    4391        .C      BICS     r1,r1,r2
        0x00000fec:    6081        .`      STR      r1,[r0,#8]
        0x00000fee:    4770        pG      BX       lr
    i.TMR_Int_Enable
    TMR_Int_Enable
        0x00000ff0:    6881        .h      LDR      r1,[r0,#8]
        0x00000ff2:    2210        ."      MOVS     r2,#0x10
        0x00000ff4:    4311        .C      ORRS     r1,r1,r2
        0x00000ff6:    6081        .`      STR      r1,[r0,#8]
        0x00000ff8:    4770        pG      BX       lr
    i.TMR_Set_CMP
    TMR_Set_CMP
        0x00000ffa:    6041        A`      STR      r1,[r0,#4]
        0x00000ffc:    4770        pG      BX       lr
    i.TMR_Set_Op_Mode
    TMR_Set_Op_Mode
        0x00000ffe:    b510        ..      PUSH     {r4,lr}
        0x00001000:    460a        .F      MOV      r2,r1
        0x00001002:    6881        .h      LDR      r1,[r0,#8]
        0x00001004:    240c        .$      MOVS     r4,#0xc
        0x00001006:    460b        .F      MOV      r3,r1
        0x00001008:    43a3        .C      BICS     r3,r3,r4
        0x0000100a:    4619        .F      MOV      r1,r3
        0x0000100c:    0093        ..      LSLS     r3,r2,#2
        0x0000100e:    4319        .C      ORRS     r1,r1,r3
        0x00001010:    6081        .`      STR      r1,[r0,#8]
        0x00001012:    bd10        ..      POP      {r4,pc}
    i.UART_ReceData
    UART_ReceData
        0x00001014:    4601        .F      MOV      r1,r0
        0x00001016:    6808        .h      LDR      r0,[r1,#0]
        0x00001018:    b2c0        ..      UXTB     r0,r0
        0x0000101a:    4770        pG      BX       lr
    i.UART_SendData
    UART_SendData
        0x0000101c:    6001        .`      STR      r1,[r0,#0]
        0x0000101e:    4770        pG      BX       lr
    i.__0printf$5
    __0printf$5
    __1printf$5
    __2printf
        0x00001020:    b40f        ..      PUSH     {r0-r3}
        0x00001022:    b510        ..      PUSH     {r4,lr}
        0x00001024:    a903        ..      ADD      r1,sp,#0xc
        0x00001026:    4b04        .K      LDR      r3,[pc,#16] ; [0x1038] = 0x2505
        0x00001028:    4a04        .J      LDR      r2,[pc,#16] ; [0x103c] = 0x2000006c
        0x0000102a:    9802        ..      LDR      r0,[sp,#8]
        0x0000102c:    f000f826    ..&.    BL       _printf_core ; 0x107c
        0x00001030:    bc10        ..      POP      {r4}
        0x00001032:    bc08        ..      POP      {r3}
        0x00001034:    b004        ..      ADD      sp,sp,#0x10
        0x00001036:    4718        .G      BX       r3
    $d
        0x00001038:    00002505    .%..    DCD    9477
        0x0000103c:    2000006c    l..     DCD    536871020
    $t
    i.__ARM_common_switch8
    __ARM_common_switch8
        0x00001040:    b430        0.      PUSH     {r4,r5}
        0x00001042:    4674        tF      MOV      r4,lr
        0x00001044:    1e64        d.      SUBS     r4,r4,#1
        0x00001046:    7825        %x      LDRB     r5,[r4,#0]
        0x00001048:    1c64        d.      ADDS     r4,r4,#1
        0x0000104a:    42ab        .B      CMP      r3,r5
        0x0000104c:    d304        ..      BCC      0x1058 ; __ARM_common_switch8 + 24
        0x0000104e:    5d63        c]      LDRB     r3,[r4,r5]
        0x00001050:    005b        [.      LSLS     r3,r3,#1
        0x00001052:    18e3        ..      ADDS     r3,r4,r3
        0x00001054:    bc30        0.      POP      {r4,r5}
        0x00001056:    4718        .G      BX       r3
        0x00001058:    461d        .F      MOV      r5,r3
        0x0000105a:    e7f8        ..      B        0x104e ; __ARM_common_switch8 + 14
    i.__scatterload_copy
    __scatterload_copy
        0x0000105c:    e002        ..      B        0x1064 ; __scatterload_copy + 8
        0x0000105e:    c808        ..      LDM      r0!,{r3}
        0x00001060:    1f12        ..      SUBS     r2,r2,#4
        0x00001062:    c108        ..      STM      r1!,{r3}
        0x00001064:    2a00        .*      CMP      r2,#0
        0x00001066:    d1fa        ..      BNE      0x105e ; __scatterload_copy + 2
        0x00001068:    4770        pG      BX       lr
    i.__scatterload_null
    __scatterload_null
        0x0000106a:    4770        pG      BX       lr
    i.__scatterload_zeroinit
    __scatterload_zeroinit
        0x0000106c:    2000        .       MOVS     r0,#0
        0x0000106e:    e001        ..      B        0x1074 ; __scatterload_zeroinit + 8
        0x00001070:    c101        ..      STM      r1!,{r0}
        0x00001072:    1f12        ..      SUBS     r2,r2,#4
        0x00001074:    2a00        .*      CMP      r2,#0
        0x00001076:    d1fb        ..      BNE      0x1070 ; __scatterload_zeroinit + 4
        0x00001078:    4770        pG      BX       lr
        0x0000107a:    0000        ..      MOVS     r0,r0
    i._printf_core
    _printf_core
        0x0000107c:    b5ff        ..      PUSH     {r0-r7,lr}
        0x0000107e:    b08f        ..      SUB      sp,sp,#0x3c
        0x00001080:    460f        .F      MOV      r7,r1
        0x00001082:    4604        .F      MOV      r4,r0
        0x00001084:    2600        .&      MOVS     r6,#0
        0x00001086:    e006        ..      B        0x1096 ; _printf_core + 26
        0x00001088:    2825        %(      CMP      r0,#0x25
        0x0000108a:    d00a        ..      BEQ      0x10a2 ; _printf_core + 38
        0x0000108c:    9a12        ..      LDR      r2,[sp,#0x48]
        0x0000108e:    9911        ..      LDR      r1,[sp,#0x44]
        0x00001090:    4790        .G      BLX      r2
        0x00001092:    1c64        d.      ADDS     r4,r4,#1
        0x00001094:    1c76        v.      ADDS     r6,r6,#1
        0x00001096:    7820         x      LDRB     r0,[r4,#0]
        0x00001098:    2800        .(      CMP      r0,#0
        0x0000109a:    d1f5        ..      BNE      0x1088 ; _printf_core + 12
        0x0000109c:    4630        0F      MOV      r0,r6
        0x0000109e:    b013        ..      ADD      sp,sp,#0x4c
        0x000010a0:    bdf0        ..      POP      {r4-r7,pc}
        0x000010a2:    2500        .%      MOVS     r5,#0
        0x000010a4:    2101        .!      MOVS     r1,#1
        0x000010a6:    4aa1        .J      LDR      r2,[pc,#644] ; [0x132c] = 0x12809
        0x000010a8:    9500        ..      STR      r5,[sp,#0]
        0x000010aa:    e000        ..      B        0x10ae ; _printf_core + 50
        0x000010ac:    4305        .C      ORRS     r5,r5,r0
        0x000010ae:    1c64        d.      ADDS     r4,r4,#1
        0x000010b0:    7823        #x      LDRB     r3,[r4,#0]
        0x000010b2:    4608        .F      MOV      r0,r1
        0x000010b4:    3b20         ;      SUBS     r3,r3,#0x20
        0x000010b6:    4098        .@      LSLS     r0,r0,r3
        0x000010b8:    4210        .B      TST      r0,r2
        0x000010ba:    d1f7        ..      BNE      0x10ac ; _printf_core + 48
        0x000010bc:    7820         x      LDRB     r0,[r4,#0]
        0x000010be:    282e        .(      CMP      r0,#0x2e
        0x000010c0:    d115        ..      BNE      0x10ee ; _printf_core + 114
        0x000010c2:    2004        .       MOVS     r0,#4
        0x000010c4:    4305        .C      ORRS     r5,r5,r0
        0x000010c6:    7860        `x      LDRB     r0,[r4,#1]
        0x000010c8:    1c64        d.      ADDS     r4,r4,#1
        0x000010ca:    282a        *(      CMP      r0,#0x2a
        0x000010cc:    d10a        ..      BNE      0x10e4 ; _printf_core + 104
        0x000010ce:    cf01        ..      LDM      r7!,{r0}
        0x000010d0:    1c64        d.      ADDS     r4,r4,#1
        0x000010d2:    9000        ..      STR      r0,[sp,#0]
        0x000010d4:    e00b        ..      B        0x10ee ; _printf_core + 114
        0x000010d6:    9900        ..      LDR      r1,[sp,#0]
        0x000010d8:    220a        ."      MOVS     r2,#0xa
        0x000010da:    4351        QC      MULS     r1,r2,r1
        0x000010dc:    3930        09      SUBS     r1,r1,#0x30
        0x000010de:    1840        @.      ADDS     r0,r0,r1
        0x000010e0:    1c64        d.      ADDS     r4,r4,#1
        0x000010e2:    9000        ..      STR      r0,[sp,#0]
        0x000010e4:    7820         x      LDRB     r0,[r4,#0]
        0x000010e6:    4601        .F      MOV      r1,r0
        0x000010e8:    3930        09      SUBS     r1,r1,#0x30
        0x000010ea:    2909        .)      CMP      r1,#9
        0x000010ec:    d9f3        ..      BLS      0x10d6 ; _printf_core + 90
        0x000010ee:    7820         x      LDRB     r0,[r4,#0]
        0x000010f0:    286c        l(      CMP      r0,#0x6c
        0x000010f2:    d00e        ..      BEQ      0x1112 ; _printf_core + 150
        0x000010f4:    dc04        ..      BGT      0x1100 ; _printf_core + 132
        0x000010f6:    284c        L(      CMP      r0,#0x4c
        0x000010f8:    d013        ..      BEQ      0x1122 ; _printf_core + 166
        0x000010fa:    286a        j(      CMP      r0,#0x6a
        0x000010fc:    d112        ..      BNE      0x1124 ; _printf_core + 168
        0x000010fe:    e004        ..      B        0x110a ; _printf_core + 142
        0x00001100:    2874        t(      CMP      r0,#0x74
        0x00001102:    d00e        ..      BEQ      0x1122 ; _printf_core + 166
        0x00001104:    287a        z(      CMP      r0,#0x7a
        0x00001106:    d10d        ..      BNE      0x1124 ; _printf_core + 168
        0x00001108:    e00b        ..      B        0x1122 ; _printf_core + 166
        0x0000110a:    2001        .       MOVS     r0,#1
        0x0000110c:    0540        @.      LSLS     r0,r0,#21
        0x0000110e:    4305        .C      ORRS     r5,r5,r0
        0x00001110:    e007        ..      B        0x1122 ; _printf_core + 166
        0x00001112:    2101        .!      MOVS     r1,#1
        0x00001114:    0509        ..      LSLS     r1,r1,#20
        0x00001116:    7862        bx      LDRB     r2,[r4,#1]
        0x00001118:    430d        .C      ORRS     r5,r5,r1
        0x0000111a:    4282        .B      CMP      r2,r0
        0x0000111c:    d101        ..      BNE      0x1122 ; _printf_core + 166
        0x0000111e:    186d        m.      ADDS     r5,r5,r1
        0x00001120:    1c64        d.      ADDS     r4,r4,#1
        0x00001122:    1c64        d.      ADDS     r4,r4,#1
        0x00001124:    7820         x      LDRB     r0,[r4,#0]
        0x00001126:    4686        .F      MOV      lr,r0
        0x00001128:    2869        i(      CMP      r0,#0x69
        0x0000112a:    d04a        J.      BEQ      0x11c2 ; _printf_core + 326
        0x0000112c:    dc08        ..      BGT      0x1140 ; _printf_core + 196
        0x0000112e:    2800        .(      CMP      r0,#0
        0x00001130:    d0b4        ..      BEQ      0x109c ; _printf_core + 32
        0x00001132:    2858        X(      CMP      r0,#0x58
        0x00001134:    d06d        m.      BEQ      0x1212 ; _printf_core + 406
        0x00001136:    2863        c(      CMP      r0,#0x63
        0x00001138:    d010        ..      BEQ      0x115c ; _printf_core + 224
        0x0000113a:    2864        d(      CMP      r0,#0x64
        0x0000113c:    d108        ..      BNE      0x1150 ; _printf_core + 212
        0x0000113e:    e040        @.      B        0x11c2 ; _printf_core + 326
        0x00001140:    2870        p(      CMP      r0,#0x70
        0x00001142:    d06b        k.      BEQ      0x121c ; _printf_core + 416
        0x00001144:    2873        s(      CMP      r0,#0x73
        0x00001146:    d012        ..      BEQ      0x116e ; _printf_core + 242
        0x00001148:    2875        u(      CMP      r0,#0x75
        0x0000114a:    d060        `.      BEQ      0x120e ; _printf_core + 402
        0x0000114c:    2878        x(      CMP      r0,#0x78
        0x0000114e:    d060        `.      BEQ      0x1212 ; _printf_core + 406
        0x00001150:    9a12        ..      LDR      r2,[sp,#0x48]
        0x00001152:    4670        pF      MOV      r0,lr
        0x00001154:    9911        ..      LDR      r1,[sp,#0x44]
        0x00001156:    4790        .G      BLX      r2
        0x00001158:    1c76        v.      ADDS     r6,r6,#1
        0x0000115a:    e0e5        ..      B        0x1328 ; _printf_core + 684
        0x0000115c:    7838        8x      LDRB     r0,[r7,#0]
        0x0000115e:    4669        iF      MOV      r1,sp
        0x00001160:    7208        .r      STRB     r0,[r1,#8]
        0x00001162:    2000        .       MOVS     r0,#0
        0x00001164:    7248        Hr      STRB     r0,[r1,#9]
        0x00001166:    a802        ..      ADD      r0,sp,#8
        0x00001168:    9001        ..      STR      r0,[sp,#4]
        0x0000116a:    2001        .       MOVS     r0,#1
        0x0000116c:    e003        ..      B        0x1176 ; _printf_core + 250
        0x0000116e:    6838        8h      LDR      r0,[r7,#0]
        0x00001170:    9001        ..      STR      r0,[sp,#4]
        0x00001172:    2000        .       MOVS     r0,#0
        0x00001174:    43c0        .C      MVNS     r0,r0
        0x00001176:    1d3f        ?.      ADDS     r7,r7,#4
        0x00001178:    0769        i.      LSLS     r1,r5,#29
        0x0000117a:    d50c        ..      BPL      0x1196 ; _printf_core + 282
        0x0000117c:    2500        .%      MOVS     r5,#0
        0x0000117e:    e000        ..      B        0x1182 ; _printf_core + 262
        0x00001180:    1c6d        m.      ADDS     r5,r5,#1
        0x00001182:    9900        ..      LDR      r1,[sp,#0]
        0x00001184:    428d        .B      CMP      r5,r1
        0x00001186:    da0f        ..      BGE      0x11a8 ; _printf_core + 300
        0x00001188:    4285        .B      CMP      r5,r0
        0x0000118a:    dbf9        ..      BLT      0x1180 ; _printf_core + 260
        0x0000118c:    9901        ..      LDR      r1,[sp,#4]
        0x0000118e:    5d49        I]      LDRB     r1,[r1,r5]
        0x00001190:    2900        .)      CMP      r1,#0
        0x00001192:    d1f5        ..      BNE      0x1180 ; _printf_core + 260
        0x00001194:    e008        ..      B        0x11a8 ; _printf_core + 300
        0x00001196:    2500        .%      MOVS     r5,#0
        0x00001198:    e000        ..      B        0x119c ; _printf_core + 288
        0x0000119a:    1c6d        m.      ADDS     r5,r5,#1
        0x0000119c:    4285        .B      CMP      r5,r0
        0x0000119e:    dbfc        ..      BLT      0x119a ; _printf_core + 286
        0x000011a0:    9901        ..      LDR      r1,[sp,#4]
        0x000011a2:    5d49        I]      LDRB     r1,[r1,r5]
        0x000011a4:    2900        .)      CMP      r1,#0
        0x000011a6:    d1f8        ..      BNE      0x119a ; _printf_core + 286
        0x000011a8:    1976        v.      ADDS     r6,r6,r5
        0x000011aa:    e007        ..      B        0x11bc ; _printf_core + 320
        0x000011ac:    9801        ..      LDR      r0,[sp,#4]
        0x000011ae:    9901        ..      LDR      r1,[sp,#4]
        0x000011b0:    7800        .x      LDRB     r0,[r0,#0]
        0x000011b2:    1c49        I.      ADDS     r1,r1,#1
        0x000011b4:    9101        ..      STR      r1,[sp,#4]
        0x000011b6:    9a12        ..      LDR      r2,[sp,#0x48]
        0x000011b8:    9911        ..      LDR      r1,[sp,#0x44]
        0x000011ba:    4790        .G      BLX      r2
        0x000011bc:    1e6d        m.      SUBS     r5,r5,#1
        0x000011be:    d2f5        ..      BCS      0x11ac ; _printf_core + 304
        0x000011c0:    e0b2        ..      B        0x1328 ; _printf_core + 684
        0x000011c2:    200a        .       MOVS     r0,#0xa
        0x000011c4:    9002        ..      STR      r0,[sp,#8]
        0x000011c6:    2100        .!      MOVS     r1,#0
        0x000011c8:    0268        h.      LSLS     r0,r5,#9
        0x000011ca:    0f40        @.      LSRS     r0,r0,#29
        0x000011cc:    9103        ..      STR      r1,[sp,#0xc]
        0x000011ce:    2802        .(      CMP      r0,#2
        0x000011d0:    d00c        ..      BEQ      0x11ec ; _printf_core + 368
        0x000011d2:    cf01        ..      LDM      r7!,{r0}
        0x000011d4:    17c1        ..      ASRS     r1,r0,#31
        0x000011d6:    4684        .F      MOV      r12,r0
        0x000011d8:    2900        .)      CMP      r1,#0
        0x000011da:    da0d        ..      BGE      0x11f8 ; _printf_core + 380
        0x000011dc:    4662        bF      MOV      r2,r12
        0x000011de:    4608        .F      MOV      r0,r1
        0x000011e0:    4252        RB      RSBS     r2,r2,#0
        0x000011e2:    2100        .!      MOVS     r1,#0
        0x000011e4:    4181        .A      SBCS     r1,r1,r0
        0x000011e6:    4694        .F      MOV      r12,r2
        0x000011e8:    202d        -       MOVS     r0,#0x2d
        0x000011ea:    e008        ..      B        0x11fe ; _printf_core + 386
        0x000011ec:    1dff        ..      ADDS     r7,r7,#7
        0x000011ee:    08ff        ..      LSRS     r7,r7,#3
        0x000011f0:    00ff        ..      LSLS     r7,r7,#3
        0x000011f2:    cf03        ..      LDM      r7!,{r0,r1}
        0x000011f4:    4684        .F      MOV      r12,r0
        0x000011f6:    e7ef        ..      B        0x11d8 ; _printf_core + 348
        0x000011f8:    0528        (.      LSLS     r0,r5,#20
        0x000011fa:    d504        ..      BPL      0x1206 ; _printf_core + 394
        0x000011fc:    202b        +       MOVS     r0,#0x2b
        0x000011fe:    466a        jF      MOV      r2,sp
        0x00001200:    7410        .t      STRB     r0,[r2,#0x10]
        0x00001202:    2001        .       MOVS     r0,#1
        0x00001204:    e03c        <.      B        0x1280 ; _printf_core + 516
        0x00001206:    07e8        ..      LSLS     r0,r5,#31
        0x00001208:    d03a        :.      BEQ      0x1280 ; _printf_core + 516
        0x0000120a:    2020                MOVS     r0,#0x20
        0x0000120c:    e7f7        ..      B        0x11fe ; _printf_core + 386
        0x0000120e:    200a        .       MOVS     r0,#0xa
        0x00001210:    e000        ..      B        0x1214 ; _printf_core + 408
        0x00001212:    2010        .       MOVS     r0,#0x10
        0x00001214:    2100        .!      MOVS     r1,#0
        0x00001216:    9103        ..      STR      r1,[sp,#0xc]
        0x00001218:    9002        ..      STR      r0,[sp,#8]
        0x0000121a:    e007        ..      B        0x122c ; _printf_core + 432
        0x0000121c:    2010        .       MOVS     r0,#0x10
        0x0000121e:    9002        ..      STR      r0,[sp,#8]
        0x00001220:    2100        .!      MOVS     r1,#0
        0x00001222:    2004        .       MOVS     r0,#4
        0x00001224:    4305        .C      ORRS     r5,r5,r0
        0x00001226:    2008        .       MOVS     r0,#8
        0x00001228:    9103        ..      STR      r1,[sp,#0xc]
        0x0000122a:    9000        ..      STR      r0,[sp,#0]
        0x0000122c:    0268        h.      LSLS     r0,r5,#9
        0x0000122e:    0f40        @.      LSRS     r0,r0,#29
        0x00001230:    2802        .(      CMP      r0,#2
        0x00001232:    d010        ..      BEQ      0x1256 ; _printf_core + 474
        0x00001234:    cf01        ..      LDM      r7!,{r0}
        0x00001236:    2100        .!      MOVS     r1,#0
        0x00001238:    4684        .F      MOV      r12,r0
        0x0000123a:    2000        .       MOVS     r0,#0
        0x0000123c:    900d        ..      STR      r0,[sp,#0x34]
        0x0000123e:    0728        (.      LSLS     r0,r5,#28
        0x00001240:    d51f        ..      BPL      0x1282 ; _printf_core + 518
        0x00001242:    4670        pF      MOV      r0,lr
        0x00001244:    2870        p(      CMP      r0,#0x70
        0x00001246:    d00c        ..      BEQ      0x1262 ; _printf_core + 486
        0x00001248:    9a02        ..      LDR      r2,[sp,#8]
        0x0000124a:    2010        .       MOVS     r0,#0x10
        0x0000124c:    9b03        ..      LDR      r3,[sp,#0xc]
        0x0000124e:    4042        B@      EORS     r2,r2,r0
        0x00001250:    431a        .C      ORRS     r2,r2,r3
        0x00001252:    d00c        ..      BEQ      0x126e ; _printf_core + 498
        0x00001254:    e015        ..      B        0x1282 ; _printf_core + 518
        0x00001256:    1dff        ..      ADDS     r7,r7,#7
        0x00001258:    08ff        ..      LSRS     r7,r7,#3
        0x0000125a:    00ff        ..      LSLS     r7,r7,#3
        0x0000125c:    cf03        ..      LDM      r7!,{r0,r1}
        0x0000125e:    4684        .F      MOV      r12,r0
        0x00001260:    e7eb        ..      B        0x123a ; _printf_core + 446
        0x00001262:    2040        @       MOVS     r0,#0x40
        0x00001264:    466a        jF      MOV      r2,sp
        0x00001266:    7410        .t      STRB     r0,[r2,#0x10]
        0x00001268:    2001        .       MOVS     r0,#1
        0x0000126a:    900d        ..      STR      r0,[sp,#0x34]
        0x0000126c:    e00c        ..      B        0x1288 ; _printf_core + 524
        0x0000126e:    4660        `F      MOV      r0,r12
        0x00001270:    4308        .C      ORRS     r0,r0,r1
        0x00001272:    d006        ..      BEQ      0x1282 ; _printf_core + 518
        0x00001274:    2030        0       MOVS     r0,#0x30
        0x00001276:    466a        jF      MOV      r2,sp
        0x00001278:    7410        .t      STRB     r0,[r2,#0x10]
        0x0000127a:    4670        pF      MOV      r0,lr
        0x0000127c:    7450        Pt      STRB     r0,[r2,#0x11]
        0x0000127e:    2002        .       MOVS     r0,#2
        0x00001280:    900d        ..      STR      r0,[sp,#0x34]
        0x00001282:    4670        pF      MOV      r0,lr
        0x00001284:    2858        X(      CMP      r0,#0x58
        0x00001286:    d004        ..      BEQ      0x1292 ; _printf_core + 534
        0x00001288:    a029        ).      ADR      r0,{pc}+0xa8 ; 0x1330
        0x0000128a:    9001        ..      STR      r0,[sp,#4]
        0x0000128c:    a80d        ..      ADD      r0,sp,#0x34
        0x0000128e:    900e        ..      STR      r0,[sp,#0x38]
        0x00001290:    e00d        ..      B        0x12ae ; _printf_core + 562
        0x00001292:    a02c        ,.      ADR      r0,{pc}+0xb2 ; 0x1344
        0x00001294:    e7f9        ..      B        0x128a ; _printf_core + 526
        0x00001296:    4660        `F      MOV      r0,r12
        0x00001298:    9b03        ..      LDR      r3,[sp,#0xc]
        0x0000129a:    9a02        ..      LDR      r2,[sp,#8]
        0x0000129c:    f7fff82d    ..-.    BL       __aeabi_uldivmod ; 0x2fa
        0x000012a0:    9b01        ..      LDR      r3,[sp,#4]
        0x000012a2:    4684        .F      MOV      r12,r0
        0x000012a4:    5c9b        .\      LDRB     r3,[r3,r2]
        0x000012a6:    9a0e        ..      LDR      r2,[sp,#0x38]
        0x000012a8:    1e52        R.      SUBS     r2,r2,#1
        0x000012aa:    920e        ..      STR      r2,[sp,#0x38]
        0x000012ac:    7013        .p      STRB     r3,[r2,#0]
        0x000012ae:    4660        `F      MOV      r0,r12
        0x000012b0:    4308        .C      ORRS     r0,r0,r1
        0x000012b2:    d1f0        ..      BNE      0x1296 ; _printf_core + 538
        0x000012b4:    980e        ..      LDR      r0,[sp,#0x38]
        0x000012b6:    a905        ..      ADD      r1,sp,#0x14
        0x000012b8:    1a08        ..      SUBS     r0,r1,r0
        0x000012ba:    3020         0      ADDS     r0,r0,#0x20
        0x000012bc:    9001        ..      STR      r0,[sp,#4]
        0x000012be:    0768        h.      LSLS     r0,r5,#29
        0x000012c0:    d501        ..      BPL      0x12c6 ; _printf_core + 586
        0x000012c2:    9800        ..      LDR      r0,[sp,#0]
        0x000012c4:    e001        ..      B        0x12ca ; _printf_core + 590
        0x000012c6:    2001        .       MOVS     r0,#1
        0x000012c8:    9000        ..      STR      r0,[sp,#0]
        0x000012ca:    9901        ..      LDR      r1,[sp,#4]
        0x000012cc:    4288        .B      CMP      r0,r1
        0x000012ce:    dd03        ..      BLE      0x12d8 ; _printf_core + 604
        0x000012d0:    4601        .F      MOV      r1,r0
        0x000012d2:    9801        ..      LDR      r0,[sp,#4]
        0x000012d4:    1a08        ..      SUBS     r0,r1,r0
        0x000012d6:    e000        ..      B        0x12da ; _printf_core + 606
        0x000012d8:    2000        .       MOVS     r0,#0
        0x000012da:    2500        .%      MOVS     r5,#0
        0x000012dc:    9000        ..      STR      r0,[sp,#0]
        0x000012de:    e006        ..      B        0x12ee ; _printf_core + 626
        0x000012e0:    a804        ..      ADD      r0,sp,#0x10
        0x000012e2:    9a12        ..      LDR      r2,[sp,#0x48]
        0x000012e4:    5d40        @]      LDRB     r0,[r0,r5]
        0x000012e6:    9911        ..      LDR      r1,[sp,#0x44]
        0x000012e8:    4790        .G      BLX      r2
        0x000012ea:    1c6d        m.      ADDS     r5,r5,#1
        0x000012ec:    1c76        v.      ADDS     r6,r6,#1
        0x000012ee:    980d        ..      LDR      r0,[sp,#0x34]
        0x000012f0:    4285        .B      CMP      r5,r0
        0x000012f2:    dbf5        ..      BLT      0x12e0 ; _printf_core + 612
        0x000012f4:    e004        ..      B        0x1300 ; _printf_core + 644
        0x000012f6:    9a12        ..      LDR      r2,[sp,#0x48]
        0x000012f8:    2030        0       MOVS     r0,#0x30
        0x000012fa:    9911        ..      LDR      r1,[sp,#0x44]
        0x000012fc:    4790        .G      BLX      r2
        0x000012fe:    1c76        v.      ADDS     r6,r6,#1
        0x00001300:    9900        ..      LDR      r1,[sp,#0]
        0x00001302:    1e48        H.      SUBS     r0,r1,#1
        0x00001304:    9000        ..      STR      r0,[sp,#0]
        0x00001306:    2900        .)      CMP      r1,#0
        0x00001308:    dcf5        ..      BGT      0x12f6 ; _printf_core + 634
        0x0000130a:    e008        ..      B        0x131e ; _printf_core + 674
        0x0000130c:    980e        ..      LDR      r0,[sp,#0x38]
        0x0000130e:    990e        ..      LDR      r1,[sp,#0x38]
        0x00001310:    7800        .x      LDRB     r0,[r0,#0]
        0x00001312:    1c49        I.      ADDS     r1,r1,#1
        0x00001314:    910e        ..      STR      r1,[sp,#0x38]
        0x00001316:    9a12        ..      LDR      r2,[sp,#0x48]
        0x00001318:    9911        ..      LDR      r1,[sp,#0x44]
        0x0000131a:    4790        .G      BLX      r2
        0x0000131c:    1c76        v.      ADDS     r6,r6,#1
        0x0000131e:    9901        ..      LDR      r1,[sp,#4]
        0x00001320:    1e48        H.      SUBS     r0,r1,#1
        0x00001322:    9001        ..      STR      r0,[sp,#4]
        0x00001324:    2900        .)      CMP      r1,#0
        0x00001326:    dcf1        ..      BGT      0x130c ; _printf_core + 656
        0x00001328:    1c64        d.      ADDS     r4,r4,#1
        0x0000132a:    e6b4        ..      B        0x1096 ; _printf_core + 26
    $d
        0x0000132c:    00012809    .(..    DCD    75785
        0x00001330:    33323130    0123    DCD    858927408
        0x00001334:    37363534    4567    DCD    926299444
        0x00001338:    62613938    89ab    DCD    1650538808
        0x0000133c:    66656463    cdef    DCD    1717920867
        0x00001340:    00000000    ....    DCD    0
        0x00001344:    33323130    0123    DCD    858927408
        0x00001348:    37363534    4567    DCD    926299444
        0x0000134c:    42413938    89AB    DCD    1111570744
        0x00001350:    46454443    CDEF    DCD    1178944579
        0x00001354:    00000000    ....    DCD    0
    $t
    i.add_puf_sector
    add_puf_sector
        0x00001358:    b5ff        ..      PUSH     {r0-r7,lr}
        0x0000135a:    b09f        ..      SUB      sp,sp,#0x7c
        0x0000135c:    4605        .F      MOV      r5,r0
        0x0000135e:    9c28        (.      LDR      r4,[sp,#0xa0]
        0x00001360:    2000        .       MOVS     r0,#0
        0x00001362:    9019        ..      STR      r0,[sp,#0x64]
        0x00001364:    69ef        .i      LDR      r7,[r5,#0x1c]
        0x00001366:    971d        ..      STR      r7,[sp,#0x74]
        0x00001368:    69a8        .i      LDR      r0,[r5,#0x18]
        0x0000136a:    0a40        @.      LSRS     r0,r0,#9
        0x0000136c:    901c        ..      STR      r0,[sp,#0x70]
        0x0000136e:    9922        ".      LDR      r1,[sp,#0x88]
        0x00001370:    981c        ..      LDR      r0,[sp,#0x70]
        0x00001372:    f7fefeb1    ....    BL       __aeabi_uidiv ; 0xd8
        0x00001376:    911c        ..      STR      r1,[sp,#0x70]
        0x00001378:    9a1e        ..      LDR      r2,[sp,#0x78]
        0x0000137a:    9821        !.      LDR      r0,[sp,#0x84]
        0x0000137c:    1881        ..      ADDS     r1,r0,r2
        0x0000137e:    a080        ..      ADR      r0,{pc}+0x202 ; 0x1580
        0x00001380:    f7fffe4e    ..N.    BL       __0printf$5 ; 0x1020
        0x00001384:    a085        ..      ADR      r0,{pc}+0x218 ; 0x159c
        0x00001386:    6929        )i      LDR      r1,[r5,#0x10]
        0x00001388:    f7fffe4a    ..J.    BL       __0printf$5 ; 0x1020
        0x0000138c:    8aa9        ..      LDRH     r1,[r5,#0x14]
        0x0000138e:    a08a        ..      ADR      r0,{pc}+0x22a ; 0x15b8
        0x00001390:    f7fffe46    ..F.    BL       __0printf$5 ; 0x1020
        0x00001394:    a08f        ..      ADR      r0,{pc}+0x240 ; 0x15d4
        0x00001396:    69e9        .i      LDR      r1,[r5,#0x1c]
        0x00001398:    f7fffe42    ..B.    BL       __0printf$5 ; 0x1020
        0x0000139c:    a096        ..      ADR      r0,{pc}+0x25c ; 0x15f8
        0x0000139e:    991c        ..      LDR      r1,[sp,#0x70]
        0x000013a0:    f7fffe3e    ..>.    BL       __0printf$5 ; 0x1020
        0x000013a4:    a099        ..      ADR      r0,{pc}+0x268 ; 0x160c
        0x000013a6:    9922        ".      LDR      r1,[sp,#0x88]
        0x000013a8:    f7fffe3a    ..:.    BL       __0printf$5 ; 0x1020
        0x000013ac:    9f1d        ..      LDR      r7,[sp,#0x74]
        0x000013ae:    09f8        ..      LSRS     r0,r7,#7
        0x000013b0:    901e        ..      STR      r0,[sp,#0x78]
        0x000013b2:    9a1e        ..      LDR      r2,[sp,#0x78]
        0x000013b4:    9821        !.      LDR      r0,[sp,#0x84]
        0x000013b6:    1881        ..      ADDS     r1,r0,r2
        0x000013b8:    4622        "F      MOV      r2,r4
        0x000013ba:    2001        .       MOVS     r0,#1
        0x000013bc:    0240        @.      LSLS     r0,r0,#9
        0x000013be:    f7fffccd    ....    BL       SD_spi_read_single_blk ; 0xd5c
        0x000013c2:    bf00        ..      NOP      
        0x000013c4:    971d        ..      STR      r7,[sp,#0x74]
        0x000013c6:    9f1d        ..      LDR      r7,[sp,#0x74]
        0x000013c8:    00b9        ..      LSLS     r1,r7,#2
        0x000013ca:    981e        ..      LDR      r0,[sp,#0x78]
        0x000013cc:    0240        @.      LSLS     r0,r0,#9
        0x000013ce:    1a08        ..      SUBS     r0,r1,r0
        0x000013d0:    b280        ..      UXTH     r0,r0
        0x000013d2:    901a        ..      STR      r0,[sp,#0x68]
        0x000013d4:    981a        ..      LDR      r0,[sp,#0x68]
        0x000013d6:    1cc0        ..      ADDS     r0,r0,#3
        0x000013d8:    5c20         \      LDRB     r0,[r4,r0]
        0x000013da:    0601        ..      LSLS     r1,r0,#24
        0x000013dc:    981a        ..      LDR      r0,[sp,#0x68]
        0x000013de:    1c80        ..      ADDS     r0,r0,#2
        0x000013e0:    5c20         \      LDRB     r0,[r4,r0]
        0x000013e2:    0400        ..      LSLS     r0,r0,#16
        0x000013e4:    4301        .C      ORRS     r1,r1,r0
        0x000013e6:    981a        ..      LDR      r0,[sp,#0x68]
        0x000013e8:    1c40        @.      ADDS     r0,r0,#1
        0x000013ea:    5c20         \      LDRB     r0,[r4,r0]
        0x000013ec:    0200        ..      LSLS     r0,r0,#8
        0x000013ee:    4301        .C      ORRS     r1,r1,r0
        0x000013f0:    981a        ..      LDR      r0,[sp,#0x68]
        0x000013f2:    5c20         \      LDRB     r0,[r4,r0]
        0x000013f4:    4301        .C      ORRS     r1,r1,r0
        0x000013f6:    460f        .F      MOV      r7,r1
        0x000013f8:    21ff        .!      MOVS     r1,#0xff
        0x000013fa:    31fd        .1      ADDS     r1,r1,#0xfd
        0x000013fc:    981a        ..      LDR      r0,[sp,#0x68]
        0x000013fe:    4288        .B      CMP      r0,r1
        0x00001400:    d10d        ..      BNE      0x141e ; add_puf_sector + 198
        0x00001402:    4889        .H      LDR      r0,[pc,#548] ; [0x1628] = 0xfffffff
        0x00001404:    4287        .B      CMP      r7,r0
        0x00001406:    d00a        ..      BEQ      0x141e ; add_puf_sector + 198
        0x00001408:    981e        ..      LDR      r0,[sp,#0x78]
        0x0000140a:    1c40        @.      ADDS     r0,r0,#1
        0x0000140c:    901e        ..      STR      r0,[sp,#0x78]
        0x0000140e:    9a1e        ..      LDR      r2,[sp,#0x78]
        0x00001410:    9821        !.      LDR      r0,[sp,#0x84]
        0x00001412:    1881        ..      ADDS     r1,r0,r2
        0x00001414:    4622        "F      MOV      r2,r4
        0x00001416:    2001        .       MOVS     r0,#1
        0x00001418:    0240        @.      LSLS     r0,r0,#9
        0x0000141a:    f7fffc9f    ....    BL       SD_spi_read_single_blk ; 0xd5c
        0x0000141e:    4882        .H      LDR      r0,[pc,#520] ; [0x1628] = 0xfffffff
        0x00001420:    4287        .B      CMP      r7,r0
        0x00001422:    d1cf        ..      BNE      0x13c4 ; add_puf_sector + 108
        0x00001424:    9922        ".      LDR      r1,[sp,#0x88]
        0x00001426:    981c        ..      LDR      r0,[sp,#0x70]
        0x00001428:    4288        .B      CMP      r0,r1
        0x0000142a:    d27d        }.      BCS      0x1528 ; add_puf_sector + 464
        0x0000142c:    981d        ..      LDR      r0,[sp,#0x74]
        0x0000142e:    1e80        ..      SUBS     r0,r0,#2
        0x00001430:    9922        ".      LDR      r1,[sp,#0x88]
        0x00001432:    4348        HC      MULS     r0,r1,r0
        0x00001434:    9920         .      LDR      r1,[sp,#0x80]
        0x00001436:    1840        @.      ADDS     r0,r0,r1
        0x00001438:    901b        ..      STR      r0,[sp,#0x6c]
        0x0000143a:    991c        ..      LDR      r1,[sp,#0x70]
        0x0000143c:    981b        ..      LDR      r0,[sp,#0x6c]
        0x0000143e:    1840        @.      ADDS     r0,r0,r1
        0x00001440:    901b        ..      STR      r0,[sp,#0x6c]
        0x00001442:    2101        .!      MOVS     r1,#1
        0x00001444:    0249        I.      LSLS     r1,r1,#9
        0x00001446:    4620         F      MOV      r0,r4
        0x00001448:    f000faf7    ....    BL       clear_buf8 ; 0x1a3a
        0x0000144c:    a801        ..      ADD      r0,sp,#4
        0x0000144e:    f7fffa8d    ....    BL       Read_puf_key ; 0x96c
        0x00001452:    2600        .&      MOVS     r6,#0
        0x00001454:    e012        ..      B        0x147c ; add_puf_sector + 292
        0x00001456:    07f0        ..      LSLS     r0,r6,#31
        0x00001458:    0fc0        ..      LSRS     r0,r0,#31
        0x0000145a:    2800        .(      CMP      r0,#0
        0x0000145c:    d006        ..      BEQ      0x146c ; add_puf_sector + 276
        0x0000145e:    00b0        ..      LSLS     r0,r6,#2
        0x00001460:    a901        ..      ADD      r1,sp,#4
        0x00001462:    5c08        .\      LDRB     r0,[r1,r0]
        0x00001464:    00b1        ..      LSLS     r1,r6,#2
        0x00001466:    aa01        ..      ADD      r2,sp,#4
        0x00001468:    5050        PP      STR      r0,[r2,r1]
        0x0000146a:    e006        ..      B        0x147a ; add_puf_sector + 290
        0x0000146c:    00b0        ..      LSLS     r0,r6,#2
        0x0000146e:    a901        ..      ADD      r1,sp,#4
        0x00001470:    5808        .X      LDR      r0,[r1,r0]
        0x00001472:    0e00        ..      LSRS     r0,r0,#24
        0x00001474:    00b1        ..      LSLS     r1,r6,#2
        0x00001476:    aa01        ..      ADD      r2,sp,#4
        0x00001478:    5050        PP      STR      r0,[r2,r1]
        0x0000147a:    1c76        v.      ADDS     r6,r6,#1
        0x0000147c:    2e18        ..      CMP      r6,#0x18
        0x0000147e:    d3ea        ..      BCC      0x1456 ; add_puf_sector + 254
        0x00001480:    8b28        (.      LDRH     r0,[r5,#0x18]
        0x00001482:    05c0        ..      LSLS     r0,r0,#23
        0x00001484:    0dc0        ..      LSRS     r0,r0,#23
        0x00001486:    2101        .!      MOVS     r1,#1
        0x00001488:    0249        I.      LSLS     r1,r1,#9
        0x0000148a:    1a08        ..      SUBS     r0,r1,r0
        0x0000148c:    9019        ..      STR      r0,[sp,#0x64]
        0x0000148e:    2050        P       MOVS     r0,#0x50
        0x00001490:    7020         p      STRB     r0,[r4,#0]
        0x00001492:    2055        U       MOVS     r0,#0x55
        0x00001494:    7060        `p      STRB     r0,[r4,#1]
        0x00001496:    2046        F       MOVS     r0,#0x46
        0x00001498:    70a0        .p      STRB     r0,[r4,#2]
        0x0000149a:    9819        ..      LDR      r0,[sp,#0x64]
        0x0000149c:    70e0        .p      STRB     r0,[r4,#3]
        0x0000149e:    9819        ..      LDR      r0,[sp,#0x64]
        0x000014a0:    1200        ..      ASRS     r0,r0,#8
        0x000014a2:    7120         q      STRB     r0,[r4,#4]
        0x000014a4:    214b        K!      MOVS     r1,#0x4b
        0x000014a6:    2040        @       MOVS     r0,#0x40
        0x000014a8:    5501        .U      STRB     r1,[r0,r4]
        0x000014aa:    2145        E!      MOVS     r1,#0x45
        0x000014ac:    2041        A       MOVS     r0,#0x41
        0x000014ae:    5501        .U      STRB     r1,[r0,r4]
        0x000014b0:    2159        Y!      MOVS     r1,#0x59
        0x000014b2:    2042        B       MOVS     r0,#0x42
        0x000014b4:    5501        .U      STRB     r1,[r0,r4]
        0x000014b6:    7a69        iz      LDRB     r1,[r5,#9]
        0x000014b8:    2080        .       MOVS     r0,#0x80
        0x000014ba:    5501        .U      STRB     r1,[r0,r4]
        0x000014bc:    7aa9        .z      LDRB     r1,[r5,#0xa]
        0x000014be:    2081        .       MOVS     r0,#0x81
        0x000014c0:    5501        .U      STRB     r1,[r0,r4]
        0x000014c2:    7ae9        .z      LDRB     r1,[r5,#0xb]
        0x000014c4:    2082        .       MOVS     r0,#0x82
        0x000014c6:    5501        .U      STRB     r1,[r0,r4]
        0x000014c8:    2600        .&      MOVS     r6,#0
        0x000014ca:    e006        ..      B        0x14da ; add_puf_sector + 386
        0x000014cc:    00b0        ..      LSLS     r0,r6,#2
        0x000014ce:    a901        ..      ADD      r1,sp,#4
        0x000014d0:    5c09        .\      LDRB     r1,[r1,r0]
        0x000014d2:    4630        0F      MOV      r0,r6
        0x000014d4:    30c0        .0      ADDS     r0,r0,#0xc0
        0x000014d6:    5421        !T      STRB     r1,[r4,r0]
        0x000014d8:    1c76        v.      ADDS     r6,r6,#1
        0x000014da:    2e18        ..      CMP      r6,#0x18
        0x000014dc:    d3f6        ..      BCC      0x14cc ; add_puf_sector + 372
        0x000014de:    21ff        .!      MOVS     r1,#0xff
        0x000014e0:    20ff        .       MOVS     r0,#0xff
        0x000014e2:    30fd        .0      ADDS     r0,r0,#0xfd
        0x000014e4:    5501        .U      STRB     r1,[r0,r4]
        0x000014e6:    215a        Z!      MOVS     r1,#0x5a
        0x000014e8:    1c40        @.      ADDS     r0,r0,#1
        0x000014ea:    5501        .U      STRB     r1,[r0,r4]
        0x000014ec:    21f5        .!      MOVS     r1,#0xf5
        0x000014ee:    1c40        @.      ADDS     r0,r0,#1
        0x000014f0:    5501        .U      STRB     r1,[r0,r4]
        0x000014f2:    21aa        .!      MOVS     r1,#0xaa
        0x000014f4:    1c40        @.      ADDS     r0,r0,#1
        0x000014f6:    5501        .U      STRB     r1,[r0,r4]
        0x000014f8:    981b        ..      LDR      r0,[sp,#0x6c]
        0x000014fa:    1c40        @.      ADDS     r0,r0,#1
        0x000014fc:    4601        .F      MOV      r1,r0
        0x000014fe:    4622        "F      MOV      r2,r4
        0x00001500:    901b        ..      STR      r0,[sp,#0x6c]
        0x00001502:    2001        .       MOVS     r0,#1
        0x00001504:    0240        @.      LSLS     r0,r0,#9
        0x00001506:    f7fffcbf    ....    BL       SD_spi_write_single_blk ; 0xe88
        0x0000150a:    4622        "F      MOV      r2,r4
        0x0000150c:    2001        .       MOVS     r0,#1
        0x0000150e:    0240        @.      LSLS     r0,r0,#9
        0x00001510:    6929        )i      LDR      r1,[r5,#0x10]
        0x00001512:    f7fffc23    ..#.    BL       SD_spi_read_single_blk ; 0xd5c
        0x00001516:    2050        P       MOVS     r0,#0x50
        0x00001518:    8aa9        ..      LDRH     r1,[r5,#0x14]
        0x0000151a:    5460        `T      STRB     r0,[r4,r1]
        0x0000151c:    2155        U!      MOVS     r1,#0x55
        0x0000151e:    8aa8        ..      LDRH     r0,[r5,#0x14]
        0x00001520:    1c40        @.      ADDS     r0,r0,#1
        0x00001522:    5421        !T      STRB     r1,[r4,r0]
        0x00001524:    2146        F!      MOVS     r1,#0x46
        0x00001526:    e000        ..      B        0x152a ; add_puf_sector + 466
        0x00001528:    e025        %.      B        0x1576 ; add_puf_sector + 542
        0x0000152a:    8aa8        ..      LDRH     r0,[r5,#0x14]
        0x0000152c:    1c80        ..      ADDS     r0,r0,#2
        0x0000152e:    5421        !T      STRB     r1,[r4,r0]
        0x00001530:    69a9        .i      LDR      r1,[r5,#0x18]
        0x00001532:    9819        ..      LDR      r0,[sp,#0x64]
        0x00001534:    30ff        .0      ADDS     r0,r0,#0xff
        0x00001536:    30ff        .0      ADDS     r0,r0,#0xff
        0x00001538:    3002        .0      ADDS     r0,#2
        0x0000153a:    1808        ..      ADDS     r0,r1,r0
        0x0000153c:    61a8        .a      STR      r0,[r5,#0x18]
        0x0000153e:    7e29        )~      LDRB     r1,[r5,#0x18]
        0x00001540:    8aa8        ..      LDRH     r0,[r5,#0x14]
        0x00001542:    3014        .0      ADDS     r0,r0,#0x14
        0x00001544:    5421        !T      STRB     r1,[r4,r0]
        0x00001546:    8b28        (.      LDRH     r0,[r5,#0x18]
        0x00001548:    0400        ..      LSLS     r0,r0,#16
        0x0000154a:    0e01        ..      LSRS     r1,r0,#24
        0x0000154c:    8aa8        ..      LDRH     r0,[r5,#0x14]
        0x0000154e:    3015        .0      ADDS     r0,r0,#0x15
        0x00001550:    5421        !T      STRB     r1,[r4,r0]
        0x00001552:    69a8        .i      LDR      r0,[r5,#0x18]
        0x00001554:    0200        ..      LSLS     r0,r0,#8
        0x00001556:    0e01        ..      LSRS     r1,r0,#24
        0x00001558:    8aa8        ..      LDRH     r0,[r5,#0x14]
        0x0000155a:    3016        .0      ADDS     r0,r0,#0x16
        0x0000155c:    5421        !T      STRB     r1,[r4,r0]
        0x0000155e:    69a8        .i      LDR      r0,[r5,#0x18]
        0x00001560:    0e01        ..      LSRS     r1,r0,#24
        0x00001562:    8aa8        ..      LDRH     r0,[r5,#0x14]
        0x00001564:    3017        .0      ADDS     r0,r0,#0x17
        0x00001566:    5421        !T      STRB     r1,[r4,r0]
        0x00001568:    4622        "F      MOV      r2,r4
        0x0000156a:    2001        .       MOVS     r0,#1
        0x0000156c:    0240        @.      LSLS     r0,r0,#9
        0x0000156e:    6929        )i      LDR      r1,[r5,#0x10]
        0x00001570:    f7fffc8a    ....    BL       SD_spi_write_single_blk ; 0xe88
        0x00001574:    e002        ..      B        0x157c ; add_puf_sector + 548
        0x00001576:    a02d        -.      ADR      r0,{pc}+0xb6 ; 0x162c
        0x00001578:    f7fffd52    ..R.    BL       __0printf$5 ; 0x1020
        0x0000157c:    b023        #.      ADD      sp,sp,#0x8c
        0x0000157e:    bdf0        ..      POP      {r4-r7,pc}
    $d
        0x00001580:    7269460a    .Fir    DCD    1919501834
        0x00001584:    43207473    st C    DCD    1126200435
        0x00001588:    7473756c    lust    DCD    1953723756
        0x0000158c:    53207265    er S    DCD    1394635365
        0x00001590:    6f746365    ecto    DCD    1869898597
        0x00001594:    25203a72    r: %    DCD    622869106
        0x00001598:    00000a78    x...    DCD    2680
        0x0000159c:    656c6946    File    DCD    1701603654
        0x000015a0:    6d614e20     Nam    DCD    1835093536
        0x000015a4:    65535f65    e_Se    DCD    1699962725
        0x000015a8:    726f7463    ctor    DCD    1919906915
        0x000015ac:    25203a20     : %    DCD    622869024
        0x000015b0:    0a78382e    .8x.    DCD    175650862
        0x000015b4:    00000000    ....    DCD    0
        0x000015b8:    656c6946    File    DCD    1701603654
        0x000015bc:    74784520     Ext    DCD    1954039072
        0x000015c0:    695f6e65    en_i    DCD    1767861861
        0x000015c4:    7865646e    ndex    DCD    2019910766
        0x000015c8:    25203a20     : %    DCD    622869024
        0x000015cc:    0a78382e    .8x.    DCD    175650862
        0x000015d0:    00000000    ....    DCD    0
        0x000015d4:    656c6946    File    DCD    1701603654
        0x000015d8:    72694620     Fir    DCD    1919501856
        0x000015dc:    435f7473    st_C    DCD    1130329203
        0x000015e0:    7473756c    lust    DCD    1953723756
        0x000015e4:    6e5f7265    er_n    DCD    1851748965
        0x000015e8:    65626d75    umbe    DCD    1700949365
        0x000015ec:    203a2072    r :     DCD    540680306
        0x000015f0:    78382e25    %.8x    DCD    2016947749
        0x000015f4:    0000000a    ....    DCD    10
        0x000015f8:    20646e45    End     DCD    543452741
        0x000015fc:    74636553    Sect    DCD    1952671059
        0x00001600:    3a20726f    or :    DCD    975204975
        0x00001604:    0a642520     %d.    DCD    174335264
        0x00001608:    00000000    ....    DCD    0
        0x0000160c:    74636573    sect    DCD    1952671091
        0x00001610:    5f73726f    ors_    DCD    1601401455
        0x00001614:    5f726570    per_    DCD    1601332592
        0x00001618:    73756c63    clus    DCD    1937075299
        0x0000161c:    20726574    ter     DCD    544367988
        0x00001620:    6425203a    : %d    DCD    1680154682
        0x00001624:    0000000a    ....    DCD    10
        0x00001628:    0fffffff    ....    DCD    268435455
        0x0000162c:    5f646e65    end_    DCD    1600417381
        0x00001630:    74636573    sect    DCD    1952671091
        0x00001634:    3e20726f    or >    DCD    1042313839
        0x00001638:    6573203d    = se    DCD    1702043709
        0x0000163c:    726f7463    ctor    DCD    1919906915
        0x00001640:    65705f73    s_pe    DCD    1701863283
        0x00001644:    6c635f72    r_cl    DCD    1818451826
        0x00001648:    65747375    uste    DCD    1702130549
        0x0000164c:    00000a72    r...    DCD    2674
    $t
    i.apDes_Config
    apDes_Config
        0x00001650:    b570        p.      PUSH     {r4-r6,lr}
        0x00001652:    4604        .F      MOV      r4,r0
        0x00001654:    2500        .%      MOVS     r5,#0
        0x00001656:    7820         x      LDRB     r0,[r4,#0]
        0x00001658:    0180        ..      LSLS     r0,r0,#6
        0x0000165a:    78a1        .x      LDRB     r1,[r4,#2]
        0x0000165c:    4308        .C      ORRS     r0,r0,r1
        0x0000165e:    7861        ax      LDRB     r1,[r4,#1]
        0x00001660:    0109        ..      LSLS     r1,r1,#4
        0x00001662:    4308        .C      ORRS     r0,r0,r1
        0x00001664:    4605        .F      MOV      r5,r0
        0x00001666:    4629        )F      MOV      r1,r5
        0x00001668:    2010        .       MOVS     r0,#0x10
        0x0000166a:    f000fca9    ....    BL       des_write_reg ; 0x1fc0
        0x0000166e:    7860        `x      LDRB     r0,[r4,#1]
        0x00001670:    2801        .(      CMP      r0,#1
        0x00001672:    d105        ..      BNE      0x1680 ; apDes_Config + 48
        0x00001674:    2101        .!      MOVS     r1,#1
        0x00001676:    20ff        .       MOVS     r0,#0xff
        0x00001678:    3041        A0      ADDS     r0,r0,#0x41
        0x0000167a:    f000fc97    ....    BL       des_set_bits ; 0x1fac
        0x0000167e:    e01a        ..      B        0x16b6 ; apDes_Config + 102
        0x00001680:    2070        p       MOVS     r0,#0x70
        0x00001682:    68a1        .h      LDR      r1,[r4,#8]
        0x00001684:    f000fc9c    ....    BL       des_write_reg ; 0x1fc0
        0x00001688:    2080        .       MOVS     r0,#0x80
        0x0000168a:    68e1        .h      LDR      r1,[r4,#0xc]
        0x0000168c:    f000fc98    ....    BL       des_write_reg ; 0x1fc0
        0x00001690:    7820         x      LDRB     r0,[r4,#0]
        0x00001692:    2801        .(      CMP      r0,#1
        0x00001694:    d10f        ..      BNE      0x16b6 ; apDes_Config + 102
        0x00001696:    2090        .       MOVS     r0,#0x90
        0x00001698:    6921        !i      LDR      r1,[r4,#0x10]
        0x0000169a:    f000fc91    ....    BL       des_write_reg ; 0x1fc0
        0x0000169e:    20a0        .       MOVS     r0,#0xa0
        0x000016a0:    6961        ai      LDR      r1,[r4,#0x14]
        0x000016a2:    f000fc8d    ....    BL       des_write_reg ; 0x1fc0
        0x000016a6:    20b0        .       MOVS     r0,#0xb0
        0x000016a8:    69a1        .i      LDR      r1,[r4,#0x18]
        0x000016aa:    f000fc89    ....    BL       des_write_reg ; 0x1fc0
        0x000016ae:    20c0        .       MOVS     r0,#0xc0
        0x000016b0:    69e1        .i      LDR      r1,[r4,#0x1c]
        0x000016b2:    f000fc85    ....    BL       des_write_reg ; 0x1fc0
        0x000016b6:    f000f801    ....    BL       apDes_Enable ; 0x16bc
        0x000016ba:    bd70        p.      POP      {r4-r6,pc}
    i.apDes_Enable
    apDes_Enable
        0x000016bc:    b510        ..      PUSH     {r4,lr}
        0x000016be:    2101        .!      MOVS     r1,#1
        0x000016c0:    2000        .       MOVS     r0,#0
        0x000016c2:    f000fc73    ..s.    BL       des_set_bits ; 0x1fac
        0x000016c6:    bd10        ..      POP      {r4,pc}
    i.apDes_Encrypt_Decrypt_Data
    apDes_Encrypt_Decrypt_Data
        0x000016c8:    b5f7        ..      PUSH     {r0-r2,r4-r7,lr}
        0x000016ca:    4605        .F      MOV      r5,r0
        0x000016cc:    460e        .F      MOV      r6,r1
        0x000016ce:    2700        .'      MOVS     r7,#0
        0x000016d0:    43ff        .C      MVNS     r7,r7
        0x000016d2:    2400        .$      MOVS     r4,#0
        0x000016d4:    bf00        ..      NOP      
        0x000016d6:    e01a        ..      B        0x170e ; apDes_Encrypt_Decrypt_Data + 70
        0x000016d8:    00e1        ..      LSLS     r1,r4,#3
        0x000016da:    1948        H.      ADDS     r0,r1,r5
        0x000016dc:    f000f870    ..p.    BL       apDes_Write_Data ; 0x17c0
        0x000016e0:    4607        .F      MOV      r7,r0
        0x000016e2:    2f00        ./      CMP      r7,#0
        0x000016e4:    da05        ..      BGE      0x16f2 ; apDes_Encrypt_Decrypt_Data + 42
        0x000016e6:    a00c        ..      ADR      r0,{pc}+0x32 ; 0x1718
        0x000016e8:    f7fffc9a    ....    BL       __0printf$5 ; 0x1020
        0x000016ec:    2000        .       MOVS     r0,#0
        0x000016ee:    43c0        .C      MVNS     r0,r0
        0x000016f0:    bdfe        ..      POP      {r1-r7,pc}
        0x000016f2:    00e1        ..      LSLS     r1,r4,#3
        0x000016f4:    1988        ..      ADDS     r0,r1,r6
        0x000016f6:    f000f82b    ..+.    BL       apDes_Read_Data ; 0x1750
        0x000016fa:    4607        .F      MOV      r7,r0
        0x000016fc:    2f00        ./      CMP      r7,#0
        0x000016fe:    da05        ..      BGE      0x170c ; apDes_Encrypt_Decrypt_Data + 68
        0x00001700:    a00c        ..      ADR      r0,{pc}+0x34 ; 0x1734
        0x00001702:    f7fffc8d    ....    BL       __0printf$5 ; 0x1020
        0x00001706:    2000        .       MOVS     r0,#0
        0x00001708:    43c0        .C      MVNS     r0,r0
        0x0000170a:    e7f1        ..      B        0x16f0 ; apDes_Encrypt_Decrypt_Data + 40
        0x0000170c:    1c64        d.      ADDS     r4,r4,#1
        0x0000170e:    9802        ..      LDR      r0,[sp,#8]
        0x00001710:    4284        .B      CMP      r4,r0
        0x00001712:    d3e1        ..      BCC      0x16d8 ; apDes_Encrypt_Decrypt_Data + 16
        0x00001714:    2000        .       MOVS     r0,#0
        0x00001716:    e7eb        ..      B        0x16f0 ; apDes_Encrypt_Decrypt_Data + 40
    $d
        0x00001718:    65447061    apDe    DCD    1698984033
        0x0000171c:    72575f73    s_Wr    DCD    1918328691
        0x00001720:    5f657469    ite_    DCD    1600484457
        0x00001724:    61746144    Data    DCD    1635017028
        0x00001728:    6d695420     Tim    DCD    1835619360
        0x0000172c:    754f2065    e Ou    DCD    1968119909
        0x00001730:    000a2074    t ..    DCD    663668
        0x00001734:    65447061    apDe    DCD    1698984033
        0x00001738:    65525f73    s_Re    DCD    1699897203
        0x0000173c:    445f6461    ad_D    DCD    1147102305
        0x00001740:    20617461    ata     DCD    543257697
        0x00001744:    656d6954    Time    DCD    1701669204
        0x00001748:    74754f20     Out    DCD    1953845024
        0x0000174c:    00000a20     ...    DCD    2592
    $t
    i.apDes_Read_Data
    apDes_Read_Data
        0x00001750:    b5d1        ..      PUSH     {r0,r4,r6,r7,lr}
        0x00001752:    b081        ..      SUB      sp,sp,#4
        0x00001754:    2000        .       MOVS     r0,#0
        0x00001756:    43c0        .C      MVNS     r0,r0
        0x00001758:    9000        ..      STR      r0,[sp,#0]
        0x0000175a:    bf00        ..      NOP      
        0x0000175c:    bf00        ..      NOP      
        0x0000175e:    f000fc0a    ....    BL       des_check_output_ready ; 0x1f76
        0x00001762:    9000        ..      STR      r0,[sp,#0]
        0x00001764:    9800        ..      LDR      r0,[sp,#0]
        0x00001766:    2800        .(      CMP      r0,#0
        0x00001768:    da06        ..      BGE      0x1778 ; apDes_Read_Data + 40
        0x0000176a:    2171        q!      MOVS     r1,#0x71
        0x0000176c:    a00a        ..      ADR      r0,{pc}+0x2c ; 0x1798
        0x0000176e:    f7fffc57    ..W.    BL       __0printf$5 ; 0x1020
        0x00001772:    2000        .       MOVS     r0,#0
        0x00001774:    43c0        .C      MVNS     r0,r0
        0x00001776:    bddc        ..      POP      {r2-r4,r6,r7,pc}
        0x00001778:    2050        P       MOVS     r0,#0x50
        0x0000177a:    f000fc0f    ....    BL       des_read_reg ; 0x1f9c
        0x0000177e:    4606        .F      MOV      r6,r0
        0x00001780:    2700        .'      MOVS     r7,#0
        0x00001782:    2060        `       MOVS     r0,#0x60
        0x00001784:    f000fc0a    ....    BL       des_read_reg ; 0x1f9c
        0x00001788:    4604        .F      MOV      r4,r0
        0x0000178a:    4620         F      MOV      r0,r4
        0x0000178c:    4338        8C      ORRS     r0,r0,r7
        0x0000178e:    9a01        ..      LDR      r2,[sp,#4]
        0x00001790:    6016        .`      STR      r6,[r2,#0]
        0x00001792:    6050        P`      STR      r0,[r2,#4]
        0x00001794:    2000        .       MOVS     r0,#0
        0x00001796:    e7ee        ..      B        0x1776 ; apDes_Read_Data + 38
    $d
        0x00001798:    5d64255b    [%d]    DCD    1566844251
        0x0000179c:    73656420     des    DCD    1936024608
        0x000017a0:    6568635f    _che    DCD    1701339999
        0x000017a4:    6f5f6b63    ck_o    DCD    1868524387
        0x000017a8:    75707475    utpu    DCD    1970304117
        0x000017ac:    65725f74    t_re    DCD    1701994356
        0x000017b0:    20796461    ady     DCD    544826465
        0x000017b4:    656d6974    time    DCD    1701669236
        0x000017b8:    74756f20     out    DCD    1953853216
        0x000017bc:    00000a20     ...    DCD    2592
    $t
    i.apDes_Write_Data
    apDes_Write_Data
        0x000017c0:    b570        p.      PUSH     {r4-r6,lr}
        0x000017c2:    4604        .F      MOV      r4,r0
        0x000017c4:    2500        .%      MOVS     r5,#0
        0x000017c6:    43ed        .C      MVNS     r5,r5
        0x000017c8:    f000fbc2    ....    BL       des_check_input_ready ; 0x1f50
        0x000017cc:    4605        .F      MOV      r5,r0
        0x000017ce:    2d00        .-      CMP      r5,#0
        0x000017d0:    da06        ..      BGE      0x17e0 ; apDes_Write_Data + 32
        0x000017d2:    2159        Y!      MOVS     r1,#0x59
        0x000017d4:    a007        ..      ADR      r0,{pc}+0x20 ; 0x17f4
        0x000017d6:    f7fffc23    ..#.    BL       __0printf$5 ; 0x1020
        0x000017da:    2000        .       MOVS     r0,#0
        0x000017dc:    43c0        .C      MVNS     r0,r0
        0x000017de:    bd70        p.      POP      {r4-r6,pc}
        0x000017e0:    2030        0       MOVS     r0,#0x30
        0x000017e2:    6821        !h      LDR      r1,[r4,#0]
        0x000017e4:    f000fbec    ....    BL       des_write_reg ; 0x1fc0
        0x000017e8:    2040        @       MOVS     r0,#0x40
        0x000017ea:    6861        ah      LDR      r1,[r4,#4]
        0x000017ec:    f000fbe8    ....    BL       des_write_reg ; 0x1fc0
        0x000017f0:    2000        .       MOVS     r0,#0
        0x000017f2:    e7f4        ..      B        0x17de ; apDes_Write_Data + 30
    $d
        0x000017f4:    5d64255b    [%d]    DCD    1566844251
        0x000017f8:    73656420     des    DCD    1936024608
        0x000017fc:    6568635f    _che    DCD    1701339999
        0x00001800:    695f6b63    ck_i    DCD    1767861091
        0x00001804:    7475706e    nput    DCD    1953853550
        0x00001808:    6165725f    _rea    DCD    1634038367
        0x0000180c:    74207964    dy t    DCD    1948285284
        0x00001810:    20656d69    ime     DCD    543518057
        0x00001814:    2074756f    out     DCD    544503151
        0x00001818:    0000000a    ....    DCD    10
    $t
    i.apSSP_DMAAddressGet
    apSSP_DMAAddressGet
        0x0000181c:    4601        .F      MOV      r1,r0
        0x0000181e:    4608        .F      MOV      r0,r1
        0x00001820:    3008        .0      ADDS     r0,r0,#8
        0x00001822:    4770        pG      BX       lr
    i.apSSP_DMAModeSet
    apSSP_DMAModeSet
        0x00001824:    2901        .)      CMP      r1,#1
        0x00001826:    d006        ..      BEQ      0x1836 ; apSSP_DMAModeSet + 18
        0x00001828:    2902        .)      CMP      r1,#2
        0x0000182a:    d009        ..      BEQ      0x1840 ; apSSP_DMAModeSet + 28
        0x0000182c:    2903        .)      CMP      r1,#3
        0x0000182e:    d00c        ..      BEQ      0x184a ; apSSP_DMAModeSet + 38
        0x00001830:    2904        .)      CMP      r1,#4
        0x00001832:    d114        ..      BNE      0x185e ; apSSP_DMAModeSet + 58
        0x00001834:    e00e        ..      B        0x1854 ; apSSP_DMAModeSet + 48
        0x00001836:    6a42        Bj      LDR      r2,[r0,#0x24]
        0x00001838:    2302        .#      MOVS     r3,#2
        0x0000183a:    431a        .C      ORRS     r2,r2,r3
        0x0000183c:    6242        Bb      STR      r2,[r0,#0x24]
        0x0000183e:    e00e        ..      B        0x185e ; apSSP_DMAModeSet + 58
        0x00001840:    6a42        Bj      LDR      r2,[r0,#0x24]
        0x00001842:    2302        .#      MOVS     r3,#2
        0x00001844:    439a        .C      BICS     r2,r2,r3
        0x00001846:    6242        Bb      STR      r2,[r0,#0x24]
        0x00001848:    e009        ..      B        0x185e ; apSSP_DMAModeSet + 58
        0x0000184a:    6a42        Bj      LDR      r2,[r0,#0x24]
        0x0000184c:    2301        .#      MOVS     r3,#1
        0x0000184e:    431a        .C      ORRS     r2,r2,r3
        0x00001850:    6242        Bb      STR      r2,[r0,#0x24]
        0x00001852:    e004        ..      B        0x185e ; apSSP_DMAModeSet + 58
        0x00001854:    6a42        Bj      LDR      r2,[r0,#0x24]
        0x00001856:    0852        R.      LSRS     r2,r2,#1
        0x00001858:    0052        R.      LSLS     r2,r2,#1
        0x0000185a:    6242        Bb      STR      r2,[r0,#0x24]
        0x0000185c:    bf00        ..      NOP      
        0x0000185e:    bf00        ..      NOP      
        0x00001860:    4770        pG      BX       lr
    i.apSSP_DeviceBusyGet
    apSSP_DeviceBusyGet
        0x00001862:    4601        .F      MOV      r1,r0
        0x00001864:    68c8        .h      LDR      r0,[r1,#0xc]
        0x00001866:    06c0        ..      LSLS     r0,r0,#27
        0x00001868:    0fc0        ..      LSRS     r0,r0,#31
        0x0000186a:    4770        pG      BX       lr
    i.apSSP_DeviceDisable
    apSSP_DeviceDisable
        0x0000186c:    6841        Ah      LDR      r1,[r0,#4]
        0x0000186e:    2202        ."      MOVS     r2,#2
        0x00001870:    4391        .C      BICS     r1,r1,r2
        0x00001872:    6041        A`      STR      r1,[r0,#4]
        0x00001874:    4770        pG      BX       lr
    i.apSSP_DeviceEnable
    apSSP_DeviceEnable
        0x00001876:    6841        Ah      LDR      r1,[r0,#4]
        0x00001878:    2202        ."      MOVS     r2,#2
        0x0000187a:    4311        .C      ORRS     r1,r1,r2
        0x0000187c:    6041        A`      STR      r1,[r0,#4]
        0x0000187e:    4770        pG      BX       lr
    i.apSSP_DeviceParametersSet
    apSSP_DeviceParametersSet
        0x00001880:    798a        .y      LDRB     r2,[r1,#6]
        0x00001882:    79cb        .y      LDRB     r3,[r1,#7]
        0x00001884:    009b        ..      LSLS     r3,r3,#2
        0x00001886:    431a        .C      ORRS     r2,r2,r3
        0x00001888:    7a0b        .z      LDRB     r3,[r1,#8]
        0x0000188a:    00db        ..      LSLS     r3,r3,#3
        0x0000188c:    431a        .C      ORRS     r2,r2,r3
        0x0000188e:    6042        B`      STR      r2,[r0,#4]
        0x00001890:    794a        Jy      LDRB     r2,[r1,#5]
        0x00001892:    790b        .y      LDRB     r3,[r1,#4]
        0x00001894:    011b        ..      LSLS     r3,r3,#4
        0x00001896:    431a        .C      ORRS     r2,r2,r3
        0x00001898:    78cb        .x      LDRB     r3,[r1,#3]
        0x0000189a:    019b        ..      LSLS     r3,r3,#6
        0x0000189c:    431a        .C      ORRS     r2,r2,r3
        0x0000189e:    788b        .x      LDRB     r3,[r1,#2]
        0x000018a0:    01db        ..      LSLS     r3,r3,#7
        0x000018a2:    431a        .C      ORRS     r2,r2,r3
        0x000018a4:    784b        Kx      LDRB     r3,[r1,#1]
        0x000018a6:    021b        ..      LSLS     r3,r3,#8
        0x000018a8:    431a        .C      ORRS     r2,r2,r3
        0x000018aa:    6002        .`      STR      r2,[r0,#0]
        0x000018ac:    780a        .x      LDRB     r2,[r1,#0]
        0x000018ae:    6102        .a      STR      r2,[r0,#0x10]
        0x000018b0:    4770        pG      BX       lr
    i.apSSP_DeviceReceiveClear
    apSSP_DeviceReceiveClear
        0x000018b2:    b508        ..      PUSH     {r3,lr}
        0x000018b4:    e002        ..      B        0x18bc ; apSSP_DeviceReceiveClear + 10
        0x000018b6:    6881        .h      LDR      r1,[r0,#8]
        0x000018b8:    b289        ..      UXTH     r1,r1
        0x000018ba:    9100        ..      STR      r1,[sp,#0]
        0x000018bc:    68c1        .h      LDR      r1,[r0,#0xc]
        0x000018be:    0749        I.      LSLS     r1,r1,#29
        0x000018c0:    0fc9        ..      LSRS     r1,r1,#31
        0x000018c2:    2900        .)      CMP      r1,#0
        0x000018c4:    d1f7        ..      BNE      0x18b6 ; apSSP_DeviceReceiveClear + 4
        0x000018c6:    bd08        ..      POP      {r3,pc}
    i.apSSP_Initialize
    apSSP_Initialize
        0x000018c8:    2100        .!      MOVS     r1,#0
        0x000018ca:    6101        .a      STR      r1,[r0,#0x10]
        0x000018cc:    6001        .`      STR      r1,[r0,#0]
        0x000018ce:    6041        A`      STR      r1,[r0,#4]
        0x000018d0:    6141        Aa      STR      r1,[r0,#0x14]
        0x000018d2:    4770        pG      BX       lr
    i.apSSP_ReadFIFO
    apSSP_ReadFIFO
        0x000018d4:    4601        .F      MOV      r1,r0
        0x000018d6:    688a        .h      LDR      r2,[r1,#8]
        0x000018d8:    b290        ..      UXTH     r0,r2
        0x000018da:    4770        pG      BX       lr
    i.apUART_BaudRateSet
    apUART_BaudRateSet
        0x000018dc:    b5f7        ..      PUSH     {r0-r2,r4-r7,lr}
        0x000018de:    b082        ..      SUB      sp,sp,#8
        0x000018e0:    4604        .F      MOV      r4,r0
        0x000018e2:    460f        .F      MOV      r7,r1
        0x000018e4:    00f8        ..      LSLS     r0,r7,#3
        0x000018e6:    9904        ..      LDR      r1,[sp,#0x10]
        0x000018e8:    f7fefbf6    ....    BL       __aeabi_uidiv ; 0xd8
        0x000018ec:    4605        .F      MOV      r5,r0
        0x000018ee:    09ee        ..      LSRS     r6,r5,#7
        0x000018f0:    01f0        ..      LSLS     r0,r6,#7
        0x000018f2:    1a2d        -.      SUBS     r5,r5,r0
        0x000018f4:    1c68        h.      ADDS     r0,r5,#1
        0x000018f6:    0840        @.      LSRS     r0,r0,#1
        0x000018f8:    9001        ..      STR      r0,[sp,#4]
        0x000018fa:    6266        fb      STR      r6,[r4,#0x24]
        0x000018fc:    4806        .H      LDR      r0,[pc,#24] ; [0x1918] = 0xffff
        0x000018fe:    4286        .B      CMP      r6,r0
        0x00001900:    d102        ..      BNE      0x1908 ; apUART_BaudRateSet + 44
        0x00001902:    2000        .       MOVS     r0,#0
        0x00001904:    62a0        .b      STR      r0,[r4,#0x28]
        0x00001906:    e002        ..      B        0x190e ; apUART_BaudRateSet + 50
        0x00001908:    1bad        ..      SUBS     r5,r5,r6
        0x0000190a:    9801        ..      LDR      r0,[sp,#4]
        0x0000190c:    62a0        .b      STR      r0,[r4,#0x28]
        0x0000190e:    6ae0        .j      LDR      r0,[r4,#0x2c]
        0x00001910:    62e0        .b      STR      r0,[r4,#0x2c]
        0x00001912:    b005        ..      ADD      sp,sp,#0x14
        0x00001914:    bdf0        ..      POP      {r4-r7,pc}
    $d
        0x00001916:    0000        ..      DCW    0
        0x00001918:    0000ffff    ....    DCD    65535
    $t
    i.apUART_Check_BUSY
    apUART_Check_BUSY
        0x0000191c:    4601        .F      MOV      r1,r0
        0x0000191e:    6988        .i      LDR      r0,[r1,#0x18]
        0x00001920:    0700        ..      LSLS     r0,r0,#28
        0x00001922:    0fc0        ..      LSRS     r0,r0,#31
        0x00001924:    4770        pG      BX       lr
    i.apUART_Check_RXFIFO_EMPTY
    apUART_Check_RXFIFO_EMPTY
        0x00001926:    4601        .F      MOV      r1,r0
        0x00001928:    6988        .i      LDR      r0,[r1,#0x18]
        0x0000192a:    06c0        ..      LSLS     r0,r0,#27
        0x0000192c:    0fc0        ..      LSRS     r0,r0,#31
        0x0000192e:    4770        pG      BX       lr
    i.apUART_Check_TXFIFO_FULL
    apUART_Check_TXFIFO_FULL
        0x00001930:    4601        .F      MOV      r1,r0
        0x00001932:    6988        .i      LDR      r0,[r1,#0x18]
        0x00001934:    0680        ..      LSLS     r0,r0,#26
        0x00001936:    0fc0        ..      LSRS     r0,r0,#31
        0x00001938:    4770        pG      BX       lr
    i.apUART_Initialize
    apUART_Initialize
        0x0000193a:    b570        p.      PUSH     {r4-r6,lr}
        0x0000193c:    4604        .F      MOV      r4,r0
        0x0000193e:    460d        .F      MOV      r5,r1
        0x00001940:    2000        .       MOVS     r0,#0
        0x00001942:    6320         c      STR      r0,[r4,#0x30]
        0x00001944:    6460        `d      STR      r0,[r4,#0x44]
        0x00001946:    63a0        .c      STR      r0,[r4,#0x38]
        0x00001948:    6060        ``      STR      r0,[r4,#4]
        0x0000194a:    6260        `b      STR      r0,[r4,#0x24]
        0x0000194c:    62a0        .b      STR      r0,[r4,#0x28]
        0x0000194e:    62e0        .b      STR      r0,[r4,#0x2c]
        0x00001950:    4620         F      MOV      r0,r4
        0x00001952:    692a        *i      LDR      r2,[r5,#0x10]
        0x00001954:    68e9        .h      LDR      r1,[r5,#0xc]
        0x00001956:    f7ffffc1    ....    BL       apUART_BaudRateSet ; 0x18dc
        0x0000195a:    7868        hx      LDRB     r0,[r5,#1]
        0x0000195c:    0740        @.      LSLS     r0,r0,#29
        0x0000195e:    0fc0        ..      LSRS     r0,r0,#31
        0x00001960:    01c0        ..      LSLS     r0,r0,#7
        0x00001962:    7829        )x      LDRB     r1,[r5,#0]
        0x00001964:    0149        I.      LSLS     r1,r1,#5
        0x00001966:    4308        .C      ORRS     r0,r0,r1
        0x00001968:    78a9        .x      LDRB     r1,[r5,#2]
        0x0000196a:    0109        ..      LSLS     r1,r1,#4
        0x0000196c:    4308        .C      ORRS     r0,r0,r1
        0x0000196e:    78e9        .x      LDRB     r1,[r5,#3]
        0x00001970:    00c9        ..      LSLS     r1,r1,#3
        0x00001972:    4308        .C      ORRS     r0,r0,r1
        0x00001974:    7869        ix      LDRB     r1,[r5,#1]
        0x00001976:    0789        ..      LSLS     r1,r1,#30
        0x00001978:    0f49        I.      LSRS     r1,r1,#29
        0x0000197a:    4308        .C      ORRS     r0,r0,r1
        0x0000197c:    62e0        .b      STR      r0,[r4,#0x2c]
        0x0000197e:    7a28        (z      LDRB     r0,[r5,#8]
        0x00001980:    79e9        .y      LDRB     r1,[r5,#7]
        0x00001982:    00c9        ..      LSLS     r1,r1,#3
        0x00001984:    4308        .C      ORRS     r0,r0,r1
        0x00001986:    6360        `c      STR      r0,[r4,#0x34]
        0x00001988:    e000        ..      B        0x198c ; apUART_Initialize + 82
        0x0000198a:    6826        &h      LDR      r6,[r4,#0]
        0x0000198c:    4620         F      MOV      r0,r4
        0x0000198e:    f7ffffca    ....    BL       apUART_Check_RXFIFO_EMPTY ; 0x1926
        0x00001992:    2801        .(      CMP      r0,#1
        0x00001994:    d1f9        ..      BNE      0x198a ; apUART_Initialize + 80
        0x00001996:    1c76        v.      ADDS     r6,r6,#1
        0x00001998:    2000        .       MOVS     r0,#0
        0x0000199a:    63a0        .c      STR      r0,[r4,#0x38]
        0x0000199c:    7928        (y      LDRB     r0,[r5,#4]
        0x0000199e:    0240        @.      LSLS     r0,r0,#9
        0x000019a0:    7969        iy      LDRB     r1,[r5,#5]
        0x000019a2:    0209        ..      LSLS     r1,r1,#8
        0x000019a4:    4308        .C      ORRS     r0,r0,r1
        0x000019a6:    79a9        .y      LDRB     r1,[r5,#6]
        0x000019a8:    4308        .C      ORRS     r0,r0,r1
        0x000019aa:    6320         c      STR      r0,[r4,#0x30]
        0x000019ac:    bd70        p.      POP      {r4-r6,pc}
    i.buf64_to_buf8
    buf64_to_buf8
        0x000019ae:    b5fe        ..      PUSH     {r1-r7,lr}
        0x000019b0:    4604        .F      MOV      r4,r0
        0x000019b2:    460d        .F      MOV      r5,r1
        0x000019b4:    2000        .       MOVS     r0,#0
        0x000019b6:    9000        ..      STR      r0,[sp,#0]
        0x000019b8:    e014        ..      B        0x19e4 ; buf64_to_buf8 + 54
        0x000019ba:    2600        .&      MOVS     r6,#0
        0x000019bc:    e00b        ..      B        0x19d6 ; buf64_to_buf8 + 40
        0x000019be:    00f2        ..      LSLS     r2,r6,#3
        0x000019c0:    682f        /h      LDR      r7,[r5,#0]
        0x000019c2:    6868        hh      LDR      r0,[r5,#4]
        0x000019c4:    9001        ..      STR      r0,[sp,#4]
        0x000019c6:    4638        8F      MOV      r0,r7
        0x000019c8:    9901        ..      LDR      r1,[sp,#4]
        0x000019ca:    f7fefbab    ....    BL       __aeabi_llsr ; 0x124
        0x000019ce:    7020         p      STRB     r0,[r4,#0]
        0x000019d0:    1c64        d.      ADDS     r4,r4,#1
        0x000019d2:    1c70        p.      ADDS     r0,r6,#1
        0x000019d4:    b2c6        ..      UXTB     r6,r0
        0x000019d6:    2e08        ..      CMP      r6,#8
        0x000019d8:    dbf1        ..      BLT      0x19be ; buf64_to_buf8 + 16
        0x000019da:    9800        ..      LDR      r0,[sp,#0]
        0x000019dc:    1c40        @.      ADDS     r0,r0,#1
        0x000019de:    b2c0        ..      UXTB     r0,r0
        0x000019e0:    9000        ..      STR      r0,[sp,#0]
        0x000019e2:    3508        .5      ADDS     r5,r5,#8
        0x000019e4:    9800        ..      LDR      r0,[sp,#0]
        0x000019e6:    2840        @(      CMP      r0,#0x40
        0x000019e8:    dbe7        ..      BLT      0x19ba ; buf64_to_buf8 + 12
        0x000019ea:    bdfe        ..      POP      {r1-r7,pc}
    i.buf8_to_buf64
    buf8_to_buf64
        0x000019ec:    b5fe        ..      PUSH     {r1-r7,lr}
        0x000019ee:    4606        .F      MOV      r6,r0
        0x000019f0:    460c        .F      MOV      r4,r1
        0x000019f2:    2000        .       MOVS     r0,#0
        0x000019f4:    9000        ..      STR      r0,[sp,#0]
        0x000019f6:    e01c        ..      B        0x1a32 ; buf8_to_buf64 + 70
        0x000019f8:    2000        .       MOVS     r0,#0
        0x000019fa:    6020         `      STR      r0,[r4,#0]
        0x000019fc:    6060        ``      STR      r0,[r4,#4]
        0x000019fe:    2700        .'      MOVS     r7,#0
        0x00001a00:    e010        ..      B        0x1a24 ; buf8_to_buf64 + 56
        0x00001a02:    7835        5x      LDRB     r5,[r6,#0]
        0x00001a04:    1c76        v.      ADDS     r6,r6,#1
        0x00001a06:    2000        .       MOVS     r0,#0
        0x00001a08:    00fa        ..      LSLS     r2,r7,#3
        0x00001a0a:    9001        ..      STR      r0,[sp,#4]
        0x00001a0c:    4628        (F      MOV      r0,r5
        0x00001a0e:    9901        ..      LDR      r1,[sp,#4]
        0x00001a10:    f7fefb78    ..x.    BL       __aeabi_llsl ; 0x104
        0x00001a14:    6822        "h      LDR      r2,[r4,#0]
        0x00001a16:    4310        .C      ORRS     r0,r0,r2
        0x00001a18:    6863        ch      LDR      r3,[r4,#4]
        0x00001a1a:    4319        .C      ORRS     r1,r1,r3
        0x00001a1c:    6061        a`      STR      r1,[r4,#4]
        0x00001a1e:    6020         `      STR      r0,[r4,#0]
        0x00001a20:    1c78        x.      ADDS     r0,r7,#1
        0x00001a22:    b2c7        ..      UXTB     r7,r0
        0x00001a24:    2f08        ./      CMP      r7,#8
        0x00001a26:    dbec        ..      BLT      0x1a02 ; buf8_to_buf64 + 22
        0x00001a28:    9800        ..      LDR      r0,[sp,#0]
        0x00001a2a:    1c40        @.      ADDS     r0,r0,#1
        0x00001a2c:    b2c0        ..      UXTB     r0,r0
        0x00001a2e:    9000        ..      STR      r0,[sp,#0]
        0x00001a30:    3408        .4      ADDS     r4,r4,#8
        0x00001a32:    9800        ..      LDR      r0,[sp,#0]
        0x00001a34:    2840        @(      CMP      r0,#0x40
        0x00001a36:    dbdf        ..      BLT      0x19f8 ; buf8_to_buf64 + 12
        0x00001a38:    bdfe        ..      POP      {r1-r7,pc}
    i.clear_buf8
    clear_buf8
        0x00001a3a:    2200        ."      MOVS     r2,#0
        0x00001a3c:    e003        ..      B        0x1a46 ; clear_buf8 + 12
        0x00001a3e:    2300        .#      MOVS     r3,#0
        0x00001a40:    7003        .p      STRB     r3,[r0,#0]
        0x00001a42:    1c52        R.      ADDS     r2,r2,#1
        0x00001a44:    1c40        @.      ADDS     r0,r0,#1
        0x00001a46:    428a        .B      CMP      r2,r1
        0x00001a48:    d3f9        ..      BCC      0x1a3e ; clear_buf8 + 4
        0x00001a4a:    4770        pG      BX       lr
    i.config_uart0
    config_uart0
        0x00001a4c:    b570        p.      PUSH     {r4-r6,lr}
        0x00001a4e:    b088        ..      SUB      sp,sp,#0x20
        0x00001a50:    4604        .F      MOV      r4,r0
        0x00001a52:    460d        .F      MOV      r5,r1
        0x00001a54:    4616        .F      MOV      r6,r2
        0x00001a56:    f7fffa9f    ....    BL       SYSCTRL_ClrReset_APB_SCI0 ; 0xf98
        0x00001a5a:    f7fffa97    ....    BL       SYSCTRL_ClrReset_APB_PinCtrl ; 0xf8c
        0x00001a5e:    2e00        ..      CMP      r6,#0
        0x00001a60:    d006        ..      BEQ      0x1a70 ; config_uart0 + 36
        0x00001a62:    2e01        ..      CMP      r6,#1
        0x00001a64:    d00f        ..      BEQ      0x1a86 ; config_uart0 + 58
        0x00001a66:    2e02        ..      CMP      r6,#2
        0x00001a68:    d018        ..      BEQ      0x1a9c ; config_uart0 + 80
        0x00001a6a:    2e03        ..      CMP      r6,#3
        0x00001a6c:    d12c        ,.      BNE      0x1ac8 ; config_uart0 + 124
        0x00001a6e:    e020         .      B        0x1ab2 ; config_uart0 + 102
        0x00001a70:    21d0        .!      MOVS     r1,#0xd0
        0x00001a72:    4668        hF      MOV      r0,sp
        0x00001a74:    7101        .q      STRB     r1,[r0,#4]
        0x00001a76:    2141        A!      MOVS     r1,#0x41
        0x00001a78:    7201        .r      STRB     r1,[r0,#8]
        0x00001a7a:    aa01        ..      ADD      r2,sp,#4
        0x00001a7c:    2130        0!      MOVS     r1,#0x30
        0x00001a7e:    2000        .       MOVS     r0,#0
        0x00001a80:    f7feff50    ..P.    BL       PinCtrl_GIOSet ; 0x924
        0x00001a84:    e02b        +.      B        0x1ade ; config_uart0 + 146
        0x00001a86:    21d0        .!      MOVS     r1,#0xd0
        0x00001a88:    4668        hF      MOV      r0,sp
        0x00001a8a:    7101        .q      STRB     r1,[r0,#4]
        0x00001a8c:    2141        A!      MOVS     r1,#0x41
        0x00001a8e:    7201        .r      STRB     r1,[r0,#8]
        0x00001a90:    aa01        ..      ADD      r2,sp,#4
        0x00001a92:    21c0        .!      MOVS     r1,#0xc0
        0x00001a94:    2001        .       MOVS     r0,#1
        0x00001a96:    f7feff45    ..E.    BL       PinCtrl_GIOSet ; 0x924
        0x00001a9a:    e020         .      B        0x1ade ; config_uart0 + 146
        0x00001a9c:    21e0        .!      MOVS     r1,#0xe0
        0x00001a9e:    4668        hF      MOV      r0,sp
        0x00001aa0:    7101        .q      STRB     r1,[r0,#4]
        0x00001aa2:    2141        A!      MOVS     r1,#0x41
        0x00001aa4:    7201        .r      STRB     r1,[r0,#8]
        0x00001aa6:    aa01        ..      ADD      r2,sp,#4
        0x00001aa8:    2103        .!      MOVS     r1,#3
        0x00001aaa:    2001        .       MOVS     r0,#1
        0x00001aac:    f7feff3a    ..:.    BL       PinCtrl_GIOSet ; 0x924
        0x00001ab0:    e015        ..      B        0x1ade ; config_uart0 + 146
        0x00001ab2:    21e0        .!      MOVS     r1,#0xe0
        0x00001ab4:    4668        hF      MOV      r0,sp
        0x00001ab6:    7101        .q      STRB     r1,[r0,#4]
        0x00001ab8:    2141        A!      MOVS     r1,#0x41
        0x00001aba:    7201        .r      STRB     r1,[r0,#8]
        0x00001abc:    aa01        ..      ADD      r2,sp,#4
        0x00001abe:    210c        .!      MOVS     r1,#0xc
        0x00001ac0:    2003        .       MOVS     r0,#3
        0x00001ac2:    f7feff2f    ../.    BL       PinCtrl_GIOSet ; 0x924
        0x00001ac6:    e00a        ..      B        0x1ade ; config_uart0 + 146
        0x00001ac8:    21d0        .!      MOVS     r1,#0xd0
        0x00001aca:    4668        hF      MOV      r0,sp
        0x00001acc:    7101        .q      STRB     r1,[r0,#4]
        0x00001ace:    2141        A!      MOVS     r1,#0x41
        0x00001ad0:    7201        .r      STRB     r1,[r0,#8]
        0x00001ad2:    aa01        ..      ADD      r2,sp,#4
        0x00001ad4:    2130        0!      MOVS     r1,#0x30
        0x00001ad6:    2000        .       MOVS     r0,#0
        0x00001ad8:    f7feff24    ..$.    BL       PinCtrl_GIOSet ; 0x924
        0x00001adc:    bf00        ..      NOP      
        0x00001ade:    bf00        ..      NOP      
        0x00001ae0:    2103        .!      MOVS     r1,#3
        0x00001ae2:    4668        hF      MOV      r0,sp
        0x00001ae4:    7301        .s      STRB     r1,[r0,#0xc]
        0x00001ae6:    2100        .!      MOVS     r1,#0
        0x00001ae8:    7341        As      STRB     r1,[r0,#0xd]
        0x00001aea:    2101        .!      MOVS     r1,#1
        0x00001aec:    7381        .s      STRB     r1,[r0,#0xe]
        0x00001aee:    2100        .!      MOVS     r1,#0
        0x00001af0:    73c1        .s      STRB     r1,[r0,#0xf]
        0x00001af2:    2101        .!      MOVS     r1,#1
        0x00001af4:    7401        .t      STRB     r1,[r0,#0x10]
        0x00001af6:    7441        At      STRB     r1,[r0,#0x11]
        0x00001af8:    7481        .t      STRB     r1,[r0,#0x12]
        0x00001afa:    2100        .!      MOVS     r1,#0
        0x00001afc:    74c1        .t      STRB     r1,[r0,#0x13]
        0x00001afe:    2102        .!      MOVS     r1,#2
        0x00001b00:    7501        .u      STRB     r1,[r0,#0x14]
        0x00001b02:    9406        ..      STR      r4,[sp,#0x18]
        0x00001b04:    9507        ..      STR      r5,[sp,#0x1c]
        0x00001b06:    a903        ..      ADD      r1,sp,#0xc
        0x00001b08:    4802        .H      LDR      r0,[pc,#8] ; [0x1b14] = 0x40010000
        0x00001b0a:    f7ffff16    ....    BL       apUART_Initialize ; 0x193a
        0x00001b0e:    b008        ..      ADD      sp,sp,#0x20
        0x00001b10:    bd70        p.      POP      {r4-r6,pc}
    $d
        0x00001b12:    0000        ..      DCW    0
        0x00001b14:    40010000    ...@    DCD    1073807360
    $t
    i.crc7_mmc
    crc7_mmc
        0x00001b18:    b530        0.      PUSH     {r4,r5,lr}
        0x00001b1a:    4602        .F      MOV      r2,r0
        0x00001b1c:    460c        .F      MOV      r4,r1
        0x00001b1e:    2100        .!      MOVS     r1,#0
        0x00001b20:    e013        ..      B        0x1b4a ; crc7_mmc + 50
        0x00001b22:    7810        .x      LDRB     r0,[r2,#0]
        0x00001b24:    1c52        R.      ADDS     r2,r2,#1
        0x00001b26:    4041        A@      EORS     r1,r1,r0
        0x00001b28:    2300        .#      MOVS     r3,#0
        0x00001b2a:    e00c        ..      B        0x1b46 ; crc7_mmc + 46
        0x00001b2c:    2080        .       MOVS     r0,#0x80
        0x00001b2e:    4008        .@      ANDS     r0,r0,r1
        0x00001b30:    2800        .(      CMP      r0,#0
        0x00001b32:    d004        ..      BEQ      0x1b3e ; crc7_mmc + 38
        0x00001b34:    0048        H.      LSLS     r0,r1,#1
        0x00001b36:    2512        .%      MOVS     r5,#0x12
        0x00001b38:    4068        h@      EORS     r0,r0,r5
        0x00001b3a:    b2c1        ..      UXTB     r1,r0
        0x00001b3c:    e001        ..      B        0x1b42 ; crc7_mmc + 42
        0x00001b3e:    0648        H.      LSLS     r0,r1,#25
        0x00001b40:    0e01        ..      LSRS     r1,r0,#24
        0x00001b42:    1c58        X.      ADDS     r0,r3,#1
        0x00001b44:    b2c3        ..      UXTB     r3,r0
        0x00001b46:    2b08        .+      CMP      r3,#8
        0x00001b48:    dbf0        ..      BLT      0x1b2c ; crc7_mmc + 20
        0x00001b4a:    4620         F      MOV      r0,r4
        0x00001b4c:    1e65        e.      SUBS     r5,r4,#1
        0x00001b4e:    b2ec        ..      UXTB     r4,r5
        0x00001b50:    2800        .(      CMP      r0,#0
        0x00001b52:    d1e6        ..      BNE      0x1b22 ; crc7_mmc + 10
        0x00001b54:    1048        H.      ASRS     r0,r1,#1
        0x00001b56:    bd30        0.      POP      {r4,r5,pc}
    i.create_file_list
    create_file_list
        0x00001b58:    b40f        ..      PUSH     {r0-r3}
        0x00001b5a:    b5f0        ..      PUSH     {r4-r7,lr}
        0x00001b5c:    b085        ..      SUB      sp,sp,#0x14
        0x00001b5e:    4605        .F      MOV      r5,r0
        0x00001b60:    460c        .F      MOV      r4,r1
        0x00001b62:    2000        .       MOVS     r0,#0
        0x00001b64:    9003        ..      STR      r0,[sp,#0xc]
        0x00001b66:    9404        ..      STR      r4,[sp,#0x10]
        0x00001b68:    af02        ..      ADD      r7,sp,#8
        0x00001b6a:    6038        8`      STR      r0,[r7,#0]
        0x00001b6c:    9e0d        ..      LDR      r6,[sp,#0x34]
        0x00001b6e:    bf00        ..      NOP      
        0x00001b70:    462a        *F      MOV      r2,r5
        0x00001b72:    4631        1F      MOV      r1,r6
        0x00001b74:    2001        .       MOVS     r0,#1
        0x00001b76:    0240        @.      LSLS     r0,r0,#9
        0x00001b78:    f7fff8f0    ....    BL       SD_spi_read_single_blk ; 0xd5c
        0x00001b7c:    a808        ..      ADD      r0,sp,#0x20
        0x00001b7e:    9701        ..      STR      r7,[sp,#4]
        0x00001b80:    9400        ..      STR      r4,[sp,#0]
        0x00001b82:    7e03        .~      LDRB     r3,[r0,#0x18]
        0x00001b84:    4629        )F      MOV      r1,r5
        0x00001b86:    4630        0F      MOV      r0,r6
        0x00001b88:    9a0d        ..      LDR      r2,[sp,#0x34]
        0x00001b8a:    f000fb47    ..G.    BL       file_extract_directory ; 0x221c
        0x00001b8e:    4604        .F      MOV      r4,r0
        0x00001b90:    1c76        v.      ADDS     r6,r6,#1
        0x00001b92:    9803        ..      LDR      r0,[sp,#0xc]
        0x00001b94:    1c40        @.      ADDS     r0,r0,#1
        0x00001b96:    9003        ..      STR      r0,[sp,#0xc]
        0x00001b98:    a808        ..      ADD      r0,sp,#0x20
        0x00001b9a:    7e01        .~      LDRB     r1,[r0,#0x18]
        0x00001b9c:    9803        ..      LDR      r0,[sp,#0xc]
        0x00001b9e:    4281        .B      CMP      r1,r0
        0x00001ba0:    d8e6        ..      BHI      0x1b70 ; create_file_list + 24
        0x00001ba2:    a008        ..      ADR      r0,{pc}+0x22 ; 0x1bc4
        0x00001ba4:    6839        9h      LDR      r1,[r7,#0]
        0x00001ba6:    f7fffa3b    ..;.    BL       __0printf$5 ; 0x1020
        0x00001baa:    a00a        ..      ADR      r0,{pc}+0x2a ; 0x1bd4
        0x00001bac:    f7fffa38    ..8.    BL       __0printf$5 ; 0x1020
        0x00001bb0:    6a64        dj      LDR      r4,[r4,#0x24]
        0x00001bb2:    2000        .       MOVS     r0,#0
        0x00001bb4:    6220         b      STR      r0,[r4,#0x20]
        0x00001bb6:    9c04        ..      LDR      r4,[sp,#0x10]
        0x00001bb8:    b005        ..      ADD      sp,sp,#0x14
        0x00001bba:    bcf0        ..      POP      {r4-r7}
        0x00001bbc:    bc08        ..      POP      {r3}
        0x00001bbe:    b004        ..      ADD      sp,sp,#0x10
        0x00001bc0:    4718        .G      BX       r3
    $d
        0x00001bc2:    0000        ..      DCW    0
        0x00001bc4:    6425200a    . %d    DCD    1680154634
        0x00001bc8:    6c694620     Fil    DCD    1818838560
        0x00001bcc:    29732865    e(s)    DCD    695412837
        0x00001bd0:    0000000a    ....    DCD    10
        0x00001bd4:    6c616e41    Anal    DCD    1818324545
        0x00001bd8:    20657a79    yze     DCD    543521401
        0x00001bdc:    0a2e2e2e    ....    DCD    170798638
        0x00001be0:    00000000    ....    DCD    0
    $t
    i.del_puf_sector
    del_puf_sector
        0x00001be4:    b5ff        ..      PUSH     {r0-r7,lr}
        0x00001be6:    b0a1        ..      SUB      sp,sp,#0x84
        0x00001be8:    4605        .F      MOV      r5,r0
        0x00001bea:    9c2a        *.      LDR      r4,[sp,#0xa8]
        0x00001bec:    69ef        .i      LDR      r7,[r5,#0x1c]
        0x00001bee:    971f        ..      STR      r7,[sp,#0x7c]
        0x00001bf0:    69a8        .i      LDR      r0,[r5,#0x18]
        0x00001bf2:    0a40        @.      LSRS     r0,r0,#9
        0x00001bf4:    901e        ..      STR      r0,[sp,#0x78]
        0x00001bf6:    9924        $.      LDR      r1,[sp,#0x90]
        0x00001bf8:    981e        ..      LDR      r0,[sp,#0x78]
        0x00001bfa:    f7fefa6d    ..m.    BL       __aeabi_uidiv ; 0xd8
        0x00001bfe:    1e49        I.      SUBS     r1,r1,#1
        0x00001c00:    911e        ..      STR      r1,[sp,#0x78]
        0x00001c02:    9a20         .      LDR      r2,[sp,#0x80]
        0x00001c04:    9823        #.      LDR      r0,[sp,#0x8c]
        0x00001c06:    1881        ..      ADDS     r1,r0,r2
        0x00001c08:    a08e        ..      ADR      r0,{pc}+0x23c ; 0x1e44
        0x00001c0a:    f7fffa09    ....    BL       __0printf$5 ; 0x1020
        0x00001c0e:    a094        ..      ADR      r0,{pc}+0x252 ; 0x1e60
        0x00001c10:    6929        )i      LDR      r1,[r5,#0x10]
        0x00001c12:    f7fffa05    ....    BL       __0printf$5 ; 0x1020
        0x00001c16:    8aa9        ..      LDRH     r1,[r5,#0x14]
        0x00001c18:    a098        ..      ADR      r0,{pc}+0x264 ; 0x1e7c
        0x00001c1a:    f7fffa01    ....    BL       __0printf$5 ; 0x1020
        0x00001c1e:    a09e        ..      ADR      r0,{pc}+0x27a ; 0x1e98
        0x00001c20:    69e9        .i      LDR      r1,[r5,#0x1c]
        0x00001c22:    f7fff9fd    ....    BL       __0printf$5 ; 0x1020
        0x00001c26:    a0a5        ..      ADR      r0,{pc}+0x296 ; 0x1ebc
        0x00001c28:    991e        ..      LDR      r1,[sp,#0x78]
        0x00001c2a:    f7fff9f9    ....    BL       __0printf$5 ; 0x1020
        0x00001c2e:    a0a8        ..      ADR      r0,{pc}+0x2a2 ; 0x1ed0
        0x00001c30:    9924        $.      LDR      r1,[sp,#0x90]
        0x00001c32:    f7fff9f5    ....    BL       __0printf$5 ; 0x1020
        0x00001c36:    9f1f        ..      LDR      r7,[sp,#0x7c]
        0x00001c38:    09f8        ..      LSRS     r0,r7,#7
        0x00001c3a:    9020         .      STR      r0,[sp,#0x80]
        0x00001c3c:    9a20         .      LDR      r2,[sp,#0x80]
        0x00001c3e:    9823        #.      LDR      r0,[sp,#0x8c]
        0x00001c40:    1881        ..      ADDS     r1,r0,r2
        0x00001c42:    4622        "F      MOV      r2,r4
        0x00001c44:    2001        .       MOVS     r0,#1
        0x00001c46:    0240        @.      LSLS     r0,r0,#9
        0x00001c48:    f7fff888    ....    BL       SD_spi_read_single_blk ; 0xd5c
        0x00001c4c:    bf00        ..      NOP      
        0x00001c4e:    971f        ..      STR      r7,[sp,#0x7c]
        0x00001c50:    9f1f        ..      LDR      r7,[sp,#0x7c]
        0x00001c52:    00b9        ..      LSLS     r1,r7,#2
        0x00001c54:    9820         .      LDR      r0,[sp,#0x80]
        0x00001c56:    0240        @.      LSLS     r0,r0,#9
        0x00001c58:    1a08        ..      SUBS     r0,r1,r0
        0x00001c5a:    b280        ..      UXTH     r0,r0
        0x00001c5c:    901c        ..      STR      r0,[sp,#0x70]
        0x00001c5e:    981c        ..      LDR      r0,[sp,#0x70]
        0x00001c60:    1cc0        ..      ADDS     r0,r0,#3
        0x00001c62:    5c20         \      LDRB     r0,[r4,r0]
        0x00001c64:    0601        ..      LSLS     r1,r0,#24
        0x00001c66:    981c        ..      LDR      r0,[sp,#0x70]
        0x00001c68:    1c80        ..      ADDS     r0,r0,#2
        0x00001c6a:    5c20         \      LDRB     r0,[r4,r0]
        0x00001c6c:    0400        ..      LSLS     r0,r0,#16
        0x00001c6e:    4301        .C      ORRS     r1,r1,r0
        0x00001c70:    981c        ..      LDR      r0,[sp,#0x70]
        0x00001c72:    1c40        @.      ADDS     r0,r0,#1
        0x00001c74:    5c20         \      LDRB     r0,[r4,r0]
        0x00001c76:    0200        ..      LSLS     r0,r0,#8
        0x00001c78:    4301        .C      ORRS     r1,r1,r0
        0x00001c7a:    981c        ..      LDR      r0,[sp,#0x70]
        0x00001c7c:    5c20         \      LDRB     r0,[r4,r0]
        0x00001c7e:    4301        .C      ORRS     r1,r1,r0
        0x00001c80:    460f        .F      MOV      r7,r1
        0x00001c82:    21ff        .!      MOVS     r1,#0xff
        0x00001c84:    31fd        .1      ADDS     r1,r1,#0xfd
        0x00001c86:    981c        ..      LDR      r0,[sp,#0x70]
        0x00001c88:    4288        .B      CMP      r0,r1
        0x00001c8a:    d10d        ..      BNE      0x1ca8 ; del_puf_sector + 196
        0x00001c8c:    4897        .H      LDR      r0,[pc,#604] ; [0x1eec] = 0xfffffff
        0x00001c8e:    4287        .B      CMP      r7,r0
        0x00001c90:    d00a        ..      BEQ      0x1ca8 ; del_puf_sector + 196
        0x00001c92:    9820         .      LDR      r0,[sp,#0x80]
        0x00001c94:    1c40        @.      ADDS     r0,r0,#1
        0x00001c96:    9020         .      STR      r0,[sp,#0x80]
        0x00001c98:    9a20         .      LDR      r2,[sp,#0x80]
        0x00001c9a:    9823        #.      LDR      r0,[sp,#0x8c]
        0x00001c9c:    1881        ..      ADDS     r1,r0,r2
        0x00001c9e:    4622        "F      MOV      r2,r4
        0x00001ca0:    2001        .       MOVS     r0,#1
        0x00001ca2:    0240        @.      LSLS     r0,r0,#9
        0x00001ca4:    f7fff85a    ..Z.    BL       SD_spi_read_single_blk ; 0xd5c
        0x00001ca8:    4890        .H      LDR      r0,[pc,#576] ; [0x1eec] = 0xfffffff
        0x00001caa:    4287        .B      CMP      r7,r0
        0x00001cac:    d1cf        ..      BNE      0x1c4e ; del_puf_sector + 106
        0x00001cae:    9924        $.      LDR      r1,[sp,#0x90]
        0x00001cb0:    981e        ..      LDR      r0,[sp,#0x78]
        0x00001cb2:    4288        .B      CMP      r0,r1
        0x00001cb4:    d87e        ~.      BHI      0x1db4 ; del_puf_sector + 464
        0x00001cb6:    981f        ..      LDR      r0,[sp,#0x7c]
        0x00001cb8:    1e80        ..      SUBS     r0,r0,#2
        0x00001cba:    9924        $.      LDR      r1,[sp,#0x90]
        0x00001cbc:    4348        HC      MULS     r0,r1,r0
        0x00001cbe:    9922        ".      LDR      r1,[sp,#0x88]
        0x00001cc0:    1840        @.      ADDS     r0,r0,r1
        0x00001cc2:    901d        ..      STR      r0,[sp,#0x74]
        0x00001cc4:    991e        ..      LDR      r1,[sp,#0x78]
        0x00001cc6:    981d        ..      LDR      r0,[sp,#0x74]
        0x00001cc8:    1840        @.      ADDS     r0,r0,r1
        0x00001cca:    901d        ..      STR      r0,[sp,#0x74]
        0x00001ccc:    4622        "F      MOV      r2,r4
        0x00001cce:    2001        .       MOVS     r0,#1
        0x00001cd0:    0240        @.      LSLS     r0,r0,#9
        0x00001cd2:    991d        ..      LDR      r1,[sp,#0x74]
        0x00001cd4:    f7fff842    ..B.    BL       SD_spi_read_single_blk ; 0xd5c
        0x00001cd8:    2080        .       MOVS     r0,#0x80
        0x00001cda:    5d01        .]      LDRB     r1,[r0,r4]
        0x00001cdc:    a818        ..      ADD      r0,sp,#0x60
        0x00001cde:    7201        .r      STRB     r1,[r0,#8]
        0x00001ce0:    2081        .       MOVS     r0,#0x81
        0x00001ce2:    5d01        .]      LDRB     r1,[r0,r4]
        0x00001ce4:    a818        ..      ADD      r0,sp,#0x60
        0x00001ce6:    7241        Ar      STRB     r1,[r0,#9]
        0x00001ce8:    2082        .       MOVS     r0,#0x82
        0x00001cea:    5d01        .]      LDRB     r1,[r0,r4]
        0x00001cec:    a818        ..      ADD      r0,sp,#0x60
        0x00001cee:    7281        .r      STRB     r1,[r0,#0xa]
        0x00001cf0:    7920         y      LDRB     r0,[r4,#4]
        0x00001cf2:    0200        ..      LSLS     r0,r0,#8
        0x00001cf4:    78e1        .x      LDRB     r1,[r4,#3]
        0x00001cf6:    4308        .C      ORRS     r0,r0,r1
        0x00001cf8:    901b        ..      STR      r0,[sp,#0x6c]
        0x00001cfa:    a801        ..      ADD      r0,sp,#4
        0x00001cfc:    f7fefe36    ..6.    BL       Read_puf_key ; 0x96c
        0x00001d00:    2600        .&      MOVS     r6,#0
        0x00001d02:    e012        ..      B        0x1d2a ; del_puf_sector + 326
        0x00001d04:    07f0        ..      LSLS     r0,r6,#31
        0x00001d06:    0fc0        ..      LSRS     r0,r0,#31
        0x00001d08:    2800        .(      CMP      r0,#0
        0x00001d0a:    d006        ..      BEQ      0x1d1a ; del_puf_sector + 310
        0x00001d0c:    00b0        ..      LSLS     r0,r6,#2
        0x00001d0e:    a901        ..      ADD      r1,sp,#4
        0x00001d10:    5c08        .\      LDRB     r0,[r1,r0]
        0x00001d12:    00b1        ..      LSLS     r1,r6,#2
        0x00001d14:    aa01        ..      ADD      r2,sp,#4
        0x00001d16:    5050        PP      STR      r0,[r2,r1]
        0x00001d18:    e006        ..      B        0x1d28 ; del_puf_sector + 324
        0x00001d1a:    00b0        ..      LSLS     r0,r6,#2
        0x00001d1c:    a901        ..      ADD      r1,sp,#4
        0x00001d1e:    5808        .X      LDR      r0,[r1,r0]
        0x00001d20:    0e00        ..      LSRS     r0,r0,#24
        0x00001d22:    00b1        ..      LSLS     r1,r6,#2
        0x00001d24:    aa01        ..      ADD      r2,sp,#4
        0x00001d26:    5050        PP      STR      r0,[r2,r1]
        0x00001d28:    1c76        v.      ADDS     r6,r6,#1
        0x00001d2a:    2e18        ..      CMP      r6,#0x18
        0x00001d2c:    d3ea        ..      BCC      0x1d04 ; del_puf_sector + 288
        0x00001d2e:    2600        .&      MOVS     r6,#0
        0x00001d30:    2001        .       MOVS     r0,#1
        0x00001d32:    9019        ..      STR      r0,[sp,#0x64]
        0x00001d34:    e00d        ..      B        0x1d52 ; del_puf_sector + 366
        0x00001d36:    4630        0F      MOV      r0,r6
        0x00001d38:    30c0        .0      ADDS     r0,r0,#0xc0
        0x00001d3a:    5c20         \      LDRB     r0,[r4,r0]
        0x00001d3c:    00b1        ..      LSLS     r1,r6,#2
        0x00001d3e:    aa01        ..      ADD      r2,sp,#4
        0x00001d40:    5851        QX      LDR      r1,[r2,r1]
        0x00001d42:    4288        .B      CMP      r0,r1
        0x00001d44:    d102        ..      BNE      0x1d4c ; del_puf_sector + 360
        0x00001d46:    2001        .       MOVS     r0,#1
        0x00001d48:    9019        ..      STR      r0,[sp,#0x64]
        0x00001d4a:    e001        ..      B        0x1d50 ; del_puf_sector + 364
        0x00001d4c:    2000        .       MOVS     r0,#0
        0x00001d4e:    9019        ..      STR      r0,[sp,#0x64]
        0x00001d50:    1c76        v.      ADDS     r6,r6,#1
        0x00001d52:    2e18        ..      CMP      r6,#0x18
        0x00001d54:    d202        ..      BCS      0x1d5c ; del_puf_sector + 376
        0x00001d56:    9819        ..      LDR      r0,[sp,#0x64]
        0x00001d58:    2801        .(      CMP      r0,#1
        0x00001d5a:    d0ec        ..      BEQ      0x1d36 ; del_puf_sector + 338
        0x00001d5c:    7820         x      LDRB     r0,[r4,#0]
        0x00001d5e:    2850        P(      CMP      r0,#0x50
        0x00001d60:    d164        d.      BNE      0x1e2c ; del_puf_sector + 584
        0x00001d62:    7860        `x      LDRB     r0,[r4,#1]
        0x00001d64:    2855        U(      CMP      r0,#0x55
        0x00001d66:    d161        a.      BNE      0x1e2c ; del_puf_sector + 584
        0x00001d68:    78a0        .x      LDRB     r0,[r4,#2]
        0x00001d6a:    2846        F(      CMP      r0,#0x46
        0x00001d6c:    d15e        ^.      BNE      0x1e2c ; del_puf_sector + 584
        0x00001d6e:    20ff        .       MOVS     r0,#0xff
        0x00001d70:    30fd        .0      ADDS     r0,r0,#0xfd
        0x00001d72:    5d00        .]      LDRB     r0,[r0,r4]
        0x00001d74:    28ff        .(      CMP      r0,#0xff
        0x00001d76:    d159        Y.      BNE      0x1e2c ; del_puf_sector + 584
        0x00001d78:    20ff        .       MOVS     r0,#0xff
        0x00001d7a:    30fe        .0      ADDS     r0,r0,#0xfe
        0x00001d7c:    5d00        .]      LDRB     r0,[r0,r4]
        0x00001d7e:    285a        Z(      CMP      r0,#0x5a
        0x00001d80:    d154        T.      BNE      0x1e2c ; del_puf_sector + 584
        0x00001d82:    20ff        .       MOVS     r0,#0xff
        0x00001d84:    30ff        .0      ADDS     r0,r0,#0xff
        0x00001d86:    5d00        .]      LDRB     r0,[r0,r4]
        0x00001d88:    28f5        .(      CMP      r0,#0xf5
        0x00001d8a:    d14f        O.      BNE      0x1e2c ; del_puf_sector + 584
        0x00001d8c:    4858        XH      LDR      r0,[pc,#352] ; [0x1ef0] = 0x1ff
        0x00001d8e:    5d00        .]      LDRB     r0,[r0,r4]
        0x00001d90:    28aa        .(      CMP      r0,#0xaa
        0x00001d92:    d14b        K.      BNE      0x1e2c ; del_puf_sector + 584
        0x00001d94:    9819        ..      LDR      r0,[sp,#0x64]
        0x00001d96:    2801        .(      CMP      r0,#1
        0x00001d98:    d142        B.      BNE      0x1e20 ; del_puf_sector + 572
        0x00001d9a:    0241        A.      LSLS     r1,r0,#9
        0x00001d9c:    4620         F      MOV      r0,r4
        0x00001d9e:    f7fffe4c    ..L.    BL       clear_buf8 ; 0x1a3a
        0x00001da2:    4622        "F      MOV      r2,r4
        0x00001da4:    2001        .       MOVS     r0,#1
        0x00001da6:    0240        @.      LSLS     r0,r0,#9
        0x00001da8:    991d        ..      LDR      r1,[sp,#0x74]
        0x00001daa:    f7fff86d    ..m.    BL       SD_spi_write_single_blk ; 0xe88
        0x00001dae:    4622        "F      MOV      r2,r4
        0x00001db0:    2001        .       MOVS     r0,#1
        0x00001db2:    e000        ..      B        0x1db6 ; del_puf_sector + 466
        0x00001db4:    e03f        ?.      B        0x1e36 ; del_puf_sector + 594
        0x00001db6:    0240        @.      LSLS     r0,r0,#9
        0x00001db8:    6929        )i      LDR      r1,[r5,#0x10]
        0x00001dba:    f7feffcf    ....    BL       SD_spi_read_single_blk ; 0xd5c
        0x00001dbe:    a818        ..      ADD      r0,sp,#0x60
        0x00001dc0:    7a00        .z      LDRB     r0,[r0,#8]
        0x00001dc2:    8aa9        ..      LDRH     r1,[r5,#0x14]
        0x00001dc4:    5460        `T      STRB     r0,[r4,r1]
        0x00001dc6:    a818        ..      ADD      r0,sp,#0x60
        0x00001dc8:    7a41        Az      LDRB     r1,[r0,#9]
        0x00001dca:    8aa8        ..      LDRH     r0,[r5,#0x14]
        0x00001dcc:    1c40        @.      ADDS     r0,r0,#1
        0x00001dce:    5421        !T      STRB     r1,[r4,r0]
        0x00001dd0:    a818        ..      ADD      r0,sp,#0x60
        0x00001dd2:    7a81        .z      LDRB     r1,[r0,#0xa]
        0x00001dd4:    8aa8        ..      LDRH     r0,[r5,#0x14]
        0x00001dd6:    1c80        ..      ADDS     r0,r0,#2
        0x00001dd8:    5421        !T      STRB     r1,[r4,r0]
        0x00001dda:    69a9        .i      LDR      r1,[r5,#0x18]
        0x00001ddc:    981b        ..      LDR      r0,[sp,#0x6c]
        0x00001dde:    30ff        .0      ADDS     r0,r0,#0xff
        0x00001de0:    30ff        .0      ADDS     r0,r0,#0xff
        0x00001de2:    3002        .0      ADDS     r0,#2
        0x00001de4:    1a08        ..      SUBS     r0,r1,r0
        0x00001de6:    61a8        .a      STR      r0,[r5,#0x18]
        0x00001de8:    7e29        )~      LDRB     r1,[r5,#0x18]
        0x00001dea:    8aa8        ..      LDRH     r0,[r5,#0x14]
        0x00001dec:    3014        .0      ADDS     r0,r0,#0x14
        0x00001dee:    5421        !T      STRB     r1,[r4,r0]
        0x00001df0:    8b28        (.      LDRH     r0,[r5,#0x18]
        0x00001df2:    0400        ..      LSLS     r0,r0,#16
        0x00001df4:    0e01        ..      LSRS     r1,r0,#24
        0x00001df6:    8aa8        ..      LDRH     r0,[r5,#0x14]
        0x00001df8:    3015        .0      ADDS     r0,r0,#0x15
        0x00001dfa:    5421        !T      STRB     r1,[r4,r0]
        0x00001dfc:    69a8        .i      LDR      r0,[r5,#0x18]
        0x00001dfe:    0200        ..      LSLS     r0,r0,#8
        0x00001e00:    0e01        ..      LSRS     r1,r0,#24
        0x00001e02:    8aa8        ..      LDRH     r0,[r5,#0x14]
        0x00001e04:    3016        .0      ADDS     r0,r0,#0x16
        0x00001e06:    5421        !T      STRB     r1,[r4,r0]
        0x00001e08:    69a8        .i      LDR      r0,[r5,#0x18]
        0x00001e0a:    0e01        ..      LSRS     r1,r0,#24
        0x00001e0c:    8aa8        ..      LDRH     r0,[r5,#0x14]
        0x00001e0e:    3017        .0      ADDS     r0,r0,#0x17
        0x00001e10:    5421        !T      STRB     r1,[r4,r0]
        0x00001e12:    4622        "F      MOV      r2,r4
        0x00001e14:    2001        .       MOVS     r0,#1
        0x00001e16:    0240        @.      LSLS     r0,r0,#9
        0x00001e18:    6929        )i      LDR      r1,[r5,#0x10]
        0x00001e1a:    f7fff835    ..5.    BL       SD_spi_write_single_blk ; 0xe88
        0x00001e1e:    e00f        ..      B        0x1e40 ; del_puf_sector + 604
        0x00001e20:    a034        4.      ADR      r0,{pc}+0xd4 ; 0x1ef4
        0x00001e22:    f7fff8fd    ....    BL       __0printf$5 ; 0x1020
        0x00001e26:    2000        .       MOVS     r0,#0
        0x00001e28:    b025        %.      ADD      sp,sp,#0x94
        0x00001e2a:    bdf0        ..      POP      {r4-r7,pc}
        0x00001e2c:    a036        6.      ADR      r0,{pc}+0xdc ; 0x1f08
        0x00001e2e:    f7fff8f7    ....    BL       __0printf$5 ; 0x1020
        0x00001e32:    2000        .       MOVS     r0,#0
        0x00001e34:    e7f8        ..      B        0x1e28 ; del_puf_sector + 580
        0x00001e36:    a03a        :.      ADR      r0,{pc}+0xea ; 0x1f20
        0x00001e38:    f7fff8f2    ....    BL       __0printf$5 ; 0x1020
        0x00001e3c:    2000        .       MOVS     r0,#0
        0x00001e3e:    e7f3        ..      B        0x1e28 ; del_puf_sector + 580
        0x00001e40:    2001        .       MOVS     r0,#1
        0x00001e42:    e7f1        ..      B        0x1e28 ; del_puf_sector + 580
    $d
        0x00001e44:    7269460a    .Fir    DCD    1919501834
        0x00001e48:    43207473    st C    DCD    1126200435
        0x00001e4c:    7473756c    lust    DCD    1953723756
        0x00001e50:    53207265    er S    DCD    1394635365
        0x00001e54:    6f746365    ecto    DCD    1869898597
        0x00001e58:    25203a72    r: %    DCD    622869106
        0x00001e5c:    00000a78    x...    DCD    2680
        0x00001e60:    656c6946    File    DCD    1701603654
        0x00001e64:    6d614e20     Nam    DCD    1835093536
        0x00001e68:    65535f65    e_Se    DCD    1699962725
        0x00001e6c:    726f7463    ctor    DCD    1919906915
        0x00001e70:    25203a20     : %    DCD    622869024
        0x00001e74:    0a78382e    .8x.    DCD    175650862
        0x00001e78:    00000000    ....    DCD    0
        0x00001e7c:    656c6946    File    DCD    1701603654
        0x00001e80:    74784520     Ext    DCD    1954039072
        0x00001e84:    695f6e65    en_i    DCD    1767861861
        0x00001e88:    7865646e    ndex    DCD    2019910766
        0x00001e8c:    25203a20     : %    DCD    622869024
        0x00001e90:    0a78382e    .8x.    DCD    175650862
        0x00001e94:    00000000    ....    DCD    0
        0x00001e98:    656c6946    File    DCD    1701603654
        0x00001e9c:    72694620     Fir    DCD    1919501856
        0x00001ea0:    435f7473    st_C    DCD    1130329203
        0x00001ea4:    7473756c    lust    DCD    1953723756
        0x00001ea8:    6e5f7265    er_n    DCD    1851748965
        0x00001eac:    65626d75    umbe    DCD    1700949365
        0x00001eb0:    203a2072    r :     DCD    540680306
        0x00001eb4:    78382e25    %.8x    DCD    2016947749
        0x00001eb8:    0000000a    ....    DCD    10
        0x00001ebc:    20646e45    End     DCD    543452741
        0x00001ec0:    74636553    Sect    DCD    1952671059
        0x00001ec4:    3a20726f    or :    DCD    975204975
        0x00001ec8:    0a642520     %d.    DCD    174335264
        0x00001ecc:    00000000    ....    DCD    0
        0x00001ed0:    74636573    sect    DCD    1952671091
        0x00001ed4:    5f73726f    ors_    DCD    1601401455
        0x00001ed8:    5f726570    per_    DCD    1601332592
        0x00001edc:    73756c63    clus    DCD    1937075299
        0x00001ee0:    20726574    ter     DCD    544367988
        0x00001ee4:    6425203a    : %d    DCD    1680154682
        0x00001ee8:    0000000a    ....    DCD    10
        0x00001eec:    0fffffff    ....    DCD    268435455
        0x00001ef0:    000001ff    ....    DCD    511
        0x00001ef4:    2059454b    KEY     DCD    542721355
        0x00001ef8:    20544f4e    NOT     DCD    542396238
        0x00001efc:    4354414d    MATC    DCD    1129595213
        0x00001f00:    0a444548    HED.    DCD    172246344
        0x00001f04:    00000000    ....    DCD    0
        0x00001f08:    72726f43    Corr    DCD    1920102211
        0x00001f0c:    65747075    upte    DCD    1702129781
        0x00001f10:    55502064    d PU    DCD    1431314532
        0x00001f14:    69462046    F Fi    DCD    1766203462
        0x00001f18:    0a20656c    le .    DCD    169895276
        0x00001f1c:    00000000    ....    DCD    0
        0x00001f20:    5f646e65    end_    DCD    1600417381
        0x00001f24:    74636573    sect    DCD    1952671091
        0x00001f28:    3e20726f    or >    DCD    1042313839
        0x00001f2c:    6573203d    = se    DCD    1702043709
        0x00001f30:    726f7463    ctor    DCD    1919906915
        0x00001f34:    65705f73    s_pe    DCD    1701863283
        0x00001f38:    6c635f72    r_cl    DCD    1818451826
        0x00001f3c:    65747375    uste    DCD    1702130549
        0x00001f40:    00000a72    r...    DCD    2674
    $t
    i.delay
    delay
        0x00001f44:    2100        .!      MOVS     r1,#0
        0x00001f46:    e000        ..      B        0x1f4a ; delay + 6
        0x00001f48:    1c49        I.      ADDS     r1,r1,#1
        0x00001f4a:    4281        .B      CMP      r1,r0
        0x00001f4c:    d3fc        ..      BCC      0x1f48 ; delay + 4
        0x00001f4e:    4770        pG      BX       lr
    i.des_check_input_ready
    des_check_input_ready
        0x00001f50:    b510        ..      PUSH     {r4,lr}
        0x00001f52:    247d        }$      MOVS     r4,#0x7d
        0x00001f54:    00e4        ..      LSLS     r4,r4,#3
        0x00001f56:    e008        ..      B        0x1f6a ; des_check_input_ready + 26
        0x00001f58:    2020                MOVS     r0,#0x20
        0x00001f5a:    f000f81f    ....    BL       des_read_reg ; 0x1f9c
        0x00001f5e:    2110        .!      MOVS     r1,#0x10
        0x00001f60:    4008        .@      ANDS     r0,r0,r1
        0x00001f62:    2800        .(      CMP      r0,#0
        0x00001f64:    d001        ..      BEQ      0x1f6a ; des_check_input_ready + 26
        0x00001f66:    2000        .       MOVS     r0,#0
        0x00001f68:    bd10        ..      POP      {r4,pc}
        0x00001f6a:    4620         F      MOV      r0,r4
        0x00001f6c:    1e64        d.      SUBS     r4,r4,#1
        0x00001f6e:    2800        .(      CMP      r0,#0
        0x00001f70:    d1f2        ..      BNE      0x1f58 ; des_check_input_ready + 8
        0x00001f72:    1e40        @.      SUBS     r0,r0,#1
        0x00001f74:    e7f8        ..      B        0x1f68 ; des_check_input_ready + 24
    i.des_check_output_ready
    des_check_output_ready
        0x00001f76:    b510        ..      PUSH     {r4,lr}
        0x00001f78:    247d        }$      MOVS     r4,#0x7d
        0x00001f7a:    00e4        ..      LSLS     r4,r4,#3
        0x00001f7c:    e008        ..      B        0x1f90 ; des_check_output_ready + 26
        0x00001f7e:    2020                MOVS     r0,#0x20
        0x00001f80:    f000f80c    ....    BL       des_read_reg ; 0x1f9c
        0x00001f84:    07c0        ..      LSLS     r0,r0,#31
        0x00001f86:    0fc0        ..      LSRS     r0,r0,#31
        0x00001f88:    2800        .(      CMP      r0,#0
        0x00001f8a:    d001        ..      BEQ      0x1f90 ; des_check_output_ready + 26
        0x00001f8c:    2000        .       MOVS     r0,#0
        0x00001f8e:    bd10        ..      POP      {r4,pc}
        0x00001f90:    4620         F      MOV      r0,r4
        0x00001f92:    1e64        d.      SUBS     r4,r4,#1
        0x00001f94:    2800        .(      CMP      r0,#0
        0x00001f96:    d1f2        ..      BNE      0x1f7e ; des_check_output_ready + 8
        0x00001f98:    1e40        @.      SUBS     r0,r0,#1
        0x00001f9a:    e7f8        ..      B        0x1f8e ; des_check_output_ready + 24
    i.des_read_reg
    des_read_reg
        0x00001f9c:    4601        .F      MOV      r1,r0
        0x00001f9e:    4802        .H      LDR      r0,[pc,#8] ; [0x1fa8] = 0x40090000
        0x00001fa0:    1808        ..      ADDS     r0,r1,r0
        0x00001fa2:    6800        .h      LDR      r0,[r0,#0]
        0x00001fa4:    4770        pG      BX       lr
    $d
        0x00001fa6:    0000        ..      DCW    0
        0x00001fa8:    40090000    ...@    DCD    1074331648
    $t
    i.des_set_bits
    des_set_bits
        0x00001fac:    4a03        .J      LDR      r2,[pc,#12] ; [0x1fbc] = 0x40090000
        0x00001fae:    1882        ..      ADDS     r2,r0,r2
        0x00001fb0:    6812        .h      LDR      r2,[r2,#0]
        0x00001fb2:    430a        .C      ORRS     r2,r2,r1
        0x00001fb4:    4b01        .K      LDR      r3,[pc,#4] ; [0x1fbc] = 0x40090000
        0x00001fb6:    18c3        ..      ADDS     r3,r0,r3
        0x00001fb8:    601a        .`      STR      r2,[r3,#0]
        0x00001fba:    4770        pG      BX       lr
    $d
        0x00001fbc:    40090000    ...@    DCD    1074331648
    $t
    i.des_write_reg
    des_write_reg
        0x00001fc0:    4a01        .J      LDR      r2,[pc,#4] ; [0x1fc8] = 0x40090000
        0x00001fc2:    1882        ..      ADDS     r2,r0,r2
        0x00001fc4:    6011        .`      STR      r1,[r2,#0]
        0x00001fc6:    4770        pG      BX       lr
    $d
        0x00001fc8:    40090000    ...@    DCD    1074331648
    $t
    i.encrypt_file_list
    encrypt_file_list
        0x00001fcc:    b510        ..      PUSH     {r4,lr}
        0x00001fce:    4601        .F      MOV      r1,r0
        0x00001fd0:    4608        .F      MOV      r0,r1
        0x00001fd2:    460a        .F      MOV      r2,r1
        0x00001fd4:    bf00        ..      NOP      
        0x00001fd6:    7a4c        Lz      LDRB     r4,[r1,#9]
        0x00001fd8:    2c50        P,      CMP      r4,#0x50
        0x00001fda:    d10f        ..      BNE      0x1ffc ; encrypt_file_list + 48
        0x00001fdc:    7a8c        .z      LDRB     r4,[r1,#0xa]
        0x00001fde:    2c55        U,      CMP      r4,#0x55
        0x00001fe0:    d10c        ..      BNE      0x1ffc ; encrypt_file_list + 48
        0x00001fe2:    7acc        .z      LDRB     r4,[r1,#0xb]
        0x00001fe4:    2c46        F,      CMP      r4,#0x46
        0x00001fe6:    d109        ..      BNE      0x1ffc ; encrypt_file_list + 48
        0x00001fe8:    4288        .B      CMP      r0,r1
        0x00001fea:    d102        ..      BNE      0x1ff2 ; encrypt_file_list + 38
        0x00001fec:    6a08        .j      LDR      r0,[r1,#0x20]
        0x00001fee:    460a        .F      MOV      r2,r1
        0x00001ff0:    e005        ..      B        0x1ffe ; encrypt_file_list + 50
        0x00001ff2:    6a0c        .j      LDR      r4,[r1,#0x20]
        0x00001ff4:    6214        .b      STR      r4,[r2,#0x20]
        0x00001ff6:    6a0b        .j      LDR      r3,[r1,#0x20]
        0x00001ff8:    625a        Zb      STR      r2,[r3,#0x24]
        0x00001ffa:    e000        ..      B        0x1ffe ; encrypt_file_list + 50
        0x00001ffc:    460a        .F      MOV      r2,r1
        0x00001ffe:    6a09        .j      LDR      r1,[r1,#0x20]
        0x00002000:    2900        .)      CMP      r1,#0
        0x00002002:    d1e8        ..      BNE      0x1fd6 ; encrypt_file_list + 10
        0x00002004:    bd10        ..      POP      {r4,pc}
        0x00002006:    0000        ..      MOVS     r0,r0
    i.fgetc
    fgetc
        0x00002008:    b570        p.      PUSH     {r4-r6,lr}
        0x0000200a:    4605        .F      MOV      r5,r0
        0x0000200c:    bf00        ..      NOP      
        0x0000200e:    4806        .H      LDR      r0,[pc,#24] ; [0x2028] = 0x40010000
        0x00002010:    f7fffc89    ....    BL       apUART_Check_RXFIFO_EMPTY ; 0x1926
        0x00002014:    2801        .(      CMP      r0,#1
        0x00002016:    d0fa        ..      BEQ      0x200e ; fgetc + 6
        0x00002018:    f7feffa6    ....    BL       SER_GetChar ; 0xf68
        0x0000201c:    b2c4        ..      UXTB     r4,r0
        0x0000201e:    4620         F      MOV      r0,r4
        0x00002020:    f7feffaa    ....    BL       SER_PutChar ; 0xf78
        0x00002024:    4620         F      MOV      r0,r4
        0x00002026:    bd70        p.      POP      {r4-r6,pc}
    $d
        0x00002028:    40010000    ...@    DCD    1073807360
    $t
    i.file_extract_FAT32
    file_extract_FAT32
        0x0000202c:    b5f7        ..      PUSH     {r0-r2,r4-r7,lr}
        0x0000202e:    b084        ..      SUB      sp,sp,#0x10
        0x00002030:    4605        .F      MOV      r5,r0
        0x00002032:    460c        .F      MOV      r4,r1
        0x00002034:    2000        .       MOVS     r0,#0
        0x00002036:    9003        ..      STR      r0,[sp,#0xc]
        0x00002038:    9002        ..      STR      r0,[sp,#8]
        0x0000203a:    4627        'F      MOV      r7,r4
        0x0000203c:    7ae2        .z      LDRB     r2,[r4,#0xb]
        0x0000203e:    7b21        !{      LDRB     r1,[r4,#0xc]
        0x00002040:    a02a        *.      ADR      r0,{pc}+0xac ; 0x20ec
        0x00002042:    f7feffed    ....    BL       __0printf$5 ; 0x1020
        0x00002046:    340d        .4      ADDS     r4,r4,#0xd
        0x00002048:    7820         x      LDRB     r0,[r4,#0]
        0x0000204a:    7228        (r      STRB     r0,[r5,#8]
        0x0000204c:    1c64        d.      ADDS     r4,r4,#1
        0x0000204e:    2600        .&      MOVS     r6,#0
        0x00002050:    e008        ..      B        0x2064 ; file_extract_FAT32 + 56
        0x00002052:    7820         x      LDRB     r0,[r4,#0]
        0x00002054:    1c64        d.      ADDS     r4,r4,#1
        0x00002056:    00f1        ..      LSLS     r1,r6,#3
        0x00002058:    4088        .@      LSLS     r0,r0,r1
        0x0000205a:    9903        ..      LDR      r1,[sp,#0xc]
        0x0000205c:    4308        .C      ORRS     r0,r0,r1
        0x0000205e:    9003        ..      STR      r0,[sp,#0xc]
        0x00002060:    1c70        p.      ADDS     r0,r6,#1
        0x00002062:    b2c6        ..      UXTB     r6,r0
        0x00002064:    2e02        ..      CMP      r6,#2
        0x00002066:    dbf4        ..      BLT      0x2052 ; file_extract_FAT32 + 38
        0x00002068:    7820         x      LDRB     r0,[r4,#0]
        0x0000206a:    1c64        d.      ADDS     r4,r4,#1
        0x0000206c:    9001        ..      STR      r0,[sp,#4]
        0x0000206e:    463c        <F      MOV      r4,r7
        0x00002070:    3424        $4      ADDS     r4,r4,#0x24
        0x00002072:    2600        .&      MOVS     r6,#0
        0x00002074:    e008        ..      B        0x2088 ; file_extract_FAT32 + 92
        0x00002076:    7820         x      LDRB     r0,[r4,#0]
        0x00002078:    1c64        d.      ADDS     r4,r4,#1
        0x0000207a:    00f1        ..      LSLS     r1,r6,#3
        0x0000207c:    4088        .@      LSLS     r0,r0,r1
        0x0000207e:    9902        ..      LDR      r1,[sp,#8]
        0x00002080:    4308        .C      ORRS     r0,r0,r1
        0x00002082:    9002        ..      STR      r0,[sp,#8]
        0x00002084:    1c70        p.      ADDS     r0,r6,#1
        0x00002086:    b2c6        ..      UXTB     r6,r0
        0x00002088:    2e04        ..      CMP      r6,#4
        0x0000208a:    dbf4        ..      BLT      0x2076 ; file_extract_FAT32 + 74
        0x0000208c:    463c        <F      MOV      r4,r7
        0x0000208e:    342c        ,4      ADDS     r4,r4,#0x2c
        0x00002090:    7820         x      LDRB     r0,[r4,#0]
        0x00002092:    1c64        d.      ADDS     r4,r4,#1
        0x00002094:    60e8        .`      STR      r0,[r5,#0xc]
        0x00002096:    9903        ..      LDR      r1,[sp,#0xc]
        0x00002098:    9806        ..      LDR      r0,[sp,#0x18]
        0x0000209a:    1840        @.      ADDS     r0,r0,r1
        0x0000209c:    6028        (`      STR      r0,[r5,#0]
        0x0000209e:    682a        *h      LDR      r2,[r5,#0]
        0x000020a0:    9902        ..      LDR      r1,[sp,#8]
        0x000020a2:    9801        ..      LDR      r0,[sp,#4]
        0x000020a4:    4348        HC      MULS     r0,r1,r0
        0x000020a6:    1810        ..      ADDS     r0,r2,r0
        0x000020a8:    6068        h`      STR      r0,[r5,#4]
        0x000020aa:    9802        ..      LDR      r0,[sp,#8]
        0x000020ac:    6128        (a      STR      r0,[r5,#0x10]
        0x000020ae:    7a29        )z      LDRB     r1,[r5,#8]
        0x000020b0:    a018        ..      ADR      r0,{pc}+0x64 ; 0x2114
        0x000020b2:    f7feffb5    ....    BL       __0printf$5 ; 0x1020
        0x000020b6:    a01f        ..      ADR      r0,{pc}+0x7e ; 0x2134
        0x000020b8:    9903        ..      LDR      r1,[sp,#0xc]
        0x000020ba:    f7feffb1    ....    BL       __0printf$5 ; 0x1020
        0x000020be:    a027        '.      ADR      r0,{pc}+0x9e ; 0x215c
        0x000020c0:    9901        ..      LDR      r1,[sp,#4]
        0x000020c2:    f7feffad    ....    BL       __0printf$5 ; 0x1020
        0x000020c6:    a02c        ,.      ADR      r0,{pc}+0xb2 ; 0x2178
        0x000020c8:    6929        )i      LDR      r1,[r5,#0x10]
        0x000020ca:    f7feffa9    ....    BL       __0printf$5 ; 0x1020
        0x000020ce:    a031        1.      ADR      r0,{pc}+0xc6 ; 0x2194
        0x000020d0:    68e9        .h      LDR      r1,[r5,#0xc]
        0x000020d2:    f7feffa5    ....    BL       __0printf$5 ; 0x1020
        0x000020d6:    a039        9.      ADR      r0,{pc}+0xe6 ; 0x21bc
        0x000020d8:    6829        )h      LDR      r1,[r5,#0]
        0x000020da:    f7feffa1    ....    BL       __0printf$5 ; 0x1020
        0x000020de:    a03e        >.      ADR      r0,{pc}+0xfa ; 0x21d8
        0x000020e0:    6869        ih      LDR      r1,[r5,#4]
        0x000020e2:    f7feff9d    ....    BL       __0printf$5 ; 0x1020
        0x000020e6:    b007        ..      ADD      sp,sp,#0x1c
        0x000020e8:    bdf0        ..      POP      {r4-r7,pc}
    $d
        0x000020ea:    0000        ..      DCW    0
        0x000020ec:    65747942    Byte    DCD    1702132034
        0x000020f0:    65502073    s Pe    DCD    1699750003
        0x000020f4:    65532072    r Se    DCD    1699946610
        0x000020f8:    726f7463    ctor    DCD    1919906915
        0x000020fc:    09090909    ....    DCD    151587081
        0x00002100:    3d090909    ...=    DCD    1024002313
        0x00002104:    78322e25    %.2x    DCD    2016554533
        0x00002108:    78322e25    %.2x    DCD    2016554533
        0x0000210c:    09090909    ....    DCD    151587081
        0x00002110:    0000000a    ....    DCD    10
        0x00002114:    74636553    Sect    DCD    1952671059
        0x00002118:    2073726f    ors     DCD    544436847
        0x0000211c:    20726550    Per     DCD    544367952
        0x00002120:    73756c43    Clus    DCD    1937075267
        0x00002124:    09726574    ter.    DCD    158492020
        0x00002128:    64253d09    .=%d    DCD    1680162057
        0x0000212c:    09090909    ....    DCD    151587081
        0x00002130:    0000000a    ....    DCD    10
        0x00002134:    626d754e    Numb    DCD    1651340622
        0x00002138:    6f207265    er o    DCD    1864397413
        0x0000213c:    65522066    f Re    DCD    1699881062
        0x00002140:    76726573    serv    DCD    1987208563
        0x00002144:    53206465    ed S    DCD    1394631781
        0x00002148:    6f746365    ecto    DCD    1869898597
        0x0000214c:    09097372    rs..    DCD    151614322
        0x00002150:    0964253d    =%d.    DCD    157558077
        0x00002154:    0a090909    ....    DCD    168364297
        0x00002158:    00000000    ....    DCD    0
        0x0000215c:    626d754e    Numb    DCD    1651340622
        0x00002160:    6f207265    er o    DCD    1864397413
        0x00002164:    41462066    f FA    DCD    1095114854
        0x00002168:    09097354    Ts..    DCD    151614292
        0x0000216c:    0964253d    =%d.    DCD    157558077
        0x00002170:    0a090909    ....    DCD    168364297
        0x00002174:    00000000    ....    DCD    0
        0x00002178:    74636553    Sect    DCD    1952671059
        0x0000217c:    2073726f    ors     DCD    544436847
        0x00002180:    20726550    Per     DCD    544367952
        0x00002184:    09544146    FAT.    DCD    156516678
        0x00002188:    64253d09    .=%d    DCD    1680162057
        0x0000218c:    09090909    ....    DCD    151587081
        0x00002190:    0000000a    ....    DCD    10
        0x00002194:    746f6f52    Root    DCD    1953460050
        0x00002198:    72694420     Dir    DCD    1919501344
        0x0000219c:    6f746365    ecto    DCD    1869898597
        0x000021a0:    46207972    ry F    DCD    1176533362
        0x000021a4:    74737269    irst    DCD    1953722985
        0x000021a8:    756c4320     Clu    DCD    1970029344
        0x000021ac:    72657473    ster    DCD    1919251571
        0x000021b0:    253d0909    ..=%    DCD    624757001
        0x000021b4:    09090964    d...    DCD    151587172
        0x000021b8:    00000a09    ....    DCD    2569
        0x000021bc:    20544146    FAT     DCD    542392646
        0x000021c0:    49474542    BEGI    DCD    1229407554
        0x000021c4:    424c204e    N LB    DCD    1112285262
        0x000021c8:    3d090941    A..=    DCD    1024002369
        0x000021cc:    78382e25    %.8x    DCD    2016947749
        0x000021d0:    09090909    ....    DCD    151587081
        0x000021d4:    0000000a    ....    DCD    10
        0x000021d8:    73756c43    Clus    DCD    1937075267
        0x000021dc:    20726574    ter     DCD    544367988
        0x000021e0:    49474542    BEGI    DCD    1229407554
        0x000021e4:    424c204e    N LB    DCD    1112285262
        0x000021e8:    3d090941    A..=    DCD    1024002369
        0x000021ec:    78382e25    %.8x    DCD    2016947749
        0x000021f0:    09090909    ....    DCD    151587081
        0x000021f4:    0000000a    ....    DCD    10
    $t
    i.file_extract_checkfile
    file_extract_checkfile
        0x000021f8:    4603        .F      MOV      r3,r0
        0x000021fa:    7818        .x      LDRB     r0,[r3,#0]
        0x000021fc:    2800        .(      CMP      r0,#0
        0x000021fe:    d002        ..      BEQ      0x2206 ; file_extract_checkfile + 14
        0x00002200:    7818        .x      LDRB     r0,[r3,#0]
        0x00002202:    28e5        .(      CMP      r0,#0xe5
        0x00002204:    d101        ..      BNE      0x220a ; file_extract_checkfile + 18
        0x00002206:    2000        .       MOVS     r0,#0
        0x00002208:    4770        pG      BX       lr
        0x0000220a:    330b        .3      ADDS     r3,r3,#0xb
        0x0000220c:    7818        .x      LDRB     r0,[r3,#0]
        0x0000220e:    2820         (      CMP      r0,#0x20
        0x00002210:    d101        ..      BNE      0x2216 ; file_extract_checkfile + 30
        0x00002212:    2001        .       MOVS     r0,#1
        0x00002214:    e7f8        ..      B        0x2208 ; file_extract_checkfile + 16
        0x00002216:    2000        .       MOVS     r0,#0
        0x00002218:    e7f6        ..      B        0x2208 ; file_extract_checkfile + 16
        0x0000221a:    0000        ..      MOVS     r0,r0
    i.file_extract_directory
    file_extract_directory
        0x0000221c:    b5ff        ..      PUSH     {r0-r7,lr}
        0x0000221e:    b08b        ..      SUB      sp,sp,#0x2c
        0x00002220:    460d        .F      MOV      r5,r1
        0x00002222:    4617        .F      MOV      r7,r2
        0x00002224:    9e14        ..      LDR      r6,[sp,#0x50]
        0x00002226:    9c15        ..      LDR      r4,[sp,#0x54]
        0x00002228:    2000        .       MOVS     r0,#0
        0x0000222a:    900a        ..      STR      r0,[sp,#0x28]
        0x0000222c:    e02b        +.      B        0x2286 ; file_extract_directory + 106
        0x0000222e:    4639        9F      MOV      r1,r7
        0x00002230:    4628        (F      MOV      r0,r5
        0x00002232:    9a0e        ..      LDR      r2,[sp,#0x38]
        0x00002234:    f7ffffe0    ....    BL       file_extract_checkfile ; 0x21f8
        0x00002238:    2800        .(      CMP      r0,#0
        0x0000223a:    d01f        ..      BEQ      0x227c ; file_extract_directory + 96
        0x0000223c:    990a        ..      LDR      r1,[sp,#0x28]
        0x0000223e:    980e        ..      LDR      r0,[sp,#0x38]
        0x00002240:    463b        ;F      MOV      r3,r7
        0x00002242:    462a        *F      MOV      r2,r5
        0x00002244:    9101        ..      STR      r1,[sp,#4]
        0x00002246:    9000        ..      STR      r0,[sp,#0]
        0x00002248:    a802        ..      ADD      r0,sp,#8
        0x0000224a:    990b        ..      LDR      r1,[sp,#0x2c]
        0x0000224c:    f000f826    ..&.    BL       file_extract_file ; 0x229c
        0x00002250:    2220         "      MOVS     r2,#0x20
        0x00002252:    a902        ..      ADD      r1,sp,#8
        0x00002254:    4630        0F      MOV      r0,r6
        0x00002256:    f7fdff76    ..v.    BL       __aeabi_memcpy ; 0x146
        0x0000225a:    6820         h      LDR      r0,[r4,#0]
        0x0000225c:    1c40        @.      ADDS     r0,r0,#1
        0x0000225e:    2128        (!      MOVS     r1,#0x28
        0x00002260:    4348        HC      MULS     r0,r1,r0
        0x00002262:    490d        .I      LDR      r1,[pc,#52] ; [0x2298] = 0x20000094
        0x00002264:    1840        @.      ADDS     r0,r0,r1
        0x00002266:    6230        0b      STR      r0,[r6,#0x20]
        0x00002268:    6a36        6j      LDR      r6,[r6,#0x20]
        0x0000226a:    2128        (!      MOVS     r1,#0x28
        0x0000226c:    6820         h      LDR      r0,[r4,#0]
        0x0000226e:    4348        HC      MULS     r0,r1,r0
        0x00002270:    4909        .I      LDR      r1,[pc,#36] ; [0x2298] = 0x20000094
        0x00002272:    1840        @.      ADDS     r0,r0,r1
        0x00002274:    6270        pb      STR      r0,[r6,#0x24]
        0x00002276:    6820         h      LDR      r0,[r4,#0]
        0x00002278:    1c40        @.      ADDS     r0,r0,#1
        0x0000227a:    6020         `      STR      r0,[r4,#0]
        0x0000227c:    3520         5      ADDS     r5,r5,#0x20
        0x0000227e:    980a        ..      LDR      r0,[sp,#0x28]
        0x00002280:    1c40        @.      ADDS     r0,r0,#1
        0x00002282:    b2c0        ..      UXTB     r0,r0
        0x00002284:    900a        ..      STR      r0,[sp,#0x28]
        0x00002286:    980a        ..      LDR      r0,[sp,#0x28]
        0x00002288:    2810        .(      CMP      r0,#0x10
        0x0000228a:    da02        ..      BGE      0x2292 ; file_extract_directory + 118
        0x0000228c:    6820         h      LDR      r0,[r4,#0]
        0x0000228e:    2880        .(      CMP      r0,#0x80
        0x00002290:    d3cd        ..      BCC      0x222e ; file_extract_directory + 18
        0x00002292:    4630        0F      MOV      r0,r6
        0x00002294:    b00f        ..      ADD      sp,sp,#0x3c
        0x00002296:    bdf0        ..      POP      {r4-r7,pc}
    $d
        0x00002298:    20000094    ...     DCD    536871060
    $t
    i.file_extract_file
    file_extract_file
        0x0000229c:    b5ff        ..      PUSH     {r0-r7,lr}
        0x0000229e:    b08b        ..      SUB      sp,sp,#0x2c
        0x000022a0:    4615        .F      MOV      r5,r2
        0x000022a2:    2700        .'      MOVS     r7,#0
        0x000022a4:    2000        .       MOVS     r0,#0
        0x000022a6:    9002        ..      STR      r0,[sp,#8]
        0x000022a8:    9001        ..      STR      r0,[sp,#4]
        0x000022aa:    9000        ..      STR      r0,[sp,#0]
        0x000022ac:    462e        .F      MOV      r6,r5
        0x000022ae:    350b        .5      ADDS     r5,r5,#0xb
        0x000022b0:    4635        5F      MOV      r5,r6
        0x000022b2:    2400        .$      MOVS     r4,#0
        0x000022b4:    e005        ..      B        0x22c2 ; file_extract_file + 38
        0x000022b6:    7828        (x      LDRB     r0,[r5,#0]
        0x000022b8:    a903        ..      ADD      r1,sp,#0xc
        0x000022ba:    5508        .U      STRB     r0,[r1,r4]
        0x000022bc:    1c60        `.      ADDS     r0,r4,#1
        0x000022be:    b2c4        ..      UXTB     r4,r0
        0x000022c0:    1c6d        m.      ADDS     r5,r5,#1
        0x000022c2:    2c08        .,      CMP      r4,#8
        0x000022c4:    dbf7        ..      BLT      0x22b6 ; file_extract_file + 26
        0x000022c6:    2000        .       MOVS     r0,#0
        0x000022c8:    4669        iF      MOV      r1,sp
        0x000022ca:    7508        .u      STRB     r0,[r1,#0x14]
        0x000022cc:    2400        .$      MOVS     r4,#0
        0x000022ce:    e006        ..      B        0x22de ; file_extract_file + 66
        0x000022d0:    7829        )x      LDRB     r1,[r5,#0]
        0x000022d2:    a805        ..      ADD      r0,sp,#0x14
        0x000022d4:    3001        .0      ADDS     r0,#1
        0x000022d6:    5501        .U      STRB     r1,[r0,r4]
        0x000022d8:    1c60        `.      ADDS     r0,r4,#1
        0x000022da:    b2c4        ..      UXTB     r4,r0
        0x000022dc:    1c6d        m.      ADDS     r5,r5,#1
        0x000022de:    2c03        .,      CMP      r4,#3
        0x000022e0:    dbf6        ..      BLT      0x22d0 ; file_extract_file + 52
        0x000022e2:    2100        .!      MOVS     r1,#0
        0x000022e4:    a803        ..      ADD      r0,sp,#0xc
        0x000022e6:    7301        .s      STRB     r1,[r0,#0xc]
        0x000022e8:    4635        5F      MOV      r5,r6
        0x000022ea:    3514        .5      ADDS     r5,r5,#0x14
        0x000022ec:    2400        .$      MOVS     r4,#0
        0x000022ee:    e009        ..      B        0x2304 ; file_extract_file + 104
        0x000022f0:    7828        (x      LDRB     r0,[r5,#0]
        0x000022f2:    1c6d        m.      ADDS     r5,r5,#1
        0x000022f4:    00e1        ..      LSLS     r1,r4,#3
        0x000022f6:    4088        .@      LSLS     r0,r0,r1
        0x000022f8:    9901        ..      LDR      r1,[sp,#4]
        0x000022fa:    4308        .C      ORRS     r0,r0,r1
        0x000022fc:    b280        ..      UXTH     r0,r0
        0x000022fe:    9001        ..      STR      r0,[sp,#4]
        0x00002300:    1c60        `.      ADDS     r0,r4,#1
        0x00002302:    b2c4        ..      UXTB     r4,r0
        0x00002304:    2c02        .,      CMP      r4,#2
        0x00002306:    dbf3        ..      BLT      0x22f0 ; file_extract_file + 84
        0x00002308:    4635        5F      MOV      r5,r6
        0x0000230a:    351a        .5      ADDS     r5,r5,#0x1a
        0x0000230c:    2400        .$      MOVS     r4,#0
        0x0000230e:    e009        ..      B        0x2324 ; file_extract_file + 136
        0x00002310:    7828        (x      LDRB     r0,[r5,#0]
        0x00002312:    1c6d        m.      ADDS     r5,r5,#1
        0x00002314:    00e1        ..      LSLS     r1,r4,#3
        0x00002316:    4088        .@      LSLS     r0,r0,r1
        0x00002318:    9900        ..      LDR      r1,[sp,#0]
        0x0000231a:    4308        .C      ORRS     r0,r0,r1
        0x0000231c:    b280        ..      UXTH     r0,r0
        0x0000231e:    9000        ..      STR      r0,[sp,#0]
        0x00002320:    1c60        `.      ADDS     r0,r4,#1
        0x00002322:    b2c4        ..      UXTB     r4,r0
        0x00002324:    2c02        .,      CMP      r4,#2
        0x00002326:    dbf3        ..      BLT      0x2310 ; file_extract_file + 116
        0x00002328:    9801        ..      LDR      r0,[sp,#4]
        0x0000232a:    0400        ..      LSLS     r0,r0,#16
        0x0000232c:    9900        ..      LDR      r1,[sp,#0]
        0x0000232e:    4308        .C      ORRS     r0,r0,r1
        0x00002330:    9002        ..      STR      r0,[sp,#8]
        0x00002332:    980c        ..      LDR      r0,[sp,#0x30]
        0x00002334:    9007        ..      STR      r0,[sp,#0x1c]
        0x00002336:    9815        ..      LDR      r0,[sp,#0x54]
        0x00002338:    0140        @.      LSLS     r0,r0,#5
        0x0000233a:    3008        .0      ADDS     r0,r0,#8
        0x0000233c:    4669        iF      MOV      r1,sp
        0x0000233e:    8408        ..      STRH     r0,[r1,#0x20]
        0x00002340:    4635        5F      MOV      r5,r6
        0x00002342:    351c        .5      ADDS     r5,r5,#0x1c
        0x00002344:    2400        .$      MOVS     r4,#0
        0x00002346:    e006        ..      B        0x2356 ; file_extract_file + 186
        0x00002348:    7828        (x      LDRB     r0,[r5,#0]
        0x0000234a:    1c6d        m.      ADDS     r5,r5,#1
        0x0000234c:    00e1        ..      LSLS     r1,r4,#3
        0x0000234e:    4088        .@      LSLS     r0,r0,r1
        0x00002350:    4307        .C      ORRS     r7,r7,r0
        0x00002352:    1c60        `.      ADDS     r0,r4,#1
        0x00002354:    b2c4        ..      UXTB     r4,r0
        0x00002356:    2c04        .,      CMP      r4,#4
        0x00002358:    dbf6        ..      BLT      0x2348 ; file_extract_file + 172
        0x0000235a:    9709        ..      STR      r7,[sp,#0x24]
        0x0000235c:    9802        ..      LDR      r0,[sp,#8]
        0x0000235e:    900a        ..      STR      r0,[sp,#0x28]
        0x00002360:    2220         "      MOVS     r2,#0x20
        0x00002362:    a903        ..      ADD      r1,sp,#0xc
        0x00002364:    980b        ..      LDR      r0,[sp,#0x2c]
        0x00002366:    f7fdfeee    ....    BL       __aeabi_memcpy ; 0x146
        0x0000236a:    b00f        ..      ADD      sp,sp,#0x3c
        0x0000236c:    bdf0        ..      POP      {r4-r7,pc}
        0x0000236e:    0000        ..      MOVS     r0,r0
    i.file_extract_parttition_table
    file_extract_parttition_table
        0x00002370:    b570        p.      PUSH     {r4-r6,lr}
        0x00002372:    4604        .F      MOV      r4,r0
        0x00002374:    460d        .F      MOV      r5,r1
        0x00002376:    35ff        .5      ADDS     r5,r5,#0xff
        0x00002378:    35bf        .5      ADDS     r5,r5,#0xbf
        0x0000237a:    7828        (x      LDRB     r0,[r5,#0]
        0x0000237c:    7020         p      STRB     r0,[r4,#0]
        0x0000237e:    1c6d        m.      ADDS     r5,r5,#1
        0x00002380:    2600        .&      MOVS     r6,#0
        0x00002382:    e008        ..      B        0x2396 ; file_extract_parttition_table + 38
        0x00002384:    7828        (x      LDRB     r0,[r5,#0]
        0x00002386:    1c6d        m.      ADDS     r5,r5,#1
        0x00002388:    00f1        ..      LSLS     r1,r6,#3
        0x0000238a:    4088        .@      LSLS     r0,r0,r1
        0x0000238c:    6861        ah      LDR      r1,[r4,#4]
        0x0000238e:    4308        .C      ORRS     r0,r0,r1
        0x00002390:    6060        ``      STR      r0,[r4,#4]
        0x00002392:    1c70        p.      ADDS     r0,r6,#1
        0x00002394:    b2c6        ..      UXTB     r6,r0
        0x00002396:    2e03        ..      CMP      r6,#3
        0x00002398:    dbf4        ..      BLT      0x2384 ; file_extract_parttition_table + 20
        0x0000239a:    7828        (x      LDRB     r0,[r5,#0]
        0x0000239c:    7220         r      STRB     r0,[r4,#8]
        0x0000239e:    1c6d        m.      ADDS     r5,r5,#1
        0x000023a0:    2600        .&      MOVS     r6,#0
        0x000023a2:    e008        ..      B        0x23b6 ; file_extract_parttition_table + 70
        0x000023a4:    7828        (x      LDRB     r0,[r5,#0]
        0x000023a6:    1c6d        m.      ADDS     r5,r5,#1
        0x000023a8:    00f1        ..      LSLS     r1,r6,#3
        0x000023aa:    4088        .@      LSLS     r0,r0,r1
        0x000023ac:    68e1        .h      LDR      r1,[r4,#0xc]
        0x000023ae:    4308        .C      ORRS     r0,r0,r1
        0x000023b0:    60e0        .`      STR      r0,[r4,#0xc]
        0x000023b2:    1c70        p.      ADDS     r0,r6,#1
        0x000023b4:    b2c6        ..      UXTB     r6,r0
        0x000023b6:    2e03        ..      CMP      r6,#3
        0x000023b8:    dbf4        ..      BLT      0x23a4 ; file_extract_parttition_table + 52
        0x000023ba:    2600        .&      MOVS     r6,#0
        0x000023bc:    e008        ..      B        0x23d0 ; file_extract_parttition_table + 96
        0x000023be:    7828        (x      LDRB     r0,[r5,#0]
        0x000023c0:    1c6d        m.      ADDS     r5,r5,#1
        0x000023c2:    00f1        ..      LSLS     r1,r6,#3
        0x000023c4:    4088        .@      LSLS     r0,r0,r1
        0x000023c6:    6921        !i      LDR      r1,[r4,#0x10]
        0x000023c8:    4308        .C      ORRS     r0,r0,r1
        0x000023ca:    6120         a      STR      r0,[r4,#0x10]
        0x000023cc:    1c70        p.      ADDS     r0,r6,#1
        0x000023ce:    b2c6        ..      UXTB     r6,r0
        0x000023d0:    2e04        ..      CMP      r6,#4
        0x000023d2:    dbf4        ..      BLT      0x23be ; file_extract_parttition_table + 78
        0x000023d4:    2600        .&      MOVS     r6,#0
        0x000023d6:    e008        ..      B        0x23ea ; file_extract_parttition_table + 122
        0x000023d8:    7828        (x      LDRB     r0,[r5,#0]
        0x000023da:    1c6d        m.      ADDS     r5,r5,#1
        0x000023dc:    00f1        ..      LSLS     r1,r6,#3
        0x000023de:    4088        .@      LSLS     r0,r0,r1
        0x000023e0:    6961        ai      LDR      r1,[r4,#0x14]
        0x000023e2:    4308        .C      ORRS     r0,r0,r1
        0x000023e4:    6160        `a      STR      r0,[r4,#0x14]
        0x000023e6:    1c70        p.      ADDS     r0,r6,#1
        0x000023e8:    b2c6        ..      UXTB     r6,r0
        0x000023ea:    2e04        ..      CMP      r6,#4
        0x000023ec:    dbf4        ..      BLT      0x23d8 ; file_extract_parttition_table + 104
        0x000023ee:    7821        !x      LDRB     r1,[r4,#0]
        0x000023f0:    a00e        ..      ADR      r0,{pc}+0x3c ; 0x242c
        0x000023f2:    f7fefe15    ....    BL       __0printf$5 ; 0x1020
        0x000023f6:    a015        ..      ADR      r0,{pc}+0x56 ; 0x244c
        0x000023f8:    6861        ah      LDR      r1,[r4,#4]
        0x000023fa:    f7fefe11    ....    BL       __0printf$5 ; 0x1020
        0x000023fe:    7a21        !z      LDRB     r1,[r4,#8]
        0x00002400:    a01a        ..      ADR      r0,{pc}+0x6c ; 0x246c
        0x00002402:    f7fefe0d    ....    BL       __0printf$5 ; 0x1020
        0x00002406:    a021        !.      ADR      r0,{pc}+0x86 ; 0x248c
        0x00002408:    68e1        .h      LDR      r1,[r4,#0xc]
        0x0000240a:    f7fefe09    ....    BL       __0printf$5 ; 0x1020
        0x0000240e:    a026        &.      ADR      r0,{pc}+0x9a ; 0x24a8
        0x00002410:    6921        !i      LDR      r1,[r4,#0x10]
        0x00002412:    f7fefe05    ....    BL       __0printf$5 ; 0x1020
        0x00002416:    a02c        ,.      ADR      r0,{pc}+0xb2 ; 0x24c8
        0x00002418:    6961        ai      LDR      r1,[r4,#0x14]
        0x0000241a:    f7fefe01    ....    BL       __0printf$5 ; 0x1020
        0x0000241e:    6960        `i      LDR      r0,[r4,#0x14]
        0x00002420:    0d41        A.      LSRS     r1,r0,#21
        0x00002422:    a031        1.      ADR      r0,{pc}+0xc6 ; 0x24e8
        0x00002424:    f7fefdfc    ....    BL       __0printf$5 ; 0x1020
        0x00002428:    bd70        p.      POP      {r4-r6,pc}
    $d
        0x0000242a:    0000        ..      DCW    0
        0x0000242c:    74726150    Part    DCD    1953653072
        0x00002430:    6f697469    itio    DCD    1869182057
        0x00002434:    2031206e    n 1     DCD    540090478
        0x00002438:    746f6f42    Boot    DCD    1953460034
        0x0000243c:    67616c46    Flag    DCD    1734437958
        0x00002440:    25203d20     = %    DCD    622869792
        0x00002444:    0a78322e    .2x.    DCD    175649326
        0x00002448:    00000000    ....    DCD    0
        0x0000244c:    74726150    Part    DCD    1953653072
        0x00002450:    6f697469    itio    DCD    1869182057
        0x00002454:    2031206e    n 1     DCD    540090478
        0x00002458:    5f534843    CHS_    DCD    1599293507
        0x0000245c:    69676542    Begi    DCD    1768383810
        0x00002460:    203d206e    n =     DCD    540876910
        0x00002464:    78382e25    %.8x    DCD    2016947749
        0x00002468:    0000000a    ....    DCD    10
        0x0000246c:    74726150    Part    DCD    1953653072
        0x00002470:    6f697469    itio    DCD    1869182057
        0x00002474:    2031206e    n 1     DCD    540090478
        0x00002478:    65707954    Type    DCD    1701869908
        0x0000247c:    65646f43    Code    DCD    1701080899
        0x00002480:    25203d20     = %    DCD    622869792
        0x00002484:    0a78322e    .2x.    DCD    175649326
        0x00002488:    00000000    ....    DCD    0
        0x0000248c:    74726150    Part    DCD    1953653072
        0x00002490:    6f697469    itio    DCD    1869182057
        0x00002494:    2031206e    n 1     DCD    540090478
        0x00002498:    5f534843    CHS_    DCD    1599293507
        0x0000249c:    20646e45    End     DCD    543452741
        0x000024a0:    2e25203d    = %.    DCD    774185021
        0x000024a4:    000a7838    8x..    DCD    686136
        0x000024a8:    74726150    Part    DCD    1953653072
        0x000024ac:    6f697469    itio    DCD    1869182057
        0x000024b0:    2031206e    n 1     DCD    540090478
        0x000024b4:    5f41424c    LBA_    DCD    1598112332
        0x000024b8:    69676542    Begi    DCD    1768383810
        0x000024bc:    203d206e    n =     DCD    540876910
        0x000024c0:    78382e25    %.8x    DCD    2016947749
        0x000024c4:    0000000a    ....    DCD    10
        0x000024c8:    74726150    Part    DCD    1953653072
        0x000024cc:    6f697469    itio    DCD    1869182057
        0x000024d0:    2031206e    n 1     DCD    540090478
        0x000024d4:    4f6d754e    NumO    DCD    1332573518
        0x000024d8:    63655366    fSec    DCD    1667584870
        0x000024dc:    20726f74    tor     DCD    544370548
        0x000024e0:    7825203d    = %x    DCD    2015699005
        0x000024e4:    0000000a    ....    DCD    10
        0x000024e8:    74726150    Part    DCD    1953653072
        0x000024ec:    6f697469    itio    DCD    1869182057
        0x000024f0:    2031206e    n 1     DCD    540090478
        0x000024f4:    657a6953    Size    DCD    1702521171
        0x000024f8:    25203d20     = %    DCD    622869792
        0x000024fc:    42472064    d GB    DCD    1111957604
        0x00002500:    0000000a    ....    DCD    10
    $t
    i.fputc
    fputc
        0x00002504:    b570        p.      PUSH     {r4-r6,lr}
        0x00002506:    4604        .F      MOV      r4,r0
        0x00002508:    460d        .F      MOV      r5,r1
        0x0000250a:    2c0a        .,      CMP      r4,#0xa
        0x0000250c:    d102        ..      BNE      0x2514 ; fputc + 16
        0x0000250e:    200d        .       MOVS     r0,#0xd
        0x00002510:    f7fefd32    ..2.    BL       SER_PutChar ; 0xf78
        0x00002514:    4620         F      MOV      r0,r4
        0x00002516:    f7fefd2f    ../.    BL       SER_PutChar ; 0xf78
        0x0000251a:    bd70        p.      POP      {r4-r6,pc}
    i.hardfault_handler_c
    hardfault_handler_c
    __tagsym$$used
        0x0000251c:    b570        p.      PUSH     {r4-r6,lr}
        0x0000251e:    4604        .F      MOV      r4,r0
        0x00002520:    460d        .F      MOV      r5,r1
        0x00002522:    a019        ..      ADR      r0,{pc}+0x66 ; 0x2588
        0x00002524:    f7fefd7c    ..|.    BL       __0printf$5 ; 0x1020
        0x00002528:    a027        '.      ADR      r0,{pc}+0xa0 ; 0x25c8
        0x0000252a:    6821        !h      LDR      r1,[r4,#0]
        0x0000252c:    f7fefd78    ..x.    BL       __0printf$5 ; 0x1020
        0x00002530:    a028        (.      ADR      r0,{pc}+0xa4 ; 0x25d4
        0x00002532:    6861        ah      LDR      r1,[r4,#4]
        0x00002534:    f7fefd74    ..t.    BL       __0printf$5 ; 0x1020
        0x00002538:    a029        ).      ADR      r0,{pc}+0xa8 ; 0x25e0
        0x0000253a:    68a1        .h      LDR      r1,[r4,#8]
        0x0000253c:    f7fefd70    ..p.    BL       __0printf$5 ; 0x1020
        0x00002540:    a02a        *.      ADR      r0,{pc}+0xac ; 0x25ec
        0x00002542:    68e1        .h      LDR      r1,[r4,#0xc]
        0x00002544:    f7fefd6c    ..l.    BL       __0printf$5 ; 0x1020
        0x00002548:    a02b        +.      ADR      r0,{pc}+0xb0 ; 0x25f8
        0x0000254a:    6921        !i      LDR      r1,[r4,#0x10]
        0x0000254c:    f7fefd68    ..h.    BL       __0printf$5 ; 0x1020
        0x00002550:    a02d        -.      ADR      r0,{pc}+0xb8 ; 0x2608
        0x00002552:    6961        ai      LDR      r1,[r4,#0x14]
        0x00002554:    f7fefd64    ..d.    BL       __0printf$5 ; 0x1020
        0x00002558:    a02e        ..      ADR      r0,{pc}+0xbc ; 0x2614
        0x0000255a:    69a1        .i      LDR      r1,[r4,#0x18]
        0x0000255c:    f7fefd60    ..`.    BL       __0printf$5 ; 0x1020
        0x00002560:    a02f        /.      ADR      r0,{pc}+0xc0 ; 0x2620
        0x00002562:    69e1        .i      LDR      r1,[r4,#0x1c]
        0x00002564:    f7fefd5c    ..\.    BL       __0printf$5 ; 0x1020
        0x00002568:    4629        )F      MOV      r1,r5
        0x0000256a:    a031        1.      ADR      r0,{pc}+0xc6 ; 0x2630
        0x0000256c:    f7fefd58    ..X.    BL       __0printf$5 ; 0x1020
        0x00002570:    a034        4.      ADR      r0,{pc}+0xd4 ; 0x2644
        0x00002572:    f7fefd55    ..U.    BL       __0printf$5 ; 0x1020
        0x00002576:    2000        .       MOVS     r0,#0
        0x00002578:    4942        BI      LDR      r1,[pc,#264] ; [0x2684] = 0x20000010
        0x0000257a:    6008        .`      STR      r0,[r1,#0]
        0x0000257c:    bf00        ..      NOP      
        0x0000257e:    4841        AH      LDR      r0,[pc,#260] ; [0x2684] = 0x20000010
        0x00002580:    6800        .h      LDR      r0,[r0,#0]
        0x00002582:    2800        .(      CMP      r0,#0
        0x00002584:    d0fb        ..      BEQ      0x257e ; hardfault_handler_c + 98
        0x00002586:    bd70        p.      POP      {r4-r6,pc}
    $d
        0x00002588:    2a2a2a0a    .***    DCD    707406346
        0x0000258c:    2a2a2a2a    ****    DCD    707406378
        0x00002590:    68542a2a    **Th    DCD    1750346282
        0x00002594:    61732065    e sa    DCD    1634934885
        0x00002598:    20646576    ved     DCD    543450486
        0x0000259c:    69676572    regi    DCD    1768383858
        0x000025a0:    72657473    ster    DCD    1919251571
        0x000025a4:    72662073    s fr    DCD    1919295603
        0x000025a8:    74206d6f    om t    DCD    1948282223
        0x000025ac:    73206568    he s    DCD    1931502952
        0x000025b0:    6b636174    tack    DCD    1801675124
        0x000025b4:    2a2a2a2a    ****    DCD    707406378
        0x000025b8:    2a2a2a2a    ****    DCD    707406378
        0x000025bc:    2a2a2a2a    ****    DCD    707406378
        0x000025c0:    2a2a2a2a    ****    DCD    707406378
        0x000025c4:    0000000a    ....    DCD    10
        0x000025c8:    69203072    r0 i    DCD    1763717234
        0x000025cc:    78302073    s 0x    DCD    2016419955
        0x000025d0:    000a7825    %x..    DCD    686117
        0x000025d4:    69203172    r1 i    DCD    1763717490
        0x000025d8:    78302073    s 0x    DCD    2016419955
        0x000025dc:    000a7825    %x..    DCD    686117
        0x000025e0:    69203272    r2 i    DCD    1763717746
        0x000025e4:    78302073    s 0x    DCD    2016419955
        0x000025e8:    000a7825    %x..    DCD    686117
        0x000025ec:    69203372    r3 i    DCD    1763718002
        0x000025f0:    78302073    s 0x    DCD    2016419955
        0x000025f4:    000a7825    %x..    DCD    686117
        0x000025f8:    20323172    r12     DCD    540160370
        0x000025fc:    30207369    is 0    DCD    807433065
        0x00002600:    0a782578    x%x.    DCD    175646072
        0x00002604:    00000000    ....    DCD    0
        0x00002608:    6920726c    lr i    DCD    1763734124
        0x0000260c:    78302073    s 0x    DCD    2016419955
        0x00002610:    000a7825    %x..    DCD    686117
        0x00002614:    69206370    pc i    DCD    1763730288
        0x00002618:    78302073    s 0x    DCD    2016419955
        0x0000261c:    000a7825    %x..    DCD    686117
        0x00002620:    20727370    psr     DCD    544371568
        0x00002624:    30207369    is 0    DCD    807433065
        0x00002628:    0a782578    x%x.    DCD    175646072
        0x0000262c:    00000000    ....    DCD    0
        0x00002630:    72727563    curr    DCD    1920103779
        0x00002634:    5f746e65    ent_    DCD    1601465957
        0x00002638:    6920726c    lr i    DCD    1763734124
        0x0000263c:    78302073    s 0x    DCD    2016419955
        0x00002640:    000a7825    %x..    DCD    686117
        0x00002644:    2a2a2a2a    ****    DCD    707406378
        0x00002648:    2a2a2a2a    ****    DCD    707406378
        0x0000264c:    2a2a2a2a    ****    DCD    707406378
        0x00002650:    2a2a2a2a    ****    DCD    707406378
        0x00002654:    2a2a2a2a    ****    DCD    707406378
        0x00002658:    2a2a2a2a    ****    DCD    707406378
        0x0000265c:    2a2a2a2a    ****    DCD    707406378
        0x00002660:    2a2a2a2a    ****    DCD    707406378
        0x00002664:    2a2a2a2a    ****    DCD    707406378
        0x00002668:    2a2a2a2a    ****    DCD    707406378
        0x0000266c:    2a2a2a2a    ****    DCD    707406378
        0x00002670:    2a2a2a2a    ****    DCD    707406378
        0x00002674:    2a2a2a2a    ****    DCD    707406378
        0x00002678:    2a2a2a2a    ****    DCD    707406378
        0x0000267c:    2a2a2a2a    ****    DCD    707406378
        0x00002680:    00000a2a    *...    DCD    2602
        0x00002684:    20000010    ...     DCD    536870928
    $t
    i.init_SD_card_PowerUp
    init_SD_card_PowerUp
        0x00002688:    b570        p.      PUSH     {r4-r6,lr}
        0x0000268a:    21ff        .!      MOVS     r1,#0xff
        0x0000268c:    3101        .1      ADDS     r1,#1
        0x0000268e:    0588        ..      LSLS     r0,r1,#22
        0x00002690:    6241        Ab      STR      r1,[r0,#0x24]
        0x00002692:    6141        Aa      STR      r1,[r0,#0x14]
        0x00002694:    1300        ..      ASRS     r0,r0,#12
        0x00002696:    f7fffc55    ..U.    BL       delay ; 0x1f44
        0x0000269a:    2400        .$      MOVS     r4,#0
        0x0000269c:    e004        ..      B        0x26a8 ; init_SD_card_PowerUp + 32
        0x0000269e:    20ff        .       MOVS     r0,#0xff
        0x000026a0:    f7fefbdc    ....    BL       SD_spi_send_byte ; 0xe5c
        0x000026a4:    1c60        `.      ADDS     r0,r4,#1
        0x000026a6:    b2c4        ..      UXTB     r4,r0
        0x000026a8:    2c28        (,      CMP      r4,#0x28
        0x000026aa:    dbf8        ..      BLT      0x269e ; init_SD_card_PowerUp + 22
        0x000026ac:    2200        ."      MOVS     r2,#0
        0x000026ae:    4611        .F      MOV      r1,r2
        0x000026b0:    4610        .F      MOV      r0,r2
        0x000026b2:    f7fef9d3    ....    BL       SD_spi_command ; 0xa5c
        0x000026b6:    2207        ."      MOVS     r2,#7
        0x000026b8:    21ff        .!      MOVS     r1,#0xff
        0x000026ba:    31ab        .1      ADDS     r1,r1,#0xab
        0x000026bc:    2008        .       MOVS     r0,#8
        0x000026be:    f7fef9cd    ....    BL       SD_spi_command ; 0xa5c
        0x000026c2:    2203        ."      MOVS     r2,#3
        0x000026c4:    21ff        .!      MOVS     r1,#0xff
        0x000026c6:    31ab        .1      ADDS     r1,r1,#0xab
        0x000026c8:    203a        :       MOVS     r0,#0x3a
        0x000026ca:    f7fef9c7    ....    BL       SD_spi_command ; 0xa5c
        0x000026ce:    2400        .$      MOVS     r4,#0
        0x000026d0:    bf00        ..      NOP      
        0x000026d2:    2200        ."      MOVS     r2,#0
        0x000026d4:    4611        .F      MOV      r1,r2
        0x000026d6:    2037        7       MOVS     r0,#0x37
        0x000026d8:    f7fef9c0    ....    BL       SD_spi_command ; 0xa5c
        0x000026dc:    2200        ."      MOVS     r2,#0
        0x000026de:    2101        .!      MOVS     r1,#1
        0x000026e0:    0789        ..      LSLS     r1,r1,#30
        0x000026e2:    2029        )       MOVS     r0,#0x29
        0x000026e4:    f7fef9ba    ....    BL       SD_spi_command ; 0xa5c
        0x000026e8:    b2c5        ..      UXTB     r5,r0
        0x000026ea:    1c60        `.      ADDS     r0,r4,#1
        0x000026ec:    b2c4        ..      UXTB     r4,r0
        0x000026ee:    2d00        .-      CMP      r5,#0
        0x000026f0:    d1ef        ..      BNE      0x26d2 ; init_SD_card_PowerUp + 74
        0x000026f2:    2203        ."      MOVS     r2,#3
        0x000026f4:    21ff        .!      MOVS     r1,#0xff
        0x000026f6:    31ab        .1      ADDS     r1,r1,#0xab
        0x000026f8:    203a        :       MOVS     r0,#0x3a
        0x000026fa:    f7fef9af    ....    BL       SD_spi_command ; 0xa5c
        0x000026fe:    bd70        p.      POP      {r4-r6,pc}
    i.init_SD_card_spi_dma
    init_SD_card_spi_dma
        0x00002700:    b510        ..      PUSH     {r4,lr}
        0x00002702:    2000        .       MOVS     r0,#0
        0x00002704:    f7fef864    ..d.    BL       DMA_LittleEndian ; 0x7d0
        0x00002708:    2400        .$      MOVS     r4,#0
        0x0000270a:    e004        ..      B        0x2716 ; init_SD_card_spi_dma + 22
        0x0000270c:    4620         F      MOV      r0,r4
        0x0000270e:    f7fef84f    ..O.    BL       DMA_Enable_Sync ; 0x7b0
        0x00002712:    1c60        `.      ADDS     r0,r4,#1
        0x00002714:    b2c4        ..      UXTB     r4,r0
        0x00002716:    2c10        .,      CMP      r4,#0x10
        0x00002718:    dbf8        ..      BLT      0x270c ; init_SD_card_spi_dma + 12
        0x0000271a:    2000        .       MOVS     r0,#0
        0x0000271c:    496b        kI      LDR      r1,[pc,#428] ; [0x28cc] = 0x20000038
        0x0000271e:    6809        .h      LDR      r1,[r1,#0]
        0x00002720:    6008        .`      STR      r0,[r1,#0]
        0x00002722:    496a        jI      LDR      r1,[pc,#424] ; [0x28cc] = 0x20000038
        0x00002724:    6809        .h      LDR      r1,[r1,#0]
        0x00002726:    7108        .q      STRB     r0,[r1,#4]
        0x00002728:    4969        iI      LDR      r1,[pc,#420] ; [0x28d0] = 0x2000003c
        0x0000272a:    6809        .h      LDR      r1,[r1,#0]
        0x0000272c:    7008        .p      STRB     r0,[r1,#0]
        0x0000272e:    4968        hI      LDR      r1,[pc,#416] ; [0x28d0] = 0x2000003c
        0x00002730:    6809        .h      LDR      r1,[r1,#0]
        0x00002732:    7048        Hp      STRB     r0,[r1,#1]
        0x00002734:    2001        .       MOVS     r0,#1
        0x00002736:    4966        fI      LDR      r1,[pc,#408] ; [0x28d0] = 0x2000003c
        0x00002738:    6809        .h      LDR      r1,[r1,#0]
        0x0000273a:    7088        .p      STRB     r0,[r1,#2]
        0x0000273c:    2000        .       MOVS     r0,#0
        0x0000273e:    4964        dI      LDR      r1,[pc,#400] ; [0x28d0] = 0x2000003c
        0x00002740:    6809        .h      LDR      r1,[r1,#0]
        0x00002742:    70c8        .p      STRB     r0,[r1,#3]
        0x00002744:    4962        bI      LDR      r1,[pc,#392] ; [0x28d0] = 0x2000003c
        0x00002746:    6809        .h      LDR      r1,[r1,#0]
        0x00002748:    7108        .q      STRB     r0,[r1,#4]
        0x0000274a:    4961        aI      LDR      r1,[pc,#388] ; [0x28d0] = 0x2000003c
        0x0000274c:    6809        .h      LDR      r1,[r1,#0]
        0x0000274e:    7148        Hq      STRB     r0,[r1,#5]
        0x00002750:    495f        _I      LDR      r1,[pc,#380] ; [0x28d0] = 0x2000003c
        0x00002752:    6809        .h      LDR      r1,[r1,#0]
        0x00002754:    7188        .q      STRB     r0,[r1,#6]
        0x00002756:    495e        ^I      LDR      r1,[pc,#376] ; [0x28d0] = 0x2000003c
        0x00002758:    6809        .h      LDR      r1,[r1,#0]
        0x0000275a:    71c8        .q      STRB     r0,[r1,#7]
        0x0000275c:    2001        .       MOVS     r0,#1
        0x0000275e:    495c        \I      LDR      r1,[pc,#368] ; [0x28d0] = 0x2000003c
        0x00002760:    6809        .h      LDR      r1,[r1,#0]
        0x00002762:    7208        .r      STRB     r0,[r1,#8]
        0x00002764:    495a        ZI      LDR      r1,[pc,#360] ; [0x28d0] = 0x2000003c
        0x00002766:    6809        .h      LDR      r1,[r1,#0]
        0x00002768:    7248        Hr      STRB     r0,[r1,#9]
        0x0000276a:    0240        @.      LSLS     r0,r0,#9
        0x0000276c:    4958        XI      LDR      r1,[pc,#352] ; [0x28d0] = 0x2000003c
        0x0000276e:    6809        .h      LDR      r1,[r1,#0]
        0x00002770:    60c8        .`      STR      r0,[r1,#0xc]
        0x00002772:    2000        .       MOVS     r0,#0
        0x00002774:    4957        WI      LDR      r1,[pc,#348] ; [0x28d4] = 0x20000040
        0x00002776:    6809        .h      LDR      r1,[r1,#0]
        0x00002778:    7008        .p      STRB     r0,[r1,#0]
        0x0000277a:    4956        VI      LDR      r1,[pc,#344] ; [0x28d4] = 0x20000040
        0x0000277c:    6809        .h      LDR      r1,[r1,#0]
        0x0000277e:    7088        .p      STRB     r0,[r1,#2]
        0x00002780:    2001        .       MOVS     r0,#1
        0x00002782:    4954        TI      LDR      r1,[pc,#336] ; [0x28d4] = 0x20000040
        0x00002784:    6809        .h      LDR      r1,[r1,#0]
        0x00002786:    70c8        .p      STRB     r0,[r1,#3]
        0x00002788:    4952        RI      LDR      r1,[pc,#328] ; [0x28d4] = 0x20000040
        0x0000278a:    6809        .h      LDR      r1,[r1,#0]
        0x0000278c:    7108        .q      STRB     r0,[r1,#4]
        0x0000278e:    2002        .       MOVS     r0,#2
        0x00002790:    4950        PI      LDR      r1,[pc,#320] ; [0x28d4] = 0x20000040
        0x00002792:    6809        .h      LDR      r1,[r1,#0]
        0x00002794:    7148        Hq      STRB     r0,[r1,#5]
        0x00002796:    2000        .       MOVS     r0,#0
        0x00002798:    494e        NI      LDR      r1,[pc,#312] ; [0x28d4] = 0x20000040
        0x0000279a:    6809        .h      LDR      r1,[r1,#0]
        0x0000279c:    7188        .q      STRB     r0,[r1,#6]
        0x0000279e:    494d        MI      LDR      r1,[pc,#308] ; [0x28d4] = 0x20000040
        0x000027a0:    6809        .h      LDR      r1,[r1,#0]
        0x000027a2:    71c8        .q      STRB     r0,[r1,#7]
        0x000027a4:    2001        .       MOVS     r0,#1
        0x000027a6:    494b        KI      LDR      r1,[pc,#300] ; [0x28d4] = 0x20000040
        0x000027a8:    6809        .h      LDR      r1,[r1,#0]
        0x000027aa:    7208        .r      STRB     r0,[r1,#8]
        0x000027ac:    2000        .       MOVS     r0,#0
        0x000027ae:    494a        JI      LDR      r1,[pc,#296] ; [0x28d8] = 0x2000004c
        0x000027b0:    6809        .h      LDR      r1,[r1,#0]
        0x000027b2:    6008        .`      STR      r0,[r1,#0]
        0x000027b4:    4948        HI      LDR      r1,[pc,#288] ; [0x28d8] = 0x2000004c
        0x000027b6:    6809        .h      LDR      r1,[r1,#0]
        0x000027b8:    7108        .q      STRB     r0,[r1,#4]
        0x000027ba:    4948        HI      LDR      r1,[pc,#288] ; [0x28dc] = 0x20000050
        0x000027bc:    6809        .h      LDR      r1,[r1,#0]
        0x000027be:    7008        .p      STRB     r0,[r1,#0]
        0x000027c0:    4946        FI      LDR      r1,[pc,#280] ; [0x28dc] = 0x20000050
        0x000027c2:    6809        .h      LDR      r1,[r1,#0]
        0x000027c4:    7048        Hp      STRB     r0,[r1,#1]
        0x000027c6:    4945        EI      LDR      r1,[pc,#276] ; [0x28dc] = 0x20000050
        0x000027c8:    6809        .h      LDR      r1,[r1,#0]
        0x000027ca:    7088        .p      STRB     r0,[r1,#2]
        0x000027cc:    4943        CI      LDR      r1,[pc,#268] ; [0x28dc] = 0x20000050
        0x000027ce:    6809        .h      LDR      r1,[r1,#0]
        0x000027d0:    70c8        .p      STRB     r0,[r1,#3]
        0x000027d2:    4942        BI      LDR      r1,[pc,#264] ; [0x28dc] = 0x20000050
        0x000027d4:    6809        .h      LDR      r1,[r1,#0]
        0x000027d6:    7108        .q      STRB     r0,[r1,#4]
        0x000027d8:    4940        @I      LDR      r1,[pc,#256] ; [0x28dc] = 0x20000050
        0x000027da:    6809        .h      LDR      r1,[r1,#0]
        0x000027dc:    7148        Hq      STRB     r0,[r1,#5]
        0x000027de:    493f        ?I      LDR      r1,[pc,#252] ; [0x28dc] = 0x20000050
        0x000027e0:    6809        .h      LDR      r1,[r1,#0]
        0x000027e2:    7188        .q      STRB     r0,[r1,#6]
        0x000027e4:    493d        =I      LDR      r1,[pc,#244] ; [0x28dc] = 0x20000050
        0x000027e6:    6809        .h      LDR      r1,[r1,#0]
        0x000027e8:    71c8        .q      STRB     r0,[r1,#7]
        0x000027ea:    2001        .       MOVS     r0,#1
        0x000027ec:    493b        ;I      LDR      r1,[pc,#236] ; [0x28dc] = 0x20000050
        0x000027ee:    6809        .h      LDR      r1,[r1,#0]
        0x000027f0:    7208        .r      STRB     r0,[r1,#8]
        0x000027f2:    493a        :I      LDR      r1,[pc,#232] ; [0x28dc] = 0x20000050
        0x000027f4:    6809        .h      LDR      r1,[r1,#0]
        0x000027f6:    7248        Hr      STRB     r0,[r1,#9]
        0x000027f8:    0240        @.      LSLS     r0,r0,#9
        0x000027fa:    4938        8I      LDR      r1,[pc,#224] ; [0x28dc] = 0x20000050
        0x000027fc:    6809        .h      LDR      r1,[r1,#0]
        0x000027fe:    60c8        .`      STR      r0,[r1,#0xc]
        0x00002800:    2000        .       MOVS     r0,#0
        0x00002802:    4937        7I      LDR      r1,[pc,#220] ; [0x28e0] = 0x20000054
        0x00002804:    6809        .h      LDR      r1,[r1,#0]
        0x00002806:    7008        .p      STRB     r0,[r1,#0]
        0x00002808:    4935        5I      LDR      r1,[pc,#212] ; [0x28e0] = 0x20000054
        0x0000280a:    6809        .h      LDR      r1,[r1,#0]
        0x0000280c:    7088        .p      STRB     r0,[r1,#2]
        0x0000280e:    2001        .       MOVS     r0,#1
        0x00002810:    4933        3I      LDR      r1,[pc,#204] ; [0x28e0] = 0x20000054
        0x00002812:    6809        .h      LDR      r1,[r1,#0]
        0x00002814:    70c8        .p      STRB     r0,[r1,#3]
        0x00002816:    4932        2I      LDR      r1,[pc,#200] ; [0x28e0] = 0x20000054
        0x00002818:    6809        .h      LDR      r1,[r1,#0]
        0x0000281a:    7108        .q      STRB     r0,[r1,#4]
        0x0000281c:    4930        0I      LDR      r1,[pc,#192] ; [0x28e0] = 0x20000054
        0x0000281e:    6809        .h      LDR      r1,[r1,#0]
        0x00002820:    7148        Hq      STRB     r0,[r1,#5]
        0x00002822:    492f        /I      LDR      r1,[pc,#188] ; [0x28e0] = 0x20000054
        0x00002824:    6809        .h      LDR      r1,[r1,#0]
        0x00002826:    7188        .q      STRB     r0,[r1,#6]
        0x00002828:    2000        .       MOVS     r0,#0
        0x0000282a:    492d        -I      LDR      r1,[pc,#180] ; [0x28e0] = 0x20000054
        0x0000282c:    6809        .h      LDR      r1,[r1,#0]
        0x0000282e:    71c8        .q      STRB     r0,[r1,#7]
        0x00002830:    2001        .       MOVS     r0,#1
        0x00002832:    492b        +I      LDR      r1,[pc,#172] ; [0x28e0] = 0x20000054
        0x00002834:    6809        .h      LDR      r1,[r1,#0]
        0x00002836:    7208        .r      STRB     r0,[r1,#8]
        0x00002838:    2000        .       MOVS     r0,#0
        0x0000283a:    492a        *I      LDR      r1,[pc,#168] ; [0x28e4] = 0x20000060
        0x0000283c:    6809        .h      LDR      r1,[r1,#0]
        0x0000283e:    6008        .`      STR      r0,[r1,#0]
        0x00002840:    4928        (I      LDR      r1,[pc,#160] ; [0x28e4] = 0x20000060
        0x00002842:    6809        .h      LDR      r1,[r1,#0]
        0x00002844:    7108        .q      STRB     r0,[r1,#4]
        0x00002846:    4928        (I      LDR      r1,[pc,#160] ; [0x28e8] = 0x20000064
        0x00002848:    6809        .h      LDR      r1,[r1,#0]
        0x0000284a:    7008        .p      STRB     r0,[r1,#0]
        0x0000284c:    4926        &I      LDR      r1,[pc,#152] ; [0x28e8] = 0x20000064
        0x0000284e:    6809        .h      LDR      r1,[r1,#0]
        0x00002850:    7048        Hp      STRB     r0,[r1,#1]
        0x00002852:    4925        %I      LDR      r1,[pc,#148] ; [0x28e8] = 0x20000064
        0x00002854:    6809        .h      LDR      r1,[r1,#0]
        0x00002856:    7088        .p      STRB     r0,[r1,#2]
        0x00002858:    2001        .       MOVS     r0,#1
        0x0000285a:    4923        #I      LDR      r1,[pc,#140] ; [0x28e8] = 0x20000064
        0x0000285c:    6809        .h      LDR      r1,[r1,#0]
        0x0000285e:    70c8        .p      STRB     r0,[r1,#3]
        0x00002860:    2000        .       MOVS     r0,#0
        0x00002862:    4921        !I      LDR      r1,[pc,#132] ; [0x28e8] = 0x20000064
        0x00002864:    6809        .h      LDR      r1,[r1,#0]
        0x00002866:    7108        .q      STRB     r0,[r1,#4]
        0x00002868:    491f        .I      LDR      r1,[pc,#124] ; [0x28e8] = 0x20000064
        0x0000286a:    6809        .h      LDR      r1,[r1,#0]
        0x0000286c:    7148        Hq      STRB     r0,[r1,#5]
        0x0000286e:    491e        .I      LDR      r1,[pc,#120] ; [0x28e8] = 0x20000064
        0x00002870:    6809        .h      LDR      r1,[r1,#0]
        0x00002872:    7188        .q      STRB     r0,[r1,#6]
        0x00002874:    491c        .I      LDR      r1,[pc,#112] ; [0x28e8] = 0x20000064
        0x00002876:    6809        .h      LDR      r1,[r1,#0]
        0x00002878:    71c8        .q      STRB     r0,[r1,#7]
        0x0000287a:    2001        .       MOVS     r0,#1
        0x0000287c:    491a        .I      LDR      r1,[pc,#104] ; [0x28e8] = 0x20000064
        0x0000287e:    6809        .h      LDR      r1,[r1,#0]
        0x00002880:    7208        .r      STRB     r0,[r1,#8]
        0x00002882:    4919        .I      LDR      r1,[pc,#100] ; [0x28e8] = 0x20000064
        0x00002884:    6809        .h      LDR      r1,[r1,#0]
        0x00002886:    7248        Hr      STRB     r0,[r1,#9]
        0x00002888:    0240        @.      LSLS     r0,r0,#9
        0x0000288a:    4917        .I      LDR      r1,[pc,#92] ; [0x28e8] = 0x20000064
        0x0000288c:    6809        .h      LDR      r1,[r1,#0]
        0x0000288e:    60c8        .`      STR      r0,[r1,#0xc]
        0x00002890:    2000        .       MOVS     r0,#0
        0x00002892:    4916        .I      LDR      r1,[pc,#88] ; [0x28ec] = 0x20000068
        0x00002894:    6809        .h      LDR      r1,[r1,#0]
        0x00002896:    7008        .p      STRB     r0,[r1,#0]
        0x00002898:    4914        .I      LDR      r1,[pc,#80] ; [0x28ec] = 0x20000068
        0x0000289a:    6809        .h      LDR      r1,[r1,#0]
        0x0000289c:    7088        .p      STRB     r0,[r1,#2]
        0x0000289e:    2001        .       MOVS     r0,#1
        0x000028a0:    4912        .I      LDR      r1,[pc,#72] ; [0x28ec] = 0x20000068
        0x000028a2:    6809        .h      LDR      r1,[r1,#0]
        0x000028a4:    70c8        .p      STRB     r0,[r1,#3]
        0x000028a6:    4911        .I      LDR      r1,[pc,#68] ; [0x28ec] = 0x20000068
        0x000028a8:    6809        .h      LDR      r1,[r1,#0]
        0x000028aa:    7108        .q      STRB     r0,[r1,#4]
        0x000028ac:    490f        .I      LDR      r1,[pc,#60] ; [0x28ec] = 0x20000068
        0x000028ae:    6809        .h      LDR      r1,[r1,#0]
        0x000028b0:    7148        Hq      STRB     r0,[r1,#5]
        0x000028b2:    490e        .I      LDR      r1,[pc,#56] ; [0x28ec] = 0x20000068
        0x000028b4:    6809        .h      LDR      r1,[r1,#0]
        0x000028b6:    7188        .q      STRB     r0,[r1,#6]
        0x000028b8:    2000        .       MOVS     r0,#0
        0x000028ba:    490c        .I      LDR      r1,[pc,#48] ; [0x28ec] = 0x20000068
        0x000028bc:    6809        .h      LDR      r1,[r1,#0]
        0x000028be:    71c8        .q      STRB     r0,[r1,#7]
        0x000028c0:    2001        .       MOVS     r0,#1
        0x000028c2:    490a        .I      LDR      r1,[pc,#40] ; [0x28ec] = 0x20000068
        0x000028c4:    6809        .h      LDR      r1,[r1,#0]
        0x000028c6:    7208        .r      STRB     r0,[r1,#8]
        0x000028c8:    bd10        ..      POP      {r4,pc}
    $d
        0x000028ca:    0000        ..      DCW    0
        0x000028cc:    20000038    8..     DCD    536870968
        0x000028d0:    2000003c    <..     DCD    536870972
        0x000028d4:    20000040    @..     DCD    536870976
        0x000028d8:    2000004c    L..     DCD    536870988
        0x000028dc:    20000050    P..     DCD    536870992
        0x000028e0:    20000054    T..     DCD    536870996
        0x000028e4:    20000060    `..     DCD    536871008
        0x000028e8:    20000064    d..     DCD    536871012
        0x000028ec:    20000068    h..     DCD    536871016
    $t
    i.init_SPI
    init_SPI
        0x000028f0:    b51c        ..      PUSH     {r2-r4,lr}
        0x000028f2:    4604        .F      MOV      r4,r0
        0x000028f4:    21d0        .!      MOVS     r1,#0xd0
        0x000028f6:    4668        hF      MOV      r0,sp
        0x000028f8:    7001        .p      STRB     r1,[r0,#0]
        0x000028fa:    2141        A!      MOVS     r1,#0x41
        0x000028fc:    7101        .q      STRB     r1,[r0,#4]
        0x000028fe:    2150        P!      MOVS     r1,#0x50
        0x00002900:    7041        Ap      STRB     r1,[r0,#1]
        0x00002902:    2140        @!      MOVS     r1,#0x40
        0x00002904:    7081        .p      STRB     r1,[r0,#2]
        0x00002906:    2144        D!      MOVS     r1,#0x44
        0x00002908:    70c1        .p      STRB     r1,[r0,#3]
        0x0000290a:    466a        jF      MOV      r2,sp
        0x0000290c:    210e        .!      MOVS     r1,#0xe
        0x0000290e:    2001        .       MOVS     r0,#1
        0x00002910:    f7fef808    ....    BL       PinCtrl_GIOSet ; 0x924
        0x00002914:    4620         F      MOV      r0,r4
        0x00002916:    f000fcff    ....    BL       ssp_config ; 0x3318
        0x0000291a:    bd1c        ..      POP      {r2-r4,pc}
    i.init_dma_spi
    init_dma_spi
        0x0000291c:    b510        ..      PUSH     {r4,lr}
        0x0000291e:    2000        .       MOVS     r0,#0
        0x00002920:    f7fdff56    ..V.    BL       DMA_LittleEndian ; 0x7d0
        0x00002924:    2400        .$      MOVS     r4,#0
        0x00002926:    e004        ..      B        0x2932 ; init_dma_spi + 22
        0x00002928:    4620         F      MOV      r0,r4
        0x0000292a:    f7fdff41    ..A.    BL       DMA_Enable_Sync ; 0x7b0
        0x0000292e:    1c60        `.      ADDS     r0,r4,#1
        0x00002930:    b2c4        ..      UXTB     r4,r0
        0x00002932:    2c10        .,      CMP      r4,#0x10
        0x00002934:    dbf8        ..      BLT      0x2928 ; init_dma_spi + 12
        0x00002936:    2000        .       MOVS     r0,#0
        0x00002938:    4923        #I      LDR      r1,[pc,#140] ; [0x29c8] = 0x2000001c
        0x0000293a:    6809        .h      LDR      r1,[r1,#0]
        0x0000293c:    6008        .`      STR      r0,[r1,#0]
        0x0000293e:    4922        "I      LDR      r1,[pc,#136] ; [0x29c8] = 0x2000001c
        0x00002940:    6809        .h      LDR      r1,[r1,#0]
        0x00002942:    7108        .q      STRB     r0,[r1,#4]
        0x00002944:    4921        !I      LDR      r1,[pc,#132] ; [0x29cc] = 0x20000020
        0x00002946:    6809        .h      LDR      r1,[r1,#0]
        0x00002948:    7008        .p      STRB     r0,[r1,#0]
        0x0000294a:    4920         I      LDR      r1,[pc,#128] ; [0x29cc] = 0x20000020
        0x0000294c:    6809        .h      LDR      r1,[r1,#0]
        0x0000294e:    7048        Hp      STRB     r0,[r1,#1]
        0x00002950:    491e        .I      LDR      r1,[pc,#120] ; [0x29cc] = 0x20000020
        0x00002952:    6809        .h      LDR      r1,[r1,#0]
        0x00002954:    7088        .p      STRB     r0,[r1,#2]
        0x00002956:    2001        .       MOVS     r0,#1
        0x00002958:    491c        .I      LDR      r1,[pc,#112] ; [0x29cc] = 0x20000020
        0x0000295a:    6809        .h      LDR      r1,[r1,#0]
        0x0000295c:    70c8        .p      STRB     r0,[r1,#3]
        0x0000295e:    2000        .       MOVS     r0,#0
        0x00002960:    491a        .I      LDR      r1,[pc,#104] ; [0x29cc] = 0x20000020
        0x00002962:    6809        .h      LDR      r1,[r1,#0]
        0x00002964:    7108        .q      STRB     r0,[r1,#4]
        0x00002966:    4919        .I      LDR      r1,[pc,#100] ; [0x29cc] = 0x20000020
        0x00002968:    6809        .h      LDR      r1,[r1,#0]
        0x0000296a:    7148        Hq      STRB     r0,[r1,#5]
        0x0000296c:    4917        .I      LDR      r1,[pc,#92] ; [0x29cc] = 0x20000020
        0x0000296e:    6809        .h      LDR      r1,[r1,#0]
        0x00002970:    7188        .q      STRB     r0,[r1,#6]
        0x00002972:    4916        .I      LDR      r1,[pc,#88] ; [0x29cc] = 0x20000020
        0x00002974:    6809        .h      LDR      r1,[r1,#0]
        0x00002976:    71c8        .q      STRB     r0,[r1,#7]
        0x00002978:    2002        .       MOVS     r0,#2
        0x0000297a:    4914        .I      LDR      r1,[pc,#80] ; [0x29cc] = 0x20000020
        0x0000297c:    6809        .h      LDR      r1,[r1,#0]
        0x0000297e:    7208        .r      STRB     r0,[r1,#8]
        0x00002980:    4912        .I      LDR      r1,[pc,#72] ; [0x29cc] = 0x20000020
        0x00002982:    6809        .h      LDR      r1,[r1,#0]
        0x00002984:    7248        Hr      STRB     r0,[r1,#9]
        0x00002986:    2020                MOVS     r0,#0x20
        0x00002988:    4910        .I      LDR      r1,[pc,#64] ; [0x29cc] = 0x20000020
        0x0000298a:    6809        .h      LDR      r1,[r1,#0]
        0x0000298c:    60c8        .`      STR      r0,[r1,#0xc]
        0x0000298e:    2000        .       MOVS     r0,#0
        0x00002990:    490f        .I      LDR      r1,[pc,#60] ; [0x29d0] = 0x20000024
        0x00002992:    6809        .h      LDR      r1,[r1,#0]
        0x00002994:    7008        .p      STRB     r0,[r1,#0]
        0x00002996:    490e        .I      LDR      r1,[pc,#56] ; [0x29d0] = 0x20000024
        0x00002998:    6809        .h      LDR      r1,[r1,#0]
        0x0000299a:    7088        .p      STRB     r0,[r1,#2]
        0x0000299c:    2001        .       MOVS     r0,#1
        0x0000299e:    490c        .I      LDR      r1,[pc,#48] ; [0x29d0] = 0x20000024
        0x000029a0:    6809        .h      LDR      r1,[r1,#0]
        0x000029a2:    70c8        .p      STRB     r0,[r1,#3]
        0x000029a4:    490a        .I      LDR      r1,[pc,#40] ; [0x29d0] = 0x20000024
        0x000029a6:    6809        .h      LDR      r1,[r1,#0]
        0x000029a8:    7108        .q      STRB     r0,[r1,#4]
        0x000029aa:    4909        .I      LDR      r1,[pc,#36] ; [0x29d0] = 0x20000024
        0x000029ac:    6809        .h      LDR      r1,[r1,#0]
        0x000029ae:    7148        Hq      STRB     r0,[r1,#5]
        0x000029b0:    4907        .I      LDR      r1,[pc,#28] ; [0x29d0] = 0x20000024
        0x000029b2:    6809        .h      LDR      r1,[r1,#0]
        0x000029b4:    7188        .q      STRB     r0,[r1,#6]
        0x000029b6:    2000        .       MOVS     r0,#0
        0x000029b8:    4905        .I      LDR      r1,[pc,#20] ; [0x29d0] = 0x20000024
        0x000029ba:    6809        .h      LDR      r1,[r1,#0]
        0x000029bc:    71c8        .q      STRB     r0,[r1,#7]
        0x000029be:    2001        .       MOVS     r0,#1
        0x000029c0:    4903        .I      LDR      r1,[pc,#12] ; [0x29d0] = 0x20000024
        0x000029c2:    6809        .h      LDR      r1,[r1,#0]
        0x000029c4:    7208        .r      STRB     r0,[r1,#8]
        0x000029c6:    bd10        ..      POP      {r4,pc}
    $d
        0x000029c8:    2000001c    ...     DCD    536870940
        0x000029cc:    20000020     ..     DCD    536870944
        0x000029d0:    20000024    $..     DCD    536870948
    $t
    i.main
    main
        0x000029d4:    b0ff        ..      SUB      sp,sp,#0x1fc
        0x000029d6:    b0ff        ..      SUB      sp,sp,#0x1fc
        0x000029d8:    b092        ..      SUB      sp,sp,#0x48
        0x000029da:    2101        .!      MOVS     r1,#1
        0x000029dc:    0249        I.      LSLS     r1,r1,#9
        0x000029de:    a890        ..      ADD      r0,sp,#0x240
        0x000029e0:    f7fdfbca    ....    BL       __aeabi_memclr ; 0x178
        0x000029e4:    2101        .!      MOVS     r1,#1
        0x000029e6:    0249        I.      LSLS     r1,r1,#9
        0x000029e8:    a810        ..      ADD      r0,sp,#0x40
        0x000029ea:    f7fdfbc5    ....    BL       __aeabi_memclr ; 0x178
        0x000029ee:    2700        .'      MOVS     r7,#0
        0x000029f0:    4d89        .M      LDR      r5,[pc,#548] ; [0x2c18] = 0x20000094
        0x000029f2:    462c        ,F      MOV      r4,r5
        0x000029f4:    2000        .       MOVS     r0,#0
        0x000029f6:    6220         b      STR      r0,[r4,#0x20]
        0x000029f8:    6260        `b      STR      r0,[r4,#0x24]
        0x000029fa:    2203        ."      MOVS     r2,#3
        0x000029fc:    21e1        .!      MOVS     r1,#0xe1
        0x000029fe:    0249        I.      LSLS     r1,r1,#9
        0x00002a00:    4886        .H      LDR      r0,[pc,#536] ; [0x2c1c] = 0x16e3600
        0x00002a02:    f7fff823    ..#.    BL       config_uart0 ; 0x1a4c
        0x00002a06:    a086        ..      ADR      r0,{pc}+0x21a ; 0x2c20
        0x00002a08:    f7fefb0a    ....    BL       __0printf$5 ; 0x1020
        0x00002a0c:    a084        ..      ADR      r0,{pc}+0x214 ; 0x2c20
        0x00002a0e:    f7fefb07    ....    BL       __0printf$5 ; 0x1020
        0x00002a12:    a085        ..      ADR      r0,{pc}+0x216 ; 0x2c28
        0x00002a14:    f7fefb04    ....    BL       __0printf$5 ; 0x1020
        0x00002a18:    a081        ..      ADR      r0,{pc}+0x208 ; 0x2c20
        0x00002a1a:    f7fefb01    ....    BL       __0printf$5 ; 0x1020
        0x00002a1e:    a080        ..      ADR      r0,{pc}+0x202 ; 0x2c20
        0x00002a20:    f7fefafe    ....    BL       __0printf$5 ; 0x1020
        0x00002a24:    bf00        ..      NOP      
        0x00002a26:    4886        .H      LDR      r0,[pc,#536] ; [0x2c40] = 0x40010000
        0x00002a28:    f7feff78    ..x.    BL       apUART_Check_BUSY ; 0x191c
        0x00002a2c:    2801        .(      CMP      r0,#1
        0x00002a2e:    d0fa        ..      BEQ      0x2a26 ; main + 82
        0x00002a30:    203c        <       MOVS     r0,#0x3c
        0x00002a32:    f7ffff5d    ..].    BL       init_SPI ; 0x28f0
        0x00002a36:    f7fffe27    ..'.    BL       init_SD_card_PowerUp ; 0x2688
        0x00002a3a:    2003        .       MOVS     r0,#3
        0x00002a3c:    f7ffff58    ..X.    BL       init_SPI ; 0x28f0
        0x00002a40:    f7fffe5e    ..^.    BL       init_SD_card_spi_dma ; 0x2700
        0x00002a44:    aa90        ..      ADD      r2,sp,#0x240
        0x00002a46:    2100        .!      MOVS     r1,#0
        0x00002a48:    2001        .       MOVS     r0,#1
        0x00002a4a:    0240        @.      LSLS     r0,r0,#9
        0x00002a4c:    f7fef986    ....    BL       SD_spi_read_single_blk ; 0xd5c
        0x00002a50:    a890        ..      ADD      r0,sp,#0x240
        0x00002a52:    f7fdff39    ..9.    BL       File_Check_Sector ; 0x8c8
        0x00002a56:    2800        .(      CMP      r0,#0
        0x00002a58:    d07d        }.      BEQ      0x2b56 ; main + 386
        0x00002a5a:    a07a        z.      ADR      r0,{pc}+0x1ea ; 0x2c44
        0x00002a5c:    f7fefae0    ....    BL       __0printf$5 ; 0x1020
        0x00002a60:    a990        ..      ADD      r1,sp,#0x240
        0x00002a62:    a809        ..      ADD      r0,sp,#0x24
        0x00002a64:    f7fffc84    ....    BL       file_extract_parttition_table ; 0x2370
        0x00002a68:    aa90        ..      ADD      r2,sp,#0x240
        0x00002a6a:    2001        .       MOVS     r0,#1
        0x00002a6c:    0240        @.      LSLS     r0,r0,#9
        0x00002a6e:    990d        ..      LDR      r1,[sp,#0x34]
        0x00002a70:    f7fef974    ..t.    BL       SD_spi_read_single_blk ; 0xd5c
        0x00002a74:    a990        ..      ADD      r1,sp,#0x240
        0x00002a76:    a804        ..      ADD      r0,sp,#0x10
        0x00002a78:    9a0d        ..      LDR      r2,[sp,#0x34]
        0x00002a7a:    f7fffad7    ....    BL       file_extract_FAT32 ; 0x202c
        0x00002a7e:    a076        v.      ADR      r0,{pc}+0x1da ; 0x2c58
        0x00002a80:    f7feface    ....    BL       __0printf$5 ; 0x1020
        0x00002a84:    a07d        }.      ADR      r0,{pc}+0x1f8 ; 0x2c7c
        0x00002a86:    f7fefacb    ....    BL       __0printf$5 ; 0x1020
        0x00002a8a:    f7ffff47    ..G.    BL       init_dma_spi ; 0x291c
        0x00002a8e:    f000f94f    ..O.    BL       printf_feature ; 0x2d30
        0x00002a92:    e0ae        ..      B        0x2bf2 ; main + 542
        0x00002a94:    bf00        ..      NOP      
        0x00002a96:    486a        jH      LDR      r0,[pc,#424] ; [0x2c40] = 0x40010000
        0x00002a98:    f7feff45    ..E.    BL       apUART_Check_RXFIFO_EMPTY ; 0x1926
        0x00002a9c:    2801        .(      CMP      r0,#1
        0x00002a9e:    d0fa        ..      BEQ      0x2a96 ; main + 194
        0x00002aa0:    f7fefa62    ..b.    BL       SER_GetChar ; 0xf68
        0x00002aa4:    b2c0        ..      UXTB     r0,r0
        0x00002aa6:    900f        ..      STR      r0,[sp,#0x3c]
        0x00002aa8:    980f        ..      LDR      r0,[sp,#0x3c]
        0x00002aaa:    2865        e(      CMP      r0,#0x65
        0x00002aac:    d01d        ..      BEQ      0x2aea ; main + 278
        0x00002aae:    dc04        ..      BGT      0x2aba ; main + 230
        0x00002ab0:    281b        .(      CMP      r0,#0x1b
        0x00002ab2:    d07a        z.      BEQ      0x2baa ; main + 470
        0x00002ab4:    2864        d(      CMP      r0,#0x64
        0x00002ab6:    d179        y.      BNE      0x2bac ; main + 472
        0x00002ab8:    e051        Q.      B        0x2b5e ; main + 394
        0x00002aba:    286c        l(      CMP      r0,#0x6c
        0x00002abc:    d002        ..      BEQ      0x2ac4 ; main + 240
        0x00002abe:    2873        s(      CMP      r0,#0x73
        0x00002ac0:    d1f9        ..      BNE      0x2ab6 ; main + 226
        0x00002ac2:    e08c        ..      B        0x2bde ; main + 522
        0x00002ac4:    462c        ,F      MOV      r4,r5
        0x00002ac6:    9a07        ..      LDR      r2,[sp,#0x1c]
        0x00002ac8:    9906        ..      LDR      r1,[sp,#0x18]
        0x00002aca:    9808        ..      LDR      r0,[sp,#0x20]
        0x00002acc:    9201        ..      STR      r2,[sp,#4]
        0x00002ace:    9100        ..      STR      r1,[sp,#0]
        0x00002ad0:    9002        ..      STR      r0,[sp,#8]
        0x00002ad2:    4621        !F      MOV      r1,r4
        0x00002ad4:    a890        ..      ADD      r0,sp,#0x240
        0x00002ad6:    9b05        ..      LDR      r3,[sp,#0x14]
        0x00002ad8:    9a04        ..      LDR      r2,[sp,#0x10]
        0x00002ada:    f7fff83d    ..=.    BL       create_file_list ; 0x1b58
        0x00002ade:    4620         F      MOV      r0,r4
        0x00002ae0:    f000fbd8    ....    BL       show_file_list ; 0x3294
        0x00002ae4:    f000f924    ..$.    BL       printf_feature ; 0x2d30
        0x00002ae8:    e082        ..      B        0x2bf0 ; main + 540
        0x00002aea:    462c        ,F      MOV      r4,r5
        0x00002aec:    9a07        ..      LDR      r2,[sp,#0x1c]
        0x00002aee:    9906        ..      LDR      r1,[sp,#0x18]
        0x00002af0:    9808        ..      LDR      r0,[sp,#0x20]
        0x00002af2:    9201        ..      STR      r2,[sp,#4]
        0x00002af4:    9100        ..      STR      r1,[sp,#0]
        0x00002af6:    9002        ..      STR      r0,[sp,#8]
        0x00002af8:    4621        !F      MOV      r1,r4
        0x00002afa:    a890        ..      ADD      r0,sp,#0x240
        0x00002afc:    9b05        ..      LDR      r3,[sp,#0x14]
        0x00002afe:    9a04        ..      LDR      r2,[sp,#0x10]
        0x00002b00:    f7fff82a    ..*.    BL       create_file_list ; 0x1b58
        0x00002b04:    4620         F      MOV      r0,r4
        0x00002b06:    f7fffa61    ..a.    BL       encrypt_file_list ; 0x1fcc
        0x00002b0a:    4604        .F      MOV      r4,r0
        0x00002b0c:    4620         F      MOV      r0,r4
        0x00002b0e:    f000fb87    ....    BL       return_chosen_file_ptr ; 0x3220
        0x00002b12:    4607        .F      MOV      r7,r0
        0x00002b14:    1e78        x.      SUBS     r0,r7,#1
        0x00002b16:    b2c7        ..      UXTB     r7,r0
        0x00002b18:    2600        .&      MOVS     r6,#0
        0x00002b1a:    e004        ..      B        0x2b26 ; main + 338
        0x00002b1c:    2c00        .,      CMP      r4,#0
        0x00002b1e:    d000        ..      BEQ      0x2b22 ; main + 334
        0x00002b20:    6a24        $j      LDR      r4,[r4,#0x20]
        0x00002b22:    1c70        p.      ADDS     r0,r6,#1
        0x00002b24:    b286        ..      UXTH     r6,r0
        0x00002b26:    42be        .B      CMP      r6,r7
        0x00002b28:    dbf8        ..      BLT      0x2b1c ; main + 328
        0x00002b2a:    2c00        .,      CMP      r4,#0
        0x00002b2c:    d103        ..      BNE      0x2b36 ; main + 354
        0x00002b2e:    a055        U.      ADR      r0,{pc}+0x156 ; 0x2c84
        0x00002b30:    f7fefa76    ..v.    BL       __0printf$5 ; 0x1020
        0x00002b34:    e00e        ..      B        0x2b54 ; main + 384
        0x00002b36:    2201        ."      MOVS     r2,#1
        0x00002b38:    4668        hF      MOV      r0,sp
        0x00002b3a:    7e01        .~      LDRB     r1,[r0,#0x18]
        0x00002b3c:    9804        ..      LDR      r0,[sp,#0x10]
        0x00002b3e:    466b        kF      MOV      r3,sp
        0x00002b40:    c307        ..      STM      r3!,{r0-r2}
        0x00002b42:    aa10        ..      ADD      r2,sp,#0x40
        0x00002b44:    a990        ..      ADD      r1,sp,#0x240
        0x00002b46:    4620         F      MOV      r0,r4
        0x00002b48:    9b05        ..      LDR      r3,[sp,#0x14]
        0x00002b4a:    f000f9bd    ....    BL       puf_encrypt_decrypt_file ; 0x2ec8
        0x00002b4e:    a051        Q.      ADR      r0,{pc}+0x146 ; 0x2c94
        0x00002b50:    f7fefa66    ..f.    BL       __0printf$5 ; 0x1020
        0x00002b54:    e000        ..      B        0x2b58 ; main + 388
        0x00002b56:    e04d        M.      B        0x2bf4 ; main + 544
        0x00002b58:    f000f8ea    ....    BL       printf_feature ; 0x2d30
        0x00002b5c:    e048        H.      B        0x2bf0 ; main + 540
        0x00002b5e:    462c        ,F      MOV      r4,r5
        0x00002b60:    9a07        ..      LDR      r2,[sp,#0x1c]
        0x00002b62:    9906        ..      LDR      r1,[sp,#0x18]
        0x00002b64:    9808        ..      LDR      r0,[sp,#0x20]
        0x00002b66:    9201        ..      STR      r2,[sp,#4]
        0x00002b68:    9100        ..      STR      r1,[sp,#0]
        0x00002b6a:    9002        ..      STR      r0,[sp,#8]
        0x00002b6c:    4621        !F      MOV      r1,r4
        0x00002b6e:    a890        ..      ADD      r0,sp,#0x240
        0x00002b70:    9b05        ..      LDR      r3,[sp,#0x14]
        0x00002b72:    9a04        ..      LDR      r2,[sp,#0x10]
        0x00002b74:    f7fefff0    ....    BL       create_file_list ; 0x1b58
        0x00002b78:    4620         F      MOV      r0,r4
        0x00002b7a:    f000fb2f    ../.    BL       puf_file_list ; 0x31dc
        0x00002b7e:    4604        .F      MOV      r4,r0
        0x00002b80:    4620         F      MOV      r0,r4
        0x00002b82:    f000fb4d    ..M.    BL       return_chosen_file_ptr ; 0x3220
        0x00002b86:    4607        .F      MOV      r7,r0
        0x00002b88:    1e78        x.      SUBS     r0,r7,#1
        0x00002b8a:    b2c7        ..      UXTB     r7,r0
        0x00002b8c:    2600        .&      MOVS     r6,#0
        0x00002b8e:    e004        ..      B        0x2b9a ; main + 454
        0x00002b90:    2c00        .,      CMP      r4,#0
        0x00002b92:    d000        ..      BEQ      0x2b96 ; main + 450
        0x00002b94:    6a24        $j      LDR      r4,[r4,#0x20]
        0x00002b96:    1c70        p.      ADDS     r0,r6,#1
        0x00002b98:    b286        ..      UXTH     r6,r0
        0x00002b9a:    42be        .B      CMP      r6,r7
        0x00002b9c:    dbf8        ..      BLT      0x2b90 ; main + 444
        0x00002b9e:    2c00        .,      CMP      r4,#0
        0x00002ba0:    d105        ..      BNE      0x2bae ; main + 474
        0x00002ba2:    a038        8.      ADR      r0,{pc}+0xe2 ; 0x2c84
        0x00002ba4:    f7fefa3c    ..<.    BL       __0printf$5 ; 0x1020
        0x00002ba8:    e016        ..      B        0x2bd8 ; main + 516
        0x00002baa:    e01d        ..      B        0x2be8 ; main + 532
        0x00002bac:    e01f        ..      B        0x2bee ; main + 538
        0x00002bae:    2200        ."      MOVS     r2,#0
        0x00002bb0:    4668        hF      MOV      r0,sp
        0x00002bb2:    7e01        .~      LDRB     r1,[r0,#0x18]
        0x00002bb4:    9804        ..      LDR      r0,[sp,#0x10]
        0x00002bb6:    466b        kF      MOV      r3,sp
        0x00002bb8:    c307        ..      STM      r3!,{r0-r2}
        0x00002bba:    aa10        ..      ADD      r2,sp,#0x40
        0x00002bbc:    a990        ..      ADD      r1,sp,#0x240
        0x00002bbe:    4620         F      MOV      r0,r4
        0x00002bc0:    9b05        ..      LDR      r3,[sp,#0x14]
        0x00002bc2:    f000f981    ....    BL       puf_encrypt_decrypt_file ; 0x2ec8
        0x00002bc6:    200a        .       MOVS     r0,#0xa
        0x00002bc8:    2101        .!      MOVS     r1,#1
        0x00002bca:    4081        .@      LSLS     r1,r1,r0
        0x00002bcc:    4a35        5J      LDR      r2,[pc,#212] ; [0x2ca4] = 0xe000e180
        0x00002bce:    6011        .`      STR      r1,[r2,#0]
        0x00002bd0:    bf00        ..      NOP      
        0x00002bd2:    a035        5.      ADR      r0,{pc}+0xd6 ; 0x2ca8
        0x00002bd4:    f7fefa24    ..$.    BL       __0printf$5 ; 0x1020
        0x00002bd8:    f000f8aa    ....    BL       printf_feature ; 0x2d30
        0x00002bdc:    e008        ..      B        0x2bf0 ; main + 540
        0x00002bde:    f000fb6f    ..o.    BL       show_puf_key ; 0x32c0
        0x00002be2:    f000f8a5    ....    BL       printf_feature ; 0x2d30
        0x00002be6:    e003        ..      B        0x2bf0 ; main + 540
        0x00002be8:    f000f8a2    ....    BL       printf_feature ; 0x2d30
        0x00002bec:    e000        ..      B        0x2bf0 ; main + 540
        0x00002bee:    bf00        ..      NOP      
        0x00002bf0:    bf00        ..      NOP      
        0x00002bf2:    e74f        O.      B        0x2a94 ; main + 192
        0x00002bf4:    a030        0.      ADR      r0,{pc}+0xc4 ; 0x2cb8
        0x00002bf6:    f7fefa13    ....    BL       __0printf$5 ; 0x1020
        0x00002bfa:    a033        3.      ADR      r0,{pc}+0xce ; 0x2cc8
        0x00002bfc:    f7fefa10    ....    BL       __0printf$5 ; 0x1020
        0x00002c00:    bf00        ..      NOP      
        0x00002c02:    480f        .H      LDR      r0,[pc,#60] ; [0x2c40] = 0x40010000
        0x00002c04:    f7fefe8a    ....    BL       apUART_Check_BUSY ; 0x191c
        0x00002c08:    2801        .(      CMP      r0,#1
        0x00002c0a:    d0fa        ..      BEQ      0x2c02 ; main + 558
        0x00002c0c:    a039        9.      ADR      r0,{pc}+0xe8 ; 0x2cf4
        0x00002c0e:    f7fefa07    ....    BL       __0printf$5 ; 0x1020
        0x00002c12:    bf00        ..      NOP      
        0x00002c14:    e7fe        ..      B        0x2c14 ; main + 576
    $d
        0x00002c16:    0000        ..      DCW    0
        0x00002c18:    20000094    ...     DCD    536871060
        0x00002c1c:    016e3600    .6n.    DCD    24000000
        0x00002c20:    203e3d3d    ==>     DCD    540949821
        0x00002c24:    0000000a    ....    DCD    10
        0x00002c28:    203e3d3d    ==>     DCD    540949821
        0x00002c2c:    20465550    PUF     DCD    541480272
        0x00002c30:    4f4d4544    DEMO    DCD    1330464068
        0x00002c34:    4f525020     PRO    DCD    1330794528
        0x00002c38:    4d415247    GRAM    DCD    1296126535
        0x00002c3c:    0000000a    ....    DCD    10
        0x00002c40:    40010000    ...@    DCD    1073807360
        0x00002c44:    74636553    Sect    DCD    1952671059
        0x00002c48:    4320726f    or C    DCD    1126199919
        0x00002c4c:    6572726f    orre    DCD    1701999215
        0x00002c50:    21217463    ct!!    DCD    555840611
        0x00002c54:    0000000a    ....    DCD    10
        0x00002c58:    72616553    Sear    DCD    1918985555
        0x00002c5c:    6e696863    chin    DCD    1852401763
        0x00002c60:    6f662067    g fo    DCD    1868963943
        0x00002c64:    6f522072    r Ro    DCD    1867653234
        0x00002c68:    6420746f    ot d    DCD    1679848559
        0x00002c6c:    63657269    irec    DCD    1667592809
        0x00002c70:    79726f74    tory    DCD    2037542772
        0x00002c74:    0a2e2e2e    ....    DCD    170798638
        0x00002c78:    00000000    ....    DCD    0
        0x00002c7c:    6f6f725c    \roo    DCD    1869574748
        0x00002c80:    00000a74    t...    DCD    2676
        0x00002c84:    656c6946    File    DCD    1701603654
        0x00002c88:    746f4e20     Not    DCD    1953451552
        0x00002c8c:    69784520     Exi    DCD    1769489696
        0x00002c90:    000a7473    st..    DCD    685171
        0x00002c94:    72636e45    Encr    DCD    1919118917
        0x00002c98:    20747079    ypt     DCD    544501881
        0x00002c9c:    656e6f44    Done    DCD    1701736260
        0x00002ca0:    0000000a    ....    DCD    10
        0x00002ca4:    e000e180    ....    DCD    3758154112
        0x00002ca8:    72636544    Decr    DCD    1919116612
        0x00002cac:    20747079    ypt     DCD    544501881
        0x00002cb0:    656e6f44    Done    DCD    1701736260
        0x00002cb4:    0000000a    ....    DCD    10
        0x00002cb8:    74636553    Sect    DCD    1952671059
        0x00002cbc:    5720726f    or W    DCD    1461744239
        0x00002cc0:    676e6f72    rong    DCD    1735290738
        0x00002cc4:    000a2121    !!..    DCD    663841
        0x00002cc8:    43204453    SD C    DCD    1126188115
        0x00002ccc:    20647261    ard     DCD    543453793
        0x00002cd0:    2079616d    may     DCD    544825709
        0x00002cd4:    20746f6e    not     DCD    544501614
        0x00002cd8:    65736e69    inse    DCD    1702063721
        0x00002cdc:    64657472    rted    DCD    1684370546
        0x00002ce0:    70202c20     , p    DCD    1881156640
        0x00002ce4:    7361656c    leas    DCD    1935762796
        0x00002ce8:    68632065    e ch    DCD    1751326821
        0x00002cec:    2e6b6365    eck.    DCD    778789733
        0x00002cf0:    0000000a    ....    DCD    10
        0x00002cf4:    00000023    #...    DCD    35
    $t
    i.n10_TMR0_IRQHandler
    n10_TMR0_IRQHandler
        0x00002cf8:    b510        ..      PUSH     {r4,lr}
        0x00002cfa:    4804        .H      LDR      r0,[pc,#16] ; [0x2d0c] = 0x40009000
        0x00002cfc:    f7fef96e    ..n.    BL       TMR_Int_Clr ; 0xfdc
        0x00002d00:    4803        .H      LDR      r0,[pc,#12] ; [0x2d10] = 0x20000028
        0x00002d02:    6800        .h      LDR      r0,[r0,#0]
        0x00002d04:    1c40        @.      ADDS     r0,r0,#1
        0x00002d06:    4902        .I      LDR      r1,[pc,#8] ; [0x2d10] = 0x20000028
        0x00002d08:    6008        .`      STR      r0,[r1,#0]
        0x00002d0a:    bd10        ..      POP      {r4,pc}
    $d
        0x00002d0c:    40009000    ...@    DCD    1073778688
        0x00002d10:    20000028    (..     DCD    536870952
    $t
    i.n11_TMR1_IRQHandler
    n11_TMR1_IRQHandler
        0x00002d14:    b510        ..      PUSH     {r4,lr}
        0x00002d16:    4804        .H      LDR      r0,[pc,#16] ; [0x2d28] = 0x4000a000
        0x00002d18:    f7fef960    ..`.    BL       TMR_Int_Clr ; 0xfdc
        0x00002d1c:    4803        .H      LDR      r0,[pc,#12] ; [0x2d2c] = 0x2000002c
        0x00002d1e:    6800        .h      LDR      r0,[r0,#0]
        0x00002d20:    1c40        @.      ADDS     r0,r0,#1
        0x00002d22:    4902        .I      LDR      r1,[pc,#8] ; [0x2d2c] = 0x2000002c
        0x00002d24:    6008        .`      STR      r0,[r1,#0]
        0x00002d26:    bd10        ..      POP      {r4,pc}
    $d
        0x00002d28:    4000a000    ...@    DCD    1073782784
        0x00002d2c:    2000002c    ,..     DCD    536870956
    $t
    i.printf_feature
    printf_feature
        0x00002d30:    b510        ..      PUSH     {r4,lr}
        0x00002d32:    480b        .H      LDR      r0,[pc,#44] ; [0x2d60] = 0x338c
        0x00002d34:    f7fef974    ..t.    BL       __0printf$5 ; 0x1020
        0x00002d38:    a00a        ..      ADR      r0,{pc}+0x2c ; 0x2d64
        0x00002d3a:    f7fef971    ..q.    BL       __0printf$5 ; 0x1020
        0x00002d3e:    4815        .H      LDR      r0,[pc,#84] ; [0x2d94] = 0x33e4
        0x00002d40:    f7fef96e    ..n.    BL       __0printf$5 ; 0x1020
        0x00002d44:    a014        ..      ADR      r0,{pc}+0x54 ; 0x2d98
        0x00002d46:    f7fef96b    ..k.    BL       __0printf$5 ; 0x1020
        0x00002d4a:    a01a        ..      ADR      r0,{pc}+0x6a ; 0x2db4
        0x00002d4c:    f7fef968    ..h.    BL       __0printf$5 ; 0x1020
        0x00002d50:    a021        !.      ADR      r0,{pc}+0x88 ; 0x2dd8
        0x00002d52:    f7fef965    ..e.    BL       __0printf$5 ; 0x1020
        0x00002d56:    a029        ).      ADR      r0,{pc}+0xa6 ; 0x2dfc
        0x00002d58:    f7fef962    ..b.    BL       __0printf$5 ; 0x1020
        0x00002d5c:    bd10        ..      POP      {r4,pc}
    $d
        0x00002d5e:    0000        ..      DCW    0
        0x00002d60:    0000338c    .3..    DCD    13196
        0x00002d64:    09232323    ###.    DCD    153297699
        0x00002d68:    09090909    ....    DCD    151587081
        0x00002d6c:    09090909    ....    DCD    151587081
        0x00002d70:    09090909    ....    DCD    151587081
        0x00002d74:    09090909    ....    DCD    151587081
        0x00002d78:    09090909    ....    DCD    151587081
        0x00002d7c:    09090909    ....    DCD    151587081
        0x00002d80:    09090909    ....    DCD    151587081
        0x00002d84:    09090909    ....    DCD    151587081
        0x00002d88:    09090909    ....    DCD    151587081
        0x00002d8c:    09090909    ....    DCD    151587081
        0x00002d90:    00000a09    ....    DCD    2569
        0x00002d94:    000033e4    .3..    DCD    13284
        0x00002d98:    65725009    .Pre    DCD    1701990409
        0x00002d9c:    6c207373    ss l    DCD    1814066035
        0x00002da0:    206f7420     to     DCD    544175136
        0x00002da4:    7473696c    list    DCD    1953720684
        0x00002da8:    6c696620     fil    DCD    1818846752
        0x00002dac:    29732865    e(s)    DCD    695412837
        0x00002db0:    00000a20     ...    DCD    2592
        0x00002db4:    65725009    .Pre    DCD    1701990409
        0x00002db8:    65207373    ss e    DCD    1696625523
        0x00002dbc:    206f7420     to     DCD    544175136
        0x00002dc0:    72636e65    encr    DCD    1919118949
        0x00002dc4:    20747079    ypt     DCD    544501881
        0x00002dc8:    656c6966    file    DCD    1701603686
        0x00002dcc:    20297328    (s)     DCD    539587368
        0x00002dd0:    46555028    (PUF    DCD    1179996200
        0x00002dd4:    00000a29    )...    DCD    2601
        0x00002dd8:    65725009    .Pre    DCD    1701990409
        0x00002ddc:    64207373    ss d    DCD    1679848307
        0x00002de0:    206f7420     to     DCD    544175136
        0x00002de4:    72636564    decr    DCD    1919116644
        0x00002de8:    20747079    ypt     DCD    544501881
        0x00002dec:    656c6966    file    DCD    1701603686
        0x00002df0:    20297328    (s)     DCD    539587368
        0x00002df4:    46555028    (PUF    DCD    1179996200
        0x00002df8:    00000a29    )...    DCD    2601
        0x00002dfc:    65725009    .Pre    DCD    1701990409
        0x00002e00:    73207373    ss s    DCD    1931506547
        0x00002e04:    206f7420     to     DCD    544175136
        0x00002e08:    776f6873    show    DCD    2003789939
        0x00002e0c:    66757020     puf    DCD    1718972448
        0x00002e10:    79656b20     key    DCD    2036689696
        0x00002e14:    00000a20     ...    DCD    2592
    $t
    i.puf_decrypt
    puf_decrypt
        0x00002e18:    b510        ..      PUSH     {r4,lr}
        0x00002e1a:    b088        ..      SUB      sp,sp,#0x20
        0x00002e1c:    4604        .F      MOV      r4,r0
        0x00002e1e:    2102        .!      MOVS     r1,#2
        0x00002e20:    4668        hF      MOV      r0,sp
        0x00002e22:    7001        .p      STRB     r1,[r0,#0]
        0x00002e24:    2101        .!      MOVS     r1,#1
        0x00002e26:    7041        Ap      STRB     r1,[r0,#1]
        0x00002e28:    2100        .!      MOVS     r1,#0
        0x00002e2a:    7081        .p      STRB     r1,[r0,#2]
        0x00002e2c:    a00a        ..      ADR      r0,{pc}+0x2c ; 0x2e58
        0x00002e2e:    c803        ..      LDM      r0,{r0,r1}
        0x00002e30:    9103        ..      STR      r1,[sp,#0xc]
        0x00002e32:    9002        ..      STR      r0,[sp,#8]
        0x00002e34:    a00b        ..      ADR      r0,{pc}+0x30 ; 0x2e64
        0x00002e36:    c806        ..      LDM      r0!,{r1,r2}
        0x00002e38:    9205        ..      STR      r2,[sp,#0x14]
        0x00002e3a:    9104        ..      STR      r1,[sp,#0x10]
        0x00002e3c:    a006        ..      ADR      r0,{pc}+0x1c ; 0x2e58
        0x00002e3e:    c806        ..      LDM      r0!,{r1,r2}
        0x00002e40:    9207        ..      STR      r2,[sp,#0x1c]
        0x00002e42:    9106        ..      STR      r1,[sp,#0x18]
        0x00002e44:    4668        hF      MOV      r0,sp
        0x00002e46:    f7fefc03    ....    BL       apDes_Config ; 0x1650
        0x00002e4a:    2240        @"      MOVS     r2,#0x40
        0x00002e4c:    4621        !F      MOV      r1,r4
        0x00002e4e:    4620         F      MOV      r0,r4
        0x00002e50:    f7fefc3a    ..:.    BL       apDes_Encrypt_Decrypt_Data ; 0x16c8
        0x00002e54:    b008        ..      ADD      sp,sp,#0x20
        0x00002e56:    bd10        ..      POP      {r4,pc}
    $d
        0x00002e58:    33323130    0123    DCD    858927408
        0x00002e5c:    38363534    4568    DCD    943076660
        0x00002e60:    00000000    ....    DCD    0
        0x00002e64:    63646566    fedc    DCD    1667523942
        0x00002e68:    38396162    ba98    DCD    943284578
        0x00002e6c:    00000000    ....    DCD    0
    $t
    i.puf_encrypt
    puf_encrypt
        0x00002e70:    b510        ..      PUSH     {r4,lr}
        0x00002e72:    b088        ..      SUB      sp,sp,#0x20
        0x00002e74:    4604        .F      MOV      r4,r0
        0x00002e76:    2102        .!      MOVS     r1,#2
        0x00002e78:    4668        hF      MOV      r0,sp
        0x00002e7a:    7001        .p      STRB     r1,[r0,#0]
        0x00002e7c:    2101        .!      MOVS     r1,#1
        0x00002e7e:    7041        Ap      STRB     r1,[r0,#1]
        0x00002e80:    7081        .p      STRB     r1,[r0,#2]
        0x00002e82:    a00b        ..      ADR      r0,{pc}+0x2e ; 0x2eb0
        0x00002e84:    c803        ..      LDM      r0,{r0,r1}
        0x00002e86:    9103        ..      STR      r1,[sp,#0xc]
        0x00002e88:    9002        ..      STR      r0,[sp,#8]
        0x00002e8a:    a00c        ..      ADR      r0,{pc}+0x32 ; 0x2ebc
        0x00002e8c:    c806        ..      LDM      r0!,{r1,r2}
        0x00002e8e:    9205        ..      STR      r2,[sp,#0x14]
        0x00002e90:    9104        ..      STR      r1,[sp,#0x10]
        0x00002e92:    a007        ..      ADR      r0,{pc}+0x1e ; 0x2eb0
        0x00002e94:    c806        ..      LDM      r0!,{r1,r2}
        0x00002e96:    9207        ..      STR      r2,[sp,#0x1c]
        0x00002e98:    9106        ..      STR      r1,[sp,#0x18]
        0x00002e9a:    4668        hF      MOV      r0,sp
        0x00002e9c:    f7fefbd8    ....    BL       apDes_Config ; 0x1650
        0x00002ea0:    2240        @"      MOVS     r2,#0x40
        0x00002ea2:    4621        !F      MOV      r1,r4
        0x00002ea4:    4620         F      MOV      r0,r4
        0x00002ea6:    f7fefc0f    ....    BL       apDes_Encrypt_Decrypt_Data ; 0x16c8
        0x00002eaa:    b008        ..      ADD      sp,sp,#0x20
        0x00002eac:    bd10        ..      POP      {r4,pc}
    $d
        0x00002eae:    0000        ..      DCW    0
        0x00002eb0:    33323130    0123    DCD    858927408
        0x00002eb4:    38363534    4568    DCD    943076660
        0x00002eb8:    00000000    ....    DCD    0
        0x00002ebc:    63646566    fedc    DCD    1667523942
        0x00002ec0:    38396162    ba98    DCD    943284578
        0x00002ec4:    00000000    ....    DCD    0
    $t
    i.puf_encrypt_decrypt_file
    puf_encrypt_decrypt_file
        0x00002ec8:    b5ff        ..      PUSH     {r0-r7,lr}
        0x00002eca:    b0ff        ..      SUB      sp,sp,#0x1fc
        0x00002ecc:    b08c        ..      SUB      sp,sp,#0x30
        0x00002ece:    4615        .F      MOV      r5,r2
        0x00002ed0:    2101        .!      MOVS     r1,#1
        0x00002ed2:    0249        I.      LSLS     r1,r1,#9
        0x00002ed4:    a80a        ..      ADD      r0,sp,#0x28
        0x00002ed6:    f7fdf94f    ..O.    BL       __aeabi_memclr ; 0x178
        0x00002eda:    200a        .       MOVS     r0,#0xa
        0x00002edc:    f7fdfd04    ....    BL       NVIC_ClearPendingIRQ ; 0x8e8
        0x00002ee0:    200b        .       MOVS     r0,#0xb
        0x00002ee2:    f7fdfd01    ....    BL       NVIC_ClearPendingIRQ ; 0x8e8
        0x00002ee6:    200a        .       MOVS     r0,#0xa
        0x00002ee8:    f7fdfd12    ....    BL       NVIC_EnableIRQ ; 0x910
        0x00002eec:    200b        .       MOVS     r0,#0xb
        0x00002eee:    f7fdfd0f    ....    BL       NVIC_EnableIRQ ; 0x910
        0x00002ef2:    b662        b.      CPSIE    i
        0x00002ef4:    2000        .       MOVS     r0,#0
        0x00002ef6:    498d        .I      LDR      r1,[pc,#564] ; [0x312c] = 0x20000028
        0x00002ef8:    6008        .`      STR      r0,[r1,#0]
        0x00002efa:    498d        .I      LDR      r1,[pc,#564] ; [0x3130] = 0x2000002c
        0x00002efc:    6008        .`      STR      r0,[r1,#0]
        0x00002efe:    488d        .H      LDR      r0,[pc,#564] ; [0x3134] = 0x40009000
        0x00002f00:    f7fef85a    ..Z.    BL       TMR_Clr_CNT ; 0xfb8
        0x00002f04:    2100        .!      MOVS     r1,#0
        0x00002f06:    43c9        .C      MVNS     r1,r1
        0x00002f08:    488a        .H      LDR      r0,[pc,#552] ; [0x3134] = 0x40009000
        0x00002f0a:    f7fef876    ..v.    BL       TMR_Set_CMP ; 0xffa
        0x00002f0e:    2100        .!      MOVS     r1,#0
        0x00002f10:    4888        .H      LDR      r0,[pc,#544] ; [0x3134] = 0x40009000
        0x00002f12:    f7fef874    ..t.    BL       TMR_Set_Op_Mode ; 0xffe
        0x00002f16:    4888        .H      LDR      r0,[pc,#544] ; [0x3138] = 0x4000a000
        0x00002f18:    f7fef84e    ..N.    BL       TMR_Clr_CNT ; 0xfb8
        0x00002f1c:    2100        .!      MOVS     r1,#0
        0x00002f1e:    43c9        .C      MVNS     r1,r1
        0x00002f20:    4885        .H      LDR      r0,[pc,#532] ; [0x3138] = 0x4000a000
        0x00002f22:    f7fef86a    ..j.    BL       TMR_Set_CMP ; 0xffa
        0x00002f26:    2100        .!      MOVS     r1,#0
        0x00002f28:    4883        .H      LDR      r0,[pc,#524] ; [0x3138] = 0x4000a000
        0x00002f2a:    f7fef868    ..h.    BL       TMR_Set_Op_Mode ; 0xffe
        0x00002f2e:    4881        .H      LDR      r0,[pc,#516] ; [0x3134] = 0x40009000
        0x00002f30:    f7fef84c    ..L.    BL       TMR_Enable ; 0xfcc
        0x00002f34:    487f        .H      LDR      r0,[pc,#508] ; [0x3134] = 0x40009000
        0x00002f36:    f7fef85b    ..[.    BL       TMR_Int_Enable ; 0xff0
        0x00002f3a:    487f        .H      LDR      r0,[pc,#508] ; [0x3138] = 0x4000a000
        0x00002f3c:    f7fef858    ..X.    BL       TMR_Int_Enable ; 0xff0
        0x00002f40:    9896        ..      LDR      r0,[sp,#0x258]
        0x00002f42:    2800        .(      CMP      r0,#0
        0x00002f44:    d10e        ..      BNE      0x2f64 ; puf_encrypt_decrypt_file + 156
        0x00002f46:    9500        ..      STR      r5,[sp,#0]
        0x00002f48:    9b95        ..      LDR      r3,[sp,#0x254]
        0x00002f4a:    9a94        ..      LDR      r2,[sp,#0x250]
        0x00002f4c:    998e        ..      LDR      r1,[sp,#0x238]
        0x00002f4e:    988b        ..      LDR      r0,[sp,#0x22c]
        0x00002f50:    f7fefe48    ..H.    BL       del_puf_sector ; 0x1be4
        0x00002f54:    2800        .(      CMP      r0,#0
        0x00002f56:    d105        ..      BNE      0x2f64 ; puf_encrypt_decrypt_file + 156
        0x00002f58:    a078        x.      ADR      r0,{pc}+0x1e4 ; 0x313c
        0x00002f5a:    f7fef861    ..a.    BL       __0printf$5 ; 0x1020
        0x00002f5e:    b07f        ..      ADD      sp,sp,#0x1fc
        0x00002f60:    b010        ..      ADD      sp,sp,#0x40
        0x00002f62:    bdf0        ..      POP      {r4-r7,pc}
        0x00002f64:    988b        ..      LDR      r0,[sp,#0x22c]
        0x00002f66:    69c4        .i      LDR      r4,[r0,#0x1c]
        0x00002f68:    9405        ..      STR      r4,[sp,#0x14]
        0x00002f6a:    988b        ..      LDR      r0,[sp,#0x22c]
        0x00002f6c:    6980        .i      LDR      r0,[r0,#0x18]
        0x00002f6e:    0a40        @.      LSRS     r0,r0,#9
        0x00002f70:    9004        ..      STR      r0,[sp,#0x10]
        0x00002f72:    9804        ..      LDR      r0,[sp,#0x10]
        0x00002f74:    9003        ..      STR      r0,[sp,#0xc]
        0x00002f76:    9995        ..      LDR      r1,[sp,#0x254]
        0x00002f78:    9804        ..      LDR      r0,[sp,#0x10]
        0x00002f7a:    f7fdf8ad    ....    BL       __aeabi_uidiv ; 0xd8
        0x00002f7e:    9104        ..      STR      r1,[sp,#0x10]
        0x00002f80:    9c05        ..      LDR      r4,[sp,#0x14]
        0x00002f82:    09e7        ..      LSRS     r7,r4,#7
        0x00002f84:    9894        ..      LDR      r0,[sp,#0x250]
        0x00002f86:    19c1        ..      ADDS     r1,r0,r7
        0x00002f88:    462a        *F      MOV      r2,r5
        0x00002f8a:    2001        .       MOVS     r0,#1
        0x00002f8c:    0240        @.      LSLS     r0,r0,#9
        0x00002f8e:    f7fdfee5    ....    BL       SD_spi_read_single_blk ; 0xd5c
        0x00002f92:    2600        .&      MOVS     r6,#0
        0x00002f94:    9a8b        ..      LDR      r2,[sp,#0x22c]
        0x00002f96:    3209        .2      ADDS     r2,r2,#9
        0x00002f98:    a06c        l.      ADR      r0,{pc}+0x1b4 ; 0x314c
        0x00002f9a:    998b        ..      LDR      r1,[sp,#0x22c]
        0x00002f9c:    f7fef840    ..@.    BL       __0printf$5 ; 0x1020
        0x00002fa0:    2000        .       MOVS     r0,#0
        0x00002fa2:    9007        ..      STR      r0,[sp,#0x1c]
        0x00002fa4:    9008        ..      STR      r0,[sp,#0x20]
        0x00002fa6:    bf00        ..      NOP      
        0x00002fa8:    9896        ..      LDR      r0,[sp,#0x258]
        0x00002faa:    2800        .(      CMP      r0,#0
        0x00002fac:    d103        ..      BNE      0x2fb6 ; puf_encrypt_decrypt_file + 238
        0x00002fae:    a06b        k.      ADR      r0,{pc}+0x1ae ; 0x315c
        0x00002fb0:    f7fef836    ..6.    BL       __0printf$5 ; 0x1020
        0x00002fb4:    e002        ..      B        0x2fbc ; puf_encrypt_decrypt_file + 244
        0x00002fb6:    a06f        o.      ADR      r0,{pc}+0x1be ; 0x3174
        0x00002fb8:    f7fef832    ..2.    BL       __0printf$5 ; 0x1020
        0x00002fbc:    a073        s.      ADR      r0,{pc}+0x1d0 ; 0x318c
        0x00002fbe:    f7fef82f    ../.    BL       __0printf$5 ; 0x1020
        0x00002fc2:    bf00        ..      NOP      
        0x00002fc4:    9405        ..      STR      r4,[sp,#0x14]
        0x00002fc6:    9c05        ..      LDR      r4,[sp,#0x14]
        0x00002fc8:    1ea0        ..      SUBS     r0,r4,#2
        0x00002fca:    9995        ..      LDR      r1,[sp,#0x254]
        0x00002fcc:    4348        HC      MULS     r0,r1,r0
        0x00002fce:    998e        ..      LDR      r1,[sp,#0x238]
        0x00002fd0:    1840        @.      ADDS     r0,r0,r1
        0x00002fd2:    9006        ..      STR      r0,[sp,#0x18]
        0x00002fd4:    9c05        ..      LDR      r4,[sp,#0x14]
        0x00002fd6:    00a0        ..      LSLS     r0,r4,#2
        0x00002fd8:    0279        y.      LSLS     r1,r7,#9
        0x00002fda:    1a46        F.      SUBS     r6,r0,r1
        0x00002fdc:    1cf0        ..      ADDS     r0,r6,#3
        0x00002fde:    5c28        (\      LDRB     r0,[r5,r0]
        0x00002fe0:    0600        ..      LSLS     r0,r0,#24
        0x00002fe2:    1cb1        ..      ADDS     r1,r6,#2
        0x00002fe4:    5c69        i\      LDRB     r1,[r5,r1]
        0x00002fe6:    0409        ..      LSLS     r1,r1,#16
        0x00002fe8:    4308        .C      ORRS     r0,r0,r1
        0x00002fea:    1c71        q.      ADDS     r1,r6,#1
        0x00002fec:    5c69        i\      LDRB     r1,[r5,r1]
        0x00002fee:    0209        ..      LSLS     r1,r1,#8
        0x00002ff0:    4308        .C      ORRS     r0,r0,r1
        0x00002ff2:    5da9        .]      LDRB     r1,[r5,r6]
        0x00002ff4:    4308        .C      ORRS     r0,r0,r1
        0x00002ff6:    4604        .F      MOV      r4,r0
        0x00002ff8:    2000        .       MOVS     r0,#0
        0x00002ffa:    9009        ..      STR      r0,[sp,#0x24]
        0x00002ffc:    e038        8.      B        0x3070 ; puf_encrypt_decrypt_file + 424
        0x00002ffe:    b672        r.      CPSID    i
        0x00003000:    4868        hH      LDR      r0,[pc,#416] ; [0x31a4] = 0xfffffff
        0x00003002:    4284        .B      CMP      r4,r0
        0x00003004:    d105        ..      BNE      0x3012 ; puf_encrypt_decrypt_file + 330
        0x00003006:    4284        .B      CMP      r4,r0
        0x00003008:    d12f        /.      BNE      0x306a ; puf_encrypt_decrypt_file + 418
        0x0000300a:    9904        ..      LDR      r1,[sp,#0x10]
        0x0000300c:    9809        ..      LDR      r0,[sp,#0x24]
        0x0000300e:    4288        .B      CMP      r0,r1
        0x00003010:    d82b        +.      BHI      0x306a ; puf_encrypt_decrypt_file + 418
        0x00003012:    2001        .       MOVS     r0,#1
        0x00003014:    0240        @.      LSLS     r0,r0,#9
        0x00003016:    9a8c        ..      LDR      r2,[sp,#0x230]
        0x00003018:    9906        ..      LDR      r1,[sp,#0x18]
        0x0000301a:    f7fdfe9f    ....    BL       SD_spi_read_single_blk ; 0xd5c
        0x0000301e:    b662        b.      CPSIE    i
        0x00003020:    4845        EH      LDR      r0,[pc,#276] ; [0x3138] = 0x4000a000
        0x00003022:    f7fdffd3    ....    BL       TMR_Enable ; 0xfcc
        0x00003026:    a90a        ..      ADD      r1,sp,#0x28
        0x00003028:    988c        ..      LDR      r0,[sp,#0x230]
        0x0000302a:    f7fefcdf    ....    BL       buf8_to_buf64 ; 0x19ec
        0x0000302e:    9896        ..      LDR      r0,[sp,#0x258]
        0x00003030:    2800        .(      CMP      r0,#0
        0x00003032:    d103        ..      BNE      0x303c ; puf_encrypt_decrypt_file + 372
        0x00003034:    a80a        ..      ADD      r0,sp,#0x28
        0x00003036:    f7fffeef    ....    BL       puf_decrypt ; 0x2e18
        0x0000303a:    e002        ..      B        0x3042 ; puf_encrypt_decrypt_file + 378
        0x0000303c:    a80a        ..      ADD      r0,sp,#0x28
        0x0000303e:    f7ffff17    ....    BL       puf_encrypt ; 0x2e70
        0x00003042:    a90a        ..      ADD      r1,sp,#0x28
        0x00003044:    988c        ..      LDR      r0,[sp,#0x230]
        0x00003046:    f7fefcb2    ....    BL       buf64_to_buf8 ; 0x19ae
        0x0000304a:    b672        r.      CPSID    i
        0x0000304c:    483a        :H      LDR      r0,[pc,#232] ; [0x3138] = 0x4000a000
        0x0000304e:    f7fdffb8    ....    BL       TMR_Disable ; 0xfc2
        0x00003052:    9806        ..      LDR      r0,[sp,#0x18]
        0x00003054:    1c42        B.      ADDS     r2,r0,#1
        0x00003056:    4601        .F      MOV      r1,r0
        0x00003058:    9206        ..      STR      r2,[sp,#0x18]
        0x0000305a:    2001        .       MOVS     r0,#1
        0x0000305c:    0240        @.      LSLS     r0,r0,#9
        0x0000305e:    9a8c        ..      LDR      r2,[sp,#0x230]
        0x00003060:    f7fdff12    ....    BL       SD_spi_write_single_blk ; 0xe88
        0x00003064:    9808        ..      LDR      r0,[sp,#0x20]
        0x00003066:    1c40        @.      ADDS     r0,r0,#1
        0x00003068:    9008        ..      STR      r0,[sp,#0x20]
        0x0000306a:    9809        ..      LDR      r0,[sp,#0x24]
        0x0000306c:    1c40        @.      ADDS     r0,r0,#1
        0x0000306e:    9009        ..      STR      r0,[sp,#0x24]
        0x00003070:    9995        ..      LDR      r1,[sp,#0x254]
        0x00003072:    9809        ..      LDR      r0,[sp,#0x24]
        0x00003074:    4288        .B      CMP      r0,r1
        0x00003076:    d3c2        ..      BCC      0x2ffe ; puf_encrypt_decrypt_file + 310
        0x00003078:    20ff        .       MOVS     r0,#0xff
        0x0000307a:    30fd        .0      ADDS     r0,r0,#0xfd
        0x0000307c:    4286        .B      CMP      r6,r0
        0x0000307e:    d109        ..      BNE      0x3094 ; puf_encrypt_decrypt_file + 460
        0x00003080:    4848        HH      LDR      r0,[pc,#288] ; [0x31a4] = 0xfffffff
        0x00003082:    4284        .B      CMP      r4,r0
        0x00003084:    d006        ..      BEQ      0x3094 ; puf_encrypt_decrypt_file + 460
        0x00003086:    1c7f        ..      ADDS     r7,r7,#1
        0x00003088:    9894        ..      LDR      r0,[sp,#0x250]
        0x0000308a:    19c1        ..      ADDS     r1,r0,r7
        0x0000308c:    462a        *F      MOV      r2,r5
        0x0000308e:    1d30        0.      ADDS     r0,r6,#4
        0x00003090:    f7fdfe64    ..d.    BL       SD_spi_read_single_blk ; 0xd5c
        0x00003094:    9807        ..      LDR      r0,[sp,#0x1c]
        0x00003096:    1c40        @.      ADDS     r0,r0,#1
        0x00003098:    9007        ..      STR      r0,[sp,#0x1c]
        0x0000309a:    b662        b.      CPSIE    i
        0x0000309c:    9807        ..      LDR      r0,[sp,#0x1c]
        0x0000309e:    280f        .(      CMP      r0,#0xf
        0x000030a0:    d111        ..      BNE      0x30c6 ; puf_encrypt_decrypt_file + 510
        0x000030a2:    2164        d!      MOVS     r1,#0x64
        0x000030a4:    9808        ..      LDR      r0,[sp,#0x20]
        0x000030a6:    4348        HC      MULS     r0,r1,r0
        0x000030a8:    9002        ..      STR      r0,[sp,#8]
        0x000030aa:    9903        ..      LDR      r1,[sp,#0xc]
        0x000030ac:    9802        ..      LDR      r0,[sp,#8]
        0x000030ae:    f7fdf813    ....    BL       __aeabi_uidiv ; 0xd8
        0x000030b2:    9002        ..      STR      r0,[sp,#8]
        0x000030b4:    2000        .       MOVS     r0,#0
        0x000030b6:    9007        ..      STR      r0,[sp,#0x1c]
        0x000030b8:    a03b        ;.      ADR      r0,{pc}+0xf0 ; 0x31a8
        0x000030ba:    f7fdffb1    ....    BL       __0printf$5 ; 0x1020
        0x000030be:    a03b        ;.      ADR      r0,{pc}+0xee ; 0x31ac
        0x000030c0:    9902        ..      LDR      r1,[sp,#8]
        0x000030c2:    f7fdffad    ....    BL       __0printf$5 ; 0x1020
        0x000030c6:    4837        7H      LDR      r0,[pc,#220] ; [0x31a4] = 0xfffffff
        0x000030c8:    4284        .B      CMP      r4,r0
        0x000030ca:    d000        ..      BEQ      0x30ce ; puf_encrypt_decrypt_file + 518
        0x000030cc:    e77a        z.      B        0x2fc4 ; puf_encrypt_decrypt_file + 252
        0x000030ce:    9896        ..      LDR      r0,[sp,#0x258]
        0x000030d0:    2801        .(      CMP      r0,#1
        0x000030d2:    d106        ..      BNE      0x30e2 ; puf_encrypt_decrypt_file + 538
        0x000030d4:    9500        ..      STR      r5,[sp,#0]
        0x000030d6:    9b95        ..      LDR      r3,[sp,#0x254]
        0x000030d8:    9a94        ..      LDR      r2,[sp,#0x250]
        0x000030da:    998e        ..      LDR      r1,[sp,#0x238]
        0x000030dc:    988b        ..      LDR      r0,[sp,#0x22c]
        0x000030de:    f7fef93b    ..;.    BL       add_puf_sector ; 0x1358
        0x000030e2:    4814        .H      LDR      r0,[pc,#80] ; [0x3134] = 0x40009000
        0x000030e4:    f7fdff6d    ..m.    BL       TMR_Disable ; 0xfc2
        0x000030e8:    4813        .H      LDR      r0,[pc,#76] ; [0x3138] = 0x4000a000
        0x000030ea:    f7fdff6a    ..j.    BL       TMR_Disable ; 0xfc2
        0x000030ee:    4811        .H      LDR      r0,[pc,#68] ; [0x3134] = 0x40009000
        0x000030f0:    f7fdff79    ..y.    BL       TMR_Int_Disable ; 0xfe6
        0x000030f4:    4810        .H      LDR      r0,[pc,#64] ; [0x3138] = 0x4000a000
        0x000030f6:    f7fdff76    ..v.    BL       TMR_Int_Disable ; 0xfe6
        0x000030fa:    b672        r.      CPSID    i
        0x000030fc:    200a        .       MOVS     r0,#0xa
        0x000030fe:    f7fdfbfd    ....    BL       NVIC_DisableIRQ ; 0x8fc
        0x00003102:    200b        .       MOVS     r0,#0xb
        0x00003104:    f7fdfbfa    ....    BL       NVIC_DisableIRQ ; 0x8fc
        0x00003108:    480a        .H      LDR      r0,[pc,#40] ; [0x3134] = 0x40009000
        0x0000310a:    f7fdff64    ..d.    BL       TMR_Get_CNT ; 0xfd6
        0x0000310e:    480a        .H      LDR      r0,[pc,#40] ; [0x3138] = 0x4000a000
        0x00003110:    f7fdff61    ..a.    BL       TMR_Get_CNT ; 0xfd6
        0x00003114:    4807        .H      LDR      r0,[pc,#28] ; [0x3134] = 0x40009000
        0x00003116:    f7fdff5e    ..^.    BL       TMR_Get_CNT ; 0xfd6
        0x0000311a:    4807        .H      LDR      r0,[pc,#28] ; [0x3138] = 0x4000a000
        0x0000311c:    f7fdff5b    ..[.    BL       TMR_Get_CNT ; 0xfd6
        0x00003120:    a028        (.      ADR      r0,{pc}+0xa4 ; 0x31c4
        0x00003122:    f7fdff7d    ..}.    BL       __0printf$5 ; 0x1020
        0x00003126:    bf00        ..      NOP      
        0x00003128:    e719        ..      B        0x2f5e ; puf_encrypt_decrypt_file + 150
    $d
        0x0000312a:    0000        ..      DCW    0
        0x0000312c:    20000028    (..     DCD    536870952
        0x00003130:    2000002c    ,..     DCD    536870956
        0x00003134:    40009000    ...@    DCD    1073778688
        0x00003138:    4000a000    ...@    DCD    1073782784
        0x0000313c:    72636544    Decr    DCD    1919116612
        0x00003140:    20747079    ypt     DCD    544501881
        0x00003144:    74697845    Exit    DCD    1953069125
        0x00003148:    0000000a    ....    DCD    10
        0x0000314c:    656c6946    File    DCD    1701603654
        0x00003150:    7325203a    : %s    DCD    1931812922
        0x00003154:    0a73252e    .%s.    DCD    175318318
        0x00003158:    00000000    ....    DCD    0
        0x0000315c:    72636544    Decr    DCD    1919116612
        0x00003160:    69747079    ypti    DCD    1769238649
        0x00003164:    2e2e676e    ng..    DCD    774793070
        0x00003168:    2e2e2e2e    ....    DCD    774778414
        0x0000316c:    2e2e2e2e    ....    DCD    774778414
        0x00003170:    000a2e2e    ....    DCD    667182
        0x00003174:    72636e45    Encr    DCD    1919118917
        0x00003178:    69747079    ypti    DCD    1769238649
        0x0000317c:    2e2e676e    ng..    DCD    774793070
        0x00003180:    2e2e2e2e    ....    DCD    774778414
        0x00003184:    2e2e2e2e    ....    DCD    774778414
        0x00003188:    000a2e2e    ....    DCD    667182
        0x0000318c:    636f7250    Proc    DCD    1668248144
        0x00003190:    69737365    essi    DCD    1769173861
        0x00003194:    2e2e676e    ng..    DCD    774793070
        0x00003198:    2e2e2e2e    ....    DCD    774778414
        0x0000319c:    2525302e    .0%%    DCD    623194158
        0x000031a0:    00000000    ....    DCD    0
        0x000031a4:    0fffffff    ....    DCD    268435455
        0x000031a8:    0000000d    ....    DCD    13
        0x000031ac:    636f7250    Proc    DCD    1668248144
        0x000031b0:    69737365    essi    DCD    1769173861
        0x000031b4:    2e2e676e    ng..    DCD    774793070
        0x000031b8:    2e2e2e2e    ....    DCD    774778414
        0x000031bc:    2564252e    .%d%    DCD    627320110
        0x000031c0:    00000025    %...    DCD    37
        0x000031c4:    6f72500d    .Pro    DCD    1869762573
        0x000031c8:    73736563    cess    DCD    1936942435
        0x000031cc:    2e676e69    ing.    DCD    778530409
        0x000031d0:    2e2e2e2e    ....    DCD    774778414
        0x000031d4:    6f442e2e    ..Do    DCD    1866739246
        0x000031d8:    000a656e    ne..    DCD    681326
    $t
    i.puf_file_list
    puf_file_list
        0x000031dc:    b510        ..      PUSH     {r4,lr}
        0x000031de:    4601        .F      MOV      r1,r0
        0x000031e0:    4608        .F      MOV      r0,r1
        0x000031e2:    460a        .F      MOV      r2,r1
        0x000031e4:    bf00        ..      NOP      
        0x000031e6:    7a4c        Lz      LDRB     r4,[r1,#9]
        0x000031e8:    2c50        P,      CMP      r4,#0x50
        0x000031ea:    d107        ..      BNE      0x31fc ; puf_file_list + 32
        0x000031ec:    7a8c        .z      LDRB     r4,[r1,#0xa]
        0x000031ee:    2c55        U,      CMP      r4,#0x55
        0x000031f0:    d104        ..      BNE      0x31fc ; puf_file_list + 32
        0x000031f2:    7acc        .z      LDRB     r4,[r1,#0xb]
        0x000031f4:    2c46        F,      CMP      r4,#0x46
        0x000031f6:    d101        ..      BNE      0x31fc ; puf_file_list + 32
        0x000031f8:    2401        .$      MOVS     r4,#1
        0x000031fa:    e000        ..      B        0x31fe ; puf_file_list + 34
        0x000031fc:    2400        .$      MOVS     r4,#0
        0x000031fe:    2c00        .,      CMP      r4,#0
        0x00003200:    d109        ..      BNE      0x3216 ; puf_file_list + 58
        0x00003202:    4288        .B      CMP      r0,r1
        0x00003204:    d102        ..      BNE      0x320c ; puf_file_list + 48
        0x00003206:    6a08        .j      LDR      r0,[r1,#0x20]
        0x00003208:    460a        .F      MOV      r2,r1
        0x0000320a:    e005        ..      B        0x3218 ; puf_file_list + 60
        0x0000320c:    6a0c        .j      LDR      r4,[r1,#0x20]
        0x0000320e:    6214        .b      STR      r4,[r2,#0x20]
        0x00003210:    6a0b        .j      LDR      r3,[r1,#0x20]
        0x00003212:    625a        Zb      STR      r2,[r3,#0x24]
        0x00003214:    e000        ..      B        0x3218 ; puf_file_list + 60
        0x00003216:    460a        .F      MOV      r2,r1
        0x00003218:    6a09        .j      LDR      r1,[r1,#0x20]
        0x0000321a:    2900        .)      CMP      r1,#0
        0x0000321c:    d1e3        ..      BNE      0x31e6 ; puf_file_list + 10
        0x0000321e:    bd10        ..      POP      {r4,pc}
    i.return_chosen_file_ptr
    return_chosen_file_ptr
        0x00003220:    b538        8.      PUSH     {r3-r5,lr}
        0x00003222:    4604        .F      MOV      r4,r0
        0x00003224:    4620         F      MOV      r0,r4
        0x00003226:    f000f835    ..5.    BL       show_file_list ; 0x3294
        0x0000322a:    a007        ..      ADR      r0,{pc}+0x1e ; 0x3248
        0x0000322c:    f7fdfef8    ....    BL       __0printf$5 ; 0x1020
        0x00003230:    4669        iF      MOV      r1,sp
        0x00003232:    a00f        ..      ADR      r0,{pc}+0x3e ; 0x3270
        0x00003234:    f7fcffac    ....    BL       __0scanf ; 0x190
        0x00003238:    a00e        ..      ADR      r0,{pc}+0x3c ; 0x3274
        0x0000323a:    f7fdfef1    ....    BL       __0printf$5 ; 0x1020
        0x0000323e:    9800        ..      LDR      r0,[sp,#0]
        0x00003240:    b2c5        ..      UXTB     r5,r0
        0x00003242:    4628        (F      MOV      r0,r5
        0x00003244:    bd38        8.      POP      {r3-r5,pc}
    $d
        0x00003246:    0000        ..      DCW    0
        0x00003248:    65746e45    Ente    DCD    1702129221
        0x0000324c:    20612072    r a     DCD    543236210
        0x00003250:    626d756e    numb    DCD    1651340654
        0x00003254:    74207265    er t    DCD    1948283493
        0x00003258:    6573206f    o se    DCD    1702043759
        0x0000325c:    7463656c    lect    DCD    1952671084
        0x00003260:    65687420     the    DCD    1701344288
        0x00003264:    6c696620     fil    DCD    1818846752
        0x00003268:    203a2065    e :     DCD    540680293
        0x0000326c:    00000000    ....    DCD    0
        0x00003270:    00006425    %d..    DCD    25637
        0x00003274:    0000000a    ....    DCD    10
    $t
    i.sendchar
    sendchar
        0x00003278:    b570        p.      PUSH     {r4-r6,lr}
        0x0000327a:    4604        .F      MOV      r4,r0
        0x0000327c:    460d        .F      MOV      r5,r1
        0x0000327e:    bf00        ..      NOP      
        0x00003280:    4620         F      MOV      r0,r4
        0x00003282:    f7fefb55    ..U.    BL       apUART_Check_TXFIFO_FULL ; 0x1930
        0x00003286:    2801        .(      CMP      r0,#1
        0x00003288:    d0fa        ..      BEQ      0x3280 ; sendchar + 8
        0x0000328a:    4629        )F      MOV      r1,r5
        0x0000328c:    4620         F      MOV      r0,r4
        0x0000328e:    f7fdfec5    ....    BL       UART_SendData ; 0x101c
        0x00003292:    bd70        p.      POP      {r4-r6,pc}
    i.show_file_list
    show_file_list
        0x00003294:    b570        p.      PUSH     {r4-r6,lr}
        0x00003296:    4604        .F      MOV      r4,r0
        0x00003298:    2500        .%      MOVS     r5,#0
        0x0000329a:    bf00        ..      NOP      
        0x0000329c:    4623        #F      MOV      r3,r4
        0x0000329e:    3309        .3      ADDS     r3,r3,#9
        0x000032a0:    4622        "F      MOV      r2,r4
        0x000032a2:    1c69        i.      ADDS     r1,r5,#1
        0x000032a4:    a003        ..      ADR      r0,{pc}+0x10 ; 0x32b4
        0x000032a6:    f7fdfebb    ....    BL       __0printf$5 ; 0x1020
        0x000032aa:    6a24        $j      LDR      r4,[r4,#0x20]
        0x000032ac:    1c6d        m.      ADDS     r5,r5,#1
        0x000032ae:    2c00        .,      CMP      r4,#0
        0x000032b0:    d1f4        ..      BNE      0x329c ; show_file_list + 8
        0x000032b2:    bd70        p.      POP      {r4-r6,pc}
    $d
        0x000032b4:    202e6425    %d.     DCD    539911205
        0x000032b8:    252e7325    %s.%    DCD    623801125
        0x000032bc:    00000a73    s...    DCD    2675
    $t
    i.show_puf_key
    show_puf_key
        0x000032c0:    b510        ..      PUSH     {r4,lr}
        0x000032c2:    b098        ..      SUB      sp,sp,#0x60
        0x000032c4:    4668        hF      MOV      r0,sp
        0x000032c6:    f7fdfb51    ..Q.    BL       Read_puf_key ; 0x96c
        0x000032ca:    a00c        ..      ADR      r0,{pc}+0x32 ; 0x32fc
        0x000032cc:    f7fdfea8    ....    BL       __0printf$5 ; 0x1020
        0x000032d0:    a00d        ..      ADR      r0,{pc}+0x38 ; 0x3308
        0x000032d2:    f7fdfea5    ....    BL       __0printf$5 ; 0x1020
        0x000032d6:    2400        .$      MOVS     r4,#0
        0x000032d8:    e008        ..      B        0x32ec ; show_puf_key + 44
        0x000032da:    2017        .       MOVS     r0,#0x17
        0x000032dc:    1b00        ..      SUBS     r0,r0,r4
        0x000032de:    0080        ..      LSLS     r0,r0,#2
        0x000032e0:    466a        jF      MOV      r2,sp
        0x000032e2:    5811        .X      LDR      r1,[r2,r0]
        0x000032e4:    a009        ..      ADR      r0,{pc}+0x28 ; 0x330c
        0x000032e6:    f7fdfe9b    ....    BL       __0printf$5 ; 0x1020
        0x000032ea:    1c64        d.      ADDS     r4,r4,#1
        0x000032ec:    2c18        .,      CMP      r4,#0x18
        0x000032ee:    d3f4        ..      BCC      0x32da ; show_puf_key + 26
        0x000032f0:    a008        ..      ADR      r0,{pc}+0x24 ; 0x3314
        0x000032f2:    f7fdfe95    ....    BL       __0printf$5 ; 0x1020
        0x000032f6:    b018        ..      ADD      sp,sp,#0x60
        0x000032f8:    bd10        ..      POP      {r4,pc}
    $d
        0x000032fa:    0000        ..      DCW    0
        0x000032fc:    5550200a    . PU    DCD    1431314442
        0x00003300:    654b2046    F Ke    DCD    1699422278
        0x00003304:    00203a79    y: .    DCD    2112121
        0x00003308:    00007830    0x..    DCD    30768
        0x0000330c:    78382e25    %.8x    DCD    2016947749
        0x00003310:    00000000    ....    DCD    0
        0x00003314:    0000000a    ....    DCD    10
    $t
    i.ssp_config
    ssp_config
        0x00003318:    b53e        >.      PUSH     {r1-r5,lr}
        0x0000331a:    4605        .F      MOV      r5,r0
        0x0000331c:    466c        lF      MOV      r4,sp
        0x0000331e:    480a        .H      LDR      r0,[pc,#40] ; [0x3348] = 0x40018000
        0x00003320:    f7fefad2    ....    BL       apSSP_Initialize ; 0x18c8
        0x00003324:    2000        .       MOVS     r0,#0
        0x00003326:    7060        `p      STRB     r0,[r4,#1]
        0x00003328:    7025        %p      STRB     r5,[r4,#0]
        0x0000332a:    70a0        .p      STRB     r0,[r4,#2]
        0x0000332c:    70e0        .p      STRB     r0,[r4,#3]
        0x0000332e:    7120         q      STRB     r0,[r4,#4]
        0x00003330:    2007        .       MOVS     r0,#7
        0x00003332:    7160        `q      STRB     r0,[r4,#5]
        0x00003334:    2000        .       MOVS     r0,#0
        0x00003336:    71a0        .q      STRB     r0,[r4,#6]
        0x00003338:    71e0        .q      STRB     r0,[r4,#7]
        0x0000333a:    2001        .       MOVS     r0,#1
        0x0000333c:    7220         r      STRB     r0,[r4,#8]
        0x0000333e:    4621        !F      MOV      r1,r4
        0x00003340:    4801        .H      LDR      r0,[pc,#4] ; [0x3348] = 0x40018000
        0x00003342:    f7fefa9d    ....    BL       apSSP_DeviceParametersSet ; 0x1880
        0x00003346:    bd3e        >.      POP      {r1-r5,pc}
    $d
        0x00003348:    40018000    ...@    DCD    1073840128
    $d.realdata
    .constdata
    __ctype_categories
        0x0000334c:    dddddddd    ....    DCD    3722304989
        0x00003350:    ddbbbbdc    ....    DCD    3720068060
        0x00003354:    dddddddd    ....    DCD    3722304989
        0x00003358:    dddddddd    ....    DCD    3722304989
        0x0000335c:    88888898    ....    DCD    2290649240
        0x00003360:    88888888    ....    DCD    2290649224
        0x00003364:    77777777    wwww    DCD    2004318071
        0x00003368:    88888877    w...    DCD    2290649207
        0x0000336c:    56555585    .UUV    DCD    1448433029
        0x00003370:    66666666    ffff    DCD    1717986918
        0x00003374:    66666666    ffff    DCD    1717986918
        0x00003378:    88886866    fh..    DCD    2290640998
        0x0000337c:    32333383    .332    DCD    842216323
        0x00003380:    22222222    """"    DCD    572662306
        0x00003384:    22222222    """"    DCD    572662306
        0x00003388:    8d882822    "(..    DCD    2374510626
    .conststring
        0x0000338c:    2323230a    .###    DCD    589505290
        0x00003390:    23232323    ####    DCD    589505315
        0x00003394:    23232323    ####    DCD    589505315
        0x00003398:    23232323    ####    DCD    589505315
        0x0000339c:    23232323    ####    DCD    589505315
        0x000033a0:    23232323    ####    DCD    589505315
        0x000033a4:    23232323    ####    DCD    589505315
        0x000033a8:    23232323    ####    DCD    589505315
        0x000033ac:    23232323    ####    DCD    589505315
        0x000033b0:    23232323    ####    DCD    589505315
        0x000033b4:    23232323    ####    DCD    589505315
        0x000033b8:    23232323    ####    DCD    589505315
        0x000033bc:    23232323    ####    DCD    589505315
        0x000033c0:    23232323    ####    DCD    589505315
        0x000033c4:    23232323    ####    DCD    589505315
        0x000033c8:    23232323    ####    DCD    589505315
        0x000033cc:    23232323    ####    DCD    589505315
        0x000033d0:    23232323    ####    DCD    589505315
        0x000033d4:    23232323    ####    DCD    589505315
        0x000033d8:    23232323    ####    DCD    589505315
        0x000033dc:    23232323    ####    DCD    589505315
        0x000033e0:    000a2323    ##..    DCD    664355
        0x000033e4:    23232323    ####    DCD    589505315
        0x000033e8:    23232323    ####    DCD    589505315
        0x000033ec:    23232323    ####    DCD    589505315
        0x000033f0:    23232323    ####    DCD    589505315
        0x000033f4:    23232323    ####    DCD    589505315
        0x000033f8:    23232323    ####    DCD    589505315
        0x000033fc:    23232323    ####    DCD    589505315
        0x00003400:    23232323    ####    DCD    589505315
        0x00003404:    23232323    ####    DCD    589505315
        0x00003408:    23232323    ####    DCD    589505315
        0x0000340c:    23232323    ####    DCD    589505315
        0x00003410:    23232323    ####    DCD    589505315
        0x00003414:    23232323    ####    DCD    589505315
        0x00003418:    23232323    ####    DCD    589505315
        0x0000341c:    23232323    ####    DCD    589505315
        0x00003420:    23232323    ####    DCD    589505315
        0x00003424:    23232323    ####    DCD    589505315
        0x00003428:    23232323    ####    DCD    589505315
        0x0000342c:    23232323    ####    DCD    589505315
        0x00003430:    23232323    ####    DCD    589505315
        0x00003434:    23232323    ####    DCD    589505315
        0x00003438:    00000a23    #...    DCD    2595
    Region$$Table$$Base
        0x0000343c:    0000345c    \4..    DCD    13404
        0x00003440:    20000000    ...     DCD    536870912
        0x00003444:    00000078    x...    DCD    120
        0x00003448:    0000105c    \...    DCD    4188
        0x0000344c:    000034d4    .4..    DCD    13524
        0x00003450:    20000078    x..     DCD    536871032
        0x00003454:    00000cf0    ....    DCD    3312
        0x00003458:    0000106c    l...    DCD    4204
    Region$$Table$$Limit

** Section #2 'ER_RW' (SHT_PROGBITS) [SHF_ALLOC + SHF_WRITE]
    Size   : 120 bytes (alignment 4)
    Address: 0x20000000


** Section #3 'ER_ZI' (SHT_NOBITS) [SHF_ALLOC + SHF_WRITE]
    Size   : 3312 bytes (alignment 8)
    Address: 0x20000078


** Section #4 '.debug_abbrev' (SHT_PROGBITS)
    Size   : 1476 bytes


** Section #5 '.debug_frame' (SHT_PROGBITS)
    Size   : 3548 bytes


** Section #6 '.debug_info' (SHT_PROGBITS)
    Size   : 46556 bytes


** Section #7 '.debug_line' (SHT_PROGBITS)
    Size   : 16052 bytes


** Section #8 '.debug_loc' (SHT_PROGBITS)
    Size   : 8036 bytes


** Section #9 '.debug_macinfo' (SHT_PROGBITS)
    Size   : 25176 bytes


** Section #10 '.debug_pubnames' (SHT_PROGBITS)
    Size   : 4085 bytes


** Section #11 '.symtab' (SHT_SYMTAB)
    Size   : 10256 bytes (alignment 4)
    String table #12 '.strtab'
    Last local symbol no. 408


** Section #12 '.strtab' (SHT_STRTAB)
    Size   : 8040 bytes


** Section #13 '.note' (SHT_NOTE)
    Size   : 28 bytes (alignment 4)


** Section #14 '.comment' (SHT_PROGBITS)
    Size   : 24180 bytes


** Section #15 '.shstrtab' (SHT_STRTAB)
    Size   : 156 bytes


