
========================================================================

** ELF Header Information

    File Name: ./output/led_matrix_bmp180.axf

    Machine class: ELFCLASS32 (32-bit)
    Data encoding: ELFDATA2LSB (Little endian)
    Header version: EV_CURRENT (Current version)
    Operating System ABI: none
    ABI Version: 0
    File Type: ET_EXEC (Executable) (2)
    Machine: EM_ARM (ARM)

    Image Entry point: 0x000000b5
    Flags: EF_ARM_HASENTRY + EF_ARM_ABI_FLOAT_SOFT (0x05000202)

    ARM ELF revision: 5 (ABI version 2)

    Conforms to Soft float procedure-call standard

    Built with
    Component: ARM Compiler 5.06 update 6 (build 750) Tool: armasm [4d35ec]
    Component: ARM Compiler 5.06 update 6 (build 750) Tool: armlink [4d35ed]

    Header size: 52 bytes (0x34)
    Program header entry size: 32 bytes (0x20)
    Section header entry size: 40 bytes (0x28)

    Program header entries: 1
    Section header entries: 16

    Program header offset: 135708 (0x0002121c)
    Section header offset: 135740 (0x0002123c)

    Section header string table index: 15

========================================================================

** Program header #0 (PT_LOAD) [PF_X + PF_W + PF_R + PF_ARM_ENTRY]
    Size : 18544 bytes (16028 bytes in file)
    Virtual address: 0x00000000 (Alignment 8)


========================================================================

** Section #1 'ER_RO' (SHT_PROGBITS) [SHF_ALLOC + SHF_EXECINSTR]
    Size   : 15912 bytes (alignment 8)
    Address: 0x00000000

    $d.realdata
    RESET
    __Vectors
        0x00000000:    20000a48    H..     DCD    536873544
        0x00000004:    000000b5    ....    DCD    181
        0x00000008:    000000bd    ....    DCD    189
        0x0000000c:    00000099    ....    DCD    153
        0x00000010:    00000000    ....    DCD    0
        0x00000014:    00000000    ....    DCD    0
        0x00000018:    00000000    ....    DCD    0
        0x0000001c:    00000000    ....    DCD    0
        0x00000020:    00000000    ....    DCD    0
        0x00000024:    00000000    ....    DCD    0
        0x00000028:    00000000    ....    DCD    0
        0x0000002c:    000000c1    ....    DCD    193
        0x00000030:    00000000    ....    DCD    0
        0x00000034:    00000000    ....    DCD    0
        0x00000038:    000000c3    ....    DCD    195
        0x0000003c:    00001599    ....    DCD    5529
        0x00000040:    000000c7    ....    DCD    199
        0x00000044:    000000c7    ....    DCD    199
        0x00000048:    000000c7    ....    DCD    199
        0x0000004c:    000000c7    ....    DCD    199
        0x00000050:    000000c7    ....    DCD    199
        0x00000054:    000000c7    ....    DCD    199
        0x00000058:    000000c7    ....    DCD    199
        0x0000005c:    000000c7    ....    DCD    199
        0x00000060:    000000c7    ....    DCD    199
        0x00000064:    000000c7    ....    DCD    199
        0x00000068:    000000c7    ....    DCD    199
        0x0000006c:    000000c7    ....    DCD    199
        0x00000070:    000000c7    ....    DCD    199
        0x00000074:    000000c7    ....    DCD    199
        0x00000078:    000000c7    ....    DCD    199
        0x0000007c:    000000c7    ....    DCD    199
        0x00000080:    000000c7    ....    DCD    199
    $t
    .ARM.Collect$$$$00000000
    .ARM.Collect$$$$00000001
    __main
    _main_stk
        0x00000084:    4803        .H      LDR      r0,__lit__00000000 ; [0x94] = 0x20000a48
        0x00000086:    4685        .F      MOV      sp,r0
    .ARM.Collect$$$$00000004
    _main_scatterload
        0x00000088:    f000fc6a    ..j.    BL       __scatterload ; 0x960
    .ARM.Collect$$$$00000008
    .ARM.Collect$$$$0000000A
    .ARM.Collect$$$$0000000B
    __main_after_scatterload
    _main_clock
    _main_cpp_init
    _main_init
        0x0000008c:    4800        .H      LDR      r0,[pc,#0] ; [0x90] = 0x27ad
        0x0000008e:    4700        .G      BX       r0
    $d
        0x00000090:    000027ad    .'..    DCD    10157
    .ARM.Collect$$$$00002712
    __lit__00000000
    .ARM.Collect$$$$0000000D
    .ARM.Collect$$$$0000000F
    __rt_final_cpp
    __rt_final_exit
        0x00000094:    20000a48    H..     DCD    536873544
    $t
    .emb_text
    HardFault_Handler
        0x00000098:    2004        .       MOVS     r0,#4
        0x0000009a:    4671        qF      MOV      r1,lr
        0x0000009c:    4208        .B      TST      r0,r1
        0x0000009e:    d002        ..      BEQ      0xa6 ; HardFault_Handler + 14
        0x000000a0:    f3ef8009    ....    MRS      r0,PSP
        0x000000a4:    e001        ..      B        0xaa ; HardFault_Handler + 18
        0x000000a6:    f3ef8008    ....    MRS      r0,MSP
        0x000000aa:    4671        qF      MOV      r1,lr
        0x000000ac:    4a00        .J      LDR      r2,[pc,#0] ; [0xb0] = 0x2425
        0x000000ae:    4710        .G      BX       r2
    $d
        0x000000b0:    00002425    %$..    DCD    9253
    $t
    .text
    Reset_Handler
        0x000000b4:    f001fa78    ..x.    BL       SystemInit ; 0x15a8
        0x000000b8:    4803        .H      LDR      r0,[pc,#12] ; [0xc8] = 0x85
        0x000000ba:    4700        .G      BX       r0
    NMI_Handler
        0x000000bc:    e7fe        ..      B        NMI_Handler ; 0xbc
        0x000000be:    e7fe        ..      B        0xbe ; NMI_Handler + 2
    SVC_Handler
        0x000000c0:    e7fe        ..      B        SVC_Handler ; 0xc0
    PendSV_Handler
        0x000000c2:    e7fe        ..      B        PendSV_Handler ; 0xc2
        0x000000c4:    e7fe        ..      B        0xc4 ; PendSV_Handler + 2
    n00_WDG_IRQHandler
    n01_DMA_IRQHandler
    n02_ADC_IRQHandler
    n03_LVD_IRQHandler
    n04_PWM0_IRQHandler
    n05_PWM1_IRQHandler
    n06_PWM2_IRQHandler
    n07_PWM3_IRQHandler
    n08_UART0_IRQHandler
    n09_UART1_IRQHandler
    n10_TMR0_IRQHandler
    n11_TMR1_IRQHandler
    n12_TMR2_IRQHandler
    n13_I2C_IRQHandler
    n14_SPI_IRQHandler
    n15_GIO_IRQHandler
    n16_flash_IRQHandler
        0x000000c6:    e7fe        ..      B        n00_WDG_IRQHandler ; 0xc6
    $d
        0x000000c8:    00000085    ....    DCD    133
    $t
    .text
    __aeabi_uidiv
    __aeabi_uidivmod
        0x000000cc:    b530        0.      PUSH     {r4,r5,lr}
        0x000000ce:    460b        .F      MOV      r3,r1
        0x000000d0:    4601        .F      MOV      r1,r0
        0x000000d2:    2000        .       MOVS     r0,#0
        0x000000d4:    2220         "      MOVS     r2,#0x20
        0x000000d6:    2401        .$      MOVS     r4,#1
        0x000000d8:    e009        ..      B        0xee ; __aeabi_uidiv + 34
        0x000000da:    460d        .F      MOV      r5,r1
        0x000000dc:    40d5        .@      LSRS     r5,r5,r2
        0x000000de:    429d        .B      CMP      r5,r3
        0x000000e0:    d305        ..      BCC      0xee ; __aeabi_uidiv + 34
        0x000000e2:    461d        .F      MOV      r5,r3
        0x000000e4:    4095        .@      LSLS     r5,r5,r2
        0x000000e6:    1b49        I.      SUBS     r1,r1,r5
        0x000000e8:    4625        %F      MOV      r5,r4
        0x000000ea:    4095        .@      LSLS     r5,r5,r2
        0x000000ec:    1940        @.      ADDS     r0,r0,r5
        0x000000ee:    4615        .F      MOV      r5,r2
        0x000000f0:    1e52        R.      SUBS     r2,r2,#1
        0x000000f2:    2d00        .-      CMP      r5,#0
        0x000000f4:    dcf1        ..      BGT      0xda ; __aeabi_uidiv + 14
        0x000000f6:    bd30        0.      POP      {r4,r5,pc}
    .text
    __aeabi_fadd
        0x000000f8:    b5f8        ..      PUSH     {r3-r7,lr}
        0x000000fa:    4602        .F      MOV      r2,r0
        0x000000fc:    404a        J@      EORS     r2,r2,r1
        0x000000fe:    0fd4        ..      LSRS     r4,r2,#31
        0x00000100:    0042        B.      LSLS     r2,r0,#1
        0x00000102:    004b        K.      LSLS     r3,r1,#1
        0x00000104:    0852        R.      LSRS     r2,r2,#1
        0x00000106:    085b        [.      LSRS     r3,r3,#1
        0x00000108:    429a        .B      CMP      r2,r3
        0x0000010a:    d202        ..      BCS      0x112 ; __aeabi_fadd + 26
        0x0000010c:    4602        .F      MOV      r2,r0
        0x0000010e:    4608        .F      MOV      r0,r1
        0x00000110:    4611        .F      MOV      r1,r2
        0x00000112:    004a        J.      LSLS     r2,r1,#1
        0x00000114:    d023        #.      BEQ      0x15e ; __aeabi_fadd + 102
        0x00000116:    0dc3        ..      LSRS     r3,r0,#23
        0x00000118:    004a        J.      LSLS     r2,r1,#1
        0x0000011a:    b2dd        ..      UXTB     r5,r3
        0x0000011c:    0e12        ..      LSRS     r2,r2,#24
        0x0000011e:    1aad        ..      SUBS     r5,r5,r2
        0x00000120:    2d20         -      CMP      r5,#0x20
        0x00000122:    da35        5.      BGE      0x190 ; __aeabi_fadd + 152
        0x00000124:    0249        I.      LSLS     r1,r1,#9
        0x00000126:    2601        .&      MOVS     r6,#1
        0x00000128:    0a49        I.      LSRS     r1,r1,#9
        0x0000012a:    05f6        ..      LSLS     r6,r6,#23
        0x0000012c:    198a        ..      ADDS     r2,r1,r6
        0x0000012e:    2c00        .,      CMP      r4,#0
        0x00000130:    d000        ..      BEQ      0x134 ; __aeabi_fadd + 60
        0x00000132:    4252        RB      RSBS     r2,r2,#0
        0x00000134:    2120         !      MOVS     r1,#0x20
        0x00000136:    1b4f        O.      SUBS     r7,r1,r5
        0x00000138:    4611        .F      MOV      r1,r2
        0x0000013a:    40b9        .@      LSLS     r1,r1,r7
        0x0000013c:    412a        *A      ASRS     r2,r2,r5
        0x0000013e:    1810        ..      ADDS     r0,r2,r0
        0x00000140:    0dc2        ..      LSRS     r2,r0,#23
        0x00000142:    429a        .B      CMP      r2,r3
        0x00000144:    d021        !.      BEQ      0x18a ; __aeabi_fadd + 146
        0x00000146:    2c00        .,      CMP      r4,#0
        0x00000148:    d017        ..      BEQ      0x17a ; __aeabi_fadd + 130
        0x0000014a:    2d01        .-      CMP      r5,#1
        0x0000014c:    dc08        ..      BGT      0x160 ; __aeabi_fadd + 104
        0x0000014e:    05da        ..      LSLS     r2,r3,#23
        0x00000150:    1a80        ..      SUBS     r0,r0,r2
        0x00000152:    0fd2        ..      LSRS     r2,r2,#31
        0x00000154:    1980        ..      ADDS     r0,r0,r6
        0x00000156:    07d2        ..      LSLS     r2,r2,#31
        0x00000158:    b2db        ..      UXTB     r3,r3
        0x0000015a:    f000fb0b    ....    BL       _float_epilogue ; 0x774
        0x0000015e:    bdf8        ..      POP      {r3-r7,pc}
        0x00000160:    05da        ..      LSLS     r2,r3,#23
        0x00000162:    1a80        ..      SUBS     r0,r0,r2
        0x00000164:    2301        .#      MOVS     r3,#1
        0x00000166:    0040        @.      LSLS     r0,r0,#1
        0x00000168:    061b        ..      LSLS     r3,r3,#24
        0x0000016a:    18c0        ..      ADDS     r0,r0,r3
        0x0000016c:    1880        ..      ADDS     r0,r0,r2
        0x0000016e:    425a        ZB      RSBS     r2,r3,#0
        0x00000170:    1880        ..      ADDS     r0,r0,r2
        0x00000172:    0fca        ..      LSRS     r2,r1,#31
        0x00000174:    4310        .C      ORRS     r0,r0,r2
        0x00000176:    0049        I.      LSLS     r1,r1,#1
        0x00000178:    e007        ..      B        0x18a ; __aeabi_fadd + 146
        0x0000017a:    0849        I.      LSRS     r1,r1,#1
        0x0000017c:    07c2        ..      LSLS     r2,r0,#31
        0x0000017e:    4311        .C      ORRS     r1,r1,r2
        0x00000180:    05da        ..      LSLS     r2,r3,#23
        0x00000182:    1a80        ..      SUBS     r0,r0,r2
        0x00000184:    1980        ..      ADDS     r0,r0,r6
        0x00000186:    0840        @.      LSRS     r0,r0,#1
        0x00000188:    1880        ..      ADDS     r0,r0,r2
        0x0000018a:    f000faeb    ....    BL       __I$use$fp ; 0x764
        0x0000018e:    bdf8        ..      POP      {r3-r7,pc}
        0x00000190:    0061        a.      LSLS     r1,r4,#1
        0x00000192:    2201        ."      MOVS     r2,#1
        0x00000194:    1a51        Q.      SUBS     r1,r2,r1
        0x00000196:    1b00        ..      SUBS     r0,r0,r4
        0x00000198:    e7f7        ..      B        0x18a ; __aeabi_fadd + 146
    __aeabi_fsub
        0x0000019a:    2201        ."      MOVS     r2,#1
        0x0000019c:    07d2        ..      LSLS     r2,r2,#31
        0x0000019e:    4051        Q@      EORS     r1,r1,r2
        0x000001a0:    e7aa        ..      B        __aeabi_fadd ; 0xf8
    __aeabi_frsub
        0x000001a2:    2201        ."      MOVS     r2,#1
        0x000001a4:    07d2        ..      LSLS     r2,r2,#31
        0x000001a6:    4050        P@      EORS     r0,r0,r2
        0x000001a8:    e7a6        ..      B        __aeabi_fadd ; 0xf8
    .text
    __aeabi_fmul
        0x000001aa:    4602        .F      MOV      r2,r0
        0x000001ac:    b570        p.      PUSH     {r4-r6,lr}
        0x000001ae:    404a        J@      EORS     r2,r2,r1
        0x000001b0:    0fd3        ..      LSRS     r3,r2,#31
        0x000001b2:    07db        ..      LSLS     r3,r3,#31
        0x000001b4:    0040        @.      LSLS     r0,r0,#1
        0x000001b6:    d02d        -.      BEQ      0x214 ; __aeabi_fmul + 106
        0x000001b8:    004a        J.      LSLS     r2,r1,#1
        0x000001ba:    d02a        *.      BEQ      0x212 ; __aeabi_fmul + 104
        0x000001bc:    0e01        ..      LSRS     r1,r0,#24
        0x000001be:    0e14        ..      LSRS     r4,r2,#24
        0x000001c0:    0200        ..      LSLS     r0,r0,#8
        0x000001c2:    0212        ..      LSLS     r2,r2,#8
        0x000001c4:    1909        ..      ADDS     r1,r1,r4
        0x000001c6:    0a40        @.      LSRS     r0,r0,#9
        0x000001c8:    0a52        R.      LSRS     r2,r2,#9
        0x000001ca:    1884        ..      ADDS     r4,r0,r2
        0x000001cc:    01e5        ..      LSLS     r5,r4,#7
        0x000001ce:    4604        .F      MOV      r4,r0
        0x000001d0:    4354        TC      MULS     r4,r2,r4
        0x000001d2:    0a00        ..      LSRS     r0,r0,#8
        0x000001d4:    0a12        ..      LSRS     r2,r2,#8
        0x000001d6:    042e        ..      LSLS     r6,r5,#16
        0x000001d8:    4350        PC      MULS     r0,r2,r0
        0x000001da:    19a4        ..      ADDS     r4,r4,r6
        0x000001dc:    1942        B.      ADDS     r2,r0,r5
        0x000001de:    0c20         .      LSRS     r0,r4,#16
        0x000001e0:    43c5        .C      MVNS     r5,r0
        0x000001e2:    18aa        ..      ADDS     r2,r5,r2
        0x000001e4:    0c12        ..      LSRS     r2,r2,#16
        0x000001e6:    2501        .%      MOVS     r5,#1
        0x000001e8:    03ad        ..      LSLS     r5,r5,#14
        0x000001ea:    1c52        R.      ADDS     r2,r2,#1
        0x000001ec:    1952        R.      ADDS     r2,r2,r5
        0x000001ee:    0412        ..      LSLS     r2,r2,#16
        0x000001f0:    397f        .9      SUBS     r1,r1,#0x7f
        0x000001f2:    0424        $.      LSLS     r4,r4,#16
        0x000001f4:    d000        ..      BEQ      0x1f8 ; __aeabi_fmul + 78
        0x000001f6:    1c52        R.      ADDS     r2,r2,#1
        0x000001f8:    4310        .C      ORRS     r0,r0,r2
        0x000001fa:    d401        ..      BMI      0x200 ; __aeabi_fmul + 86
        0x000001fc:    0040        @.      LSLS     r0,r0,#1
        0x000001fe:    1e49        I.      SUBS     r1,r1,#1
        0x00000200:    b2c2        ..      UXTB     r2,r0
        0x00000202:    060c        ..      LSLS     r4,r1,#24
        0x00000204:    09c0        ..      LSRS     r0,r0,#7
        0x00000206:    1820         .      ADDS     r0,r4,r0
        0x00000208:    1c40        @.      ADDS     r0,r0,#1
        0x0000020a:    0840        @.      LSRS     r0,r0,#1
        0x0000020c:    2a80        .*      CMP      r2,#0x80
        0x0000020e:    d002        ..      BEQ      0x216 ; __aeabi_fmul + 108
        0x00000210:    e003        ..      B        0x21a ; __aeabi_fmul + 112
        0x00000212:    2000        .       MOVS     r0,#0
        0x00000214:    bd70        p.      POP      {r4-r6,pc}
        0x00000216:    0840        @.      LSRS     r0,r0,#1
        0x00000218:    0040        @.      LSLS     r0,r0,#1
        0x0000021a:    2900        .)      CMP      r1,#0
        0x0000021c:    da00        ..      BGE      0x220 ; __aeabi_fmul + 118
        0x0000021e:    2000        .       MOVS     r0,#0
        0x00000220:    4318        .C      ORRS     r0,r0,r3
        0x00000222:    bd70        p.      POP      {r4-r6,pc}
    .text
    __aeabi_fdiv
        0x00000224:    b570        p.      PUSH     {r4-r6,lr}
        0x00000226:    4602        .F      MOV      r2,r0
        0x00000228:    404a        J@      EORS     r2,r2,r1
        0x0000022a:    0fd5        ..      LSRS     r5,r2,#31
        0x0000022c:    0040        @.      LSLS     r0,r0,#1
        0x0000022e:    004a        J.      LSLS     r2,r1,#1
        0x00000230:    07ed        ..      LSLS     r5,r5,#31
        0x00000232:    0840        @.      LSRS     r0,r0,#1
        0x00000234:    0852        R.      LSRS     r2,r2,#1
        0x00000236:    2800        .(      CMP      r0,#0
        0x00000238:    d014        ..      BEQ      0x264 ; __aeabi_fdiv + 64
        0x0000023a:    2a00        .*      CMP      r2,#0
        0x0000023c:    d012        ..      BEQ      0x264 ; __aeabi_fdiv + 64
        0x0000023e:    0dc4        ..      LSRS     r4,r0,#23
        0x00000240:    0dd3        ..      LSRS     r3,r2,#23
        0x00000242:    0241        A.      LSLS     r1,r0,#9
        0x00000244:    2001        .       MOVS     r0,#1
        0x00000246:    05c0        ..      LSLS     r0,r0,#23
        0x00000248:    0252        R.      LSLS     r2,r2,#9
        0x0000024a:    0a49        I.      LSRS     r1,r1,#9
        0x0000024c:    0a52        R.      LSRS     r2,r2,#9
        0x0000024e:    1ae4        ..      SUBS     r4,r4,r3
        0x00000250:    1809        ..      ADDS     r1,r1,r0
        0x00000252:    1812        ..      ADDS     r2,r2,r0
        0x00000254:    347d        }4      ADDS     r4,r4,#0x7d
        0x00000256:    4291        .B      CMP      r1,r2
        0x00000258:    d301        ..      BCC      0x25e ; __aeabi_fdiv + 58
        0x0000025a:    1c64        d.      ADDS     r4,r4,#1
        0x0000025c:    e000        ..      B        0x260 ; __aeabi_fdiv + 60
        0x0000025e:    0049        I.      LSLS     r1,r1,#1
        0x00000260:    2c00        .,      CMP      r4,#0
        0x00000262:    da01        ..      BGE      0x268 ; __aeabi_fdiv + 68
        0x00000264:    2000        .       MOVS     r0,#0
        0x00000266:    bd70        p.      POP      {r4-r6,pc}
        0x00000268:    2300        .#      MOVS     r3,#0
        0x0000026a:    4291        .B      CMP      r1,r2
        0x0000026c:    d301        ..      BCC      0x272 ; __aeabi_fdiv + 78
        0x0000026e:    1a89        ..      SUBS     r1,r1,r2
        0x00000270:    4303        .C      ORRS     r3,r3,r0
        0x00000272:    0840        @.      LSRS     r0,r0,#1
        0x00000274:    0049        I.      LSLS     r1,r1,#1
        0x00000276:    2800        .(      CMP      r0,#0
        0x00000278:    d1f7        ..      BNE      0x26a ; __aeabi_fdiv + 70
        0x0000027a:    2900        .)      CMP      r1,#0
        0x0000027c:    d00a        ..      BEQ      0x294 ; __aeabi_fdiv + 112
        0x0000027e:    4291        .B      CMP      r1,r2
        0x00000280:    d102        ..      BNE      0x288 ; __aeabi_fdiv + 100
        0x00000282:    2101        .!      MOVS     r1,#1
        0x00000284:    07c9        ..      LSLS     r1,r1,#31
        0x00000286:    e005        ..      B        0x294 ; __aeabi_fdiv + 112
        0x00000288:    4291        .B      CMP      r1,r2
        0x0000028a:    d201        ..      BCS      0x290 ; __aeabi_fdiv + 108
        0x0000028c:    2101        .!      MOVS     r1,#1
        0x0000028e:    e001        ..      B        0x294 ; __aeabi_fdiv + 112
        0x00000290:    2101        .!      MOVS     r1,#1
        0x00000292:    43c9        .C      MVNS     r1,r1
        0x00000294:    05e0        ..      LSLS     r0,r4,#23
        0x00000296:    18c0        ..      ADDS     r0,r0,r3
        0x00000298:    1940        @.      ADDS     r0,r0,r5
        0x0000029a:    f000fa63    ..c.    BL       __I$use$fp ; 0x764
        0x0000029e:    bd70        p.      POP      {r4-r6,pc}
    .text
    __aeabi_dadd
        0x000002a0:    b5f0        ..      PUSH     {r4-r7,lr}
        0x000002a2:    4607        .F      MOV      r7,r0
        0x000002a4:    4608        .F      MOV      r0,r1
        0x000002a6:    4058        X@      EORS     r0,r0,r3
        0x000002a8:    b087        ..      SUB      sp,sp,#0x1c
        0x000002aa:    0fc0        ..      LSRS     r0,r0,#31
        0x000002ac:    9004        ..      STR      r0,[sp,#0x10]
        0x000002ae:    0048        H.      LSLS     r0,r1,#1
        0x000002b0:    460e        .F      MOV      r6,r1
        0x000002b2:    0059        Y.      LSLS     r1,r3,#1
        0x000002b4:    0840        @.      LSRS     r0,r0,#1
        0x000002b6:    0849        I.      LSRS     r1,r1,#1
        0x000002b8:    1abc        ..      SUBS     r4,r7,r2
        0x000002ba:    4188        .A      SBCS     r0,r0,r1
        0x000002bc:    d205        ..      BCS      0x2ca ; __aeabi_dadd + 42
        0x000002be:    4638        8F      MOV      r0,r7
        0x000002c0:    4631        1F      MOV      r1,r6
        0x000002c2:    461e        .F      MOV      r6,r3
        0x000002c4:    4617        .F      MOV      r7,r2
        0x000002c6:    460b        .F      MOV      r3,r1
        0x000002c8:    4602        .F      MOV      r2,r0
        0x000002ca:    0058        X.      LSLS     r0,r3,#1
        0x000002cc:    0840        @.      LSRS     r0,r0,#1
        0x000002ce:    4310        .C      ORRS     r0,r0,r2
        0x000002d0:    d04c        L.      BEQ      0x36c ; __aeabi_dadd + 204
        0x000002d2:    0d30        0.      LSRS     r0,r6,#20
        0x000002d4:    9003        ..      STR      r0,[sp,#0xc]
        0x000002d6:    0540        @.      LSLS     r0,r0,#21
        0x000002d8:    0059        Y.      LSLS     r1,r3,#1
        0x000002da:    0d40        @.      LSRS     r0,r0,#21
        0x000002dc:    0d49        I.      LSRS     r1,r1,#21
        0x000002de:    9005        ..      STR      r0,[sp,#0x14]
        0x000002e0:    1a40        @.      SUBS     r0,r0,r1
        0x000002e2:    9002        ..      STR      r0,[sp,#8]
        0x000002e4:    2840        @(      CMP      r0,#0x40
        0x000002e6:    da72        r.      BGE      0x3ce ; __aeabi_dadd + 302
        0x000002e8:    0318        ..      LSLS     r0,r3,#12
        0x000002ea:    2101        .!      MOVS     r1,#1
        0x000002ec:    0b00        ..      LSRS     r0,r0,#12
        0x000002ee:    0509        ..      LSLS     r1,r1,#20
        0x000002f0:    4308        .C      ORRS     r0,r0,r1
        0x000002f2:    9001        ..      STR      r0,[sp,#4]
        0x000002f4:    9804        ..      LDR      r0,[sp,#0x10]
        0x000002f6:    9200        ..      STR      r2,[sp,#0]
        0x000002f8:    2800        .(      CMP      r0,#0
        0x000002fa:    d005        ..      BEQ      0x308 ; __aeabi_dadd + 104
        0x000002fc:    9901        ..      LDR      r1,[sp,#4]
        0x000002fe:    4252        RB      RSBS     r2,r2,#0
        0x00000300:    2000        .       MOVS     r0,#0
        0x00000302:    4188        .A      SBCS     r0,r0,r1
        0x00000304:    9200        ..      STR      r2,[sp,#0]
        0x00000306:    9001        ..      STR      r0,[sp,#4]
        0x00000308:    9802        ..      LDR      r0,[sp,#8]
        0x0000030a:    2140        @!      MOVS     r1,#0x40
        0x0000030c:    1a0a        ..      SUBS     r2,r1,r0
        0x0000030e:    9901        ..      LDR      r1,[sp,#4]
        0x00000310:    9800        ..      LDR      r0,[sp,#0]
        0x00000312:    f000fa04    ....    BL       __aeabi_llsl ; 0x71e
        0x00000316:    4605        .F      MOV      r5,r0
        0x00000318:    460c        .F      MOV      r4,r1
        0x0000031a:    466b        kF      MOV      r3,sp
        0x0000031c:    cb07        ..      LDM      r3!,{r0-r2}
        0x0000031e:    f000fa0e    ....    BL       __aeabi_lasr ; 0x73e
        0x00000322:    19c0        ..      ADDS     r0,r0,r7
        0x00000324:    4171        qA      ADCS     r1,r1,r6
        0x00000326:    9a03        ..      LDR      r2,[sp,#0xc]
        0x00000328:    0d0e        ..      LSRS     r6,r1,#20
        0x0000032a:    2300        .#      MOVS     r3,#0
        0x0000032c:    17d7        ..      ASRS     r7,r2,#31
        0x0000032e:    4056        V@      EORS     r6,r6,r2
        0x00000330:    461a        .F      MOV      r2,r3
        0x00000332:    407a        z@      EORS     r2,r2,r7
        0x00000334:    4316        .C      ORRS     r6,r6,r2
        0x00000336:    d044        D.      BEQ      0x3c2 ; __aeabi_dadd + 290
        0x00000338:    9a04        ..      LDR      r2,[sp,#0x10]
        0x0000033a:    2a00        .*      CMP      r2,#0
        0x0000033c:    d02d        -.      BEQ      0x39a ; __aeabi_dadd + 250
        0x0000033e:    9a02        ..      LDR      r2,[sp,#8]
        0x00000340:    2a01        .*      CMP      r2,#1
        0x00000342:    9a03        ..      LDR      r2,[sp,#0xc]
        0x00000344:    dc15        ..      BGT      0x372 ; __aeabi_dadd + 210
        0x00000346:    0512        ..      LSLS     r2,r2,#20
        0x00000348:    1ac0        ..      SUBS     r0,r0,r3
        0x0000034a:    4191        .A      SBCS     r1,r1,r2
        0x0000034c:    2601        .&      MOVS     r6,#1
        0x0000034e:    0536        6.      LSLS     r6,r6,#20
        0x00000350:    1c00        ..      ADDS     r0,r0,#0
        0x00000352:    4171        qA      ADCS     r1,r1,r6
        0x00000354:    0fd2        ..      LSRS     r2,r2,#31
        0x00000356:    9e05        ..      LDR      r6,[sp,#0x14]
        0x00000358:    07d2        ..      LSLS     r2,r2,#31
        0x0000035a:    9300        ..      STR      r3,[sp,#0]
        0x0000035c:    9201        ..      STR      r2,[sp,#4]
        0x0000035e:    9602        ..      STR      r6,[sp,#8]
        0x00000360:    462a        *F      MOV      r2,r5
        0x00000362:    4623        #F      MOV      r3,r4
        0x00000364:    f000fa4c    ..L.    BL       _double_epilogue ; 0x800
        0x00000368:    b007        ..      ADD      sp,sp,#0x1c
        0x0000036a:    bdf0        ..      POP      {r4-r7,pc}
        0x0000036c:    4638        8F      MOV      r0,r7
        0x0000036e:    4631        1F      MOV      r1,r6
        0x00000370:    e7fa        ..      B        0x368 ; __aeabi_dadd + 200
        0x00000372:    0516        ..      LSLS     r6,r2,#20
        0x00000374:    4a22        "J      LDR      r2,[pc,#136] ; [0x400] = 0xffe00000
        0x00000376:    460f        .F      MOV      r7,r1
        0x00000378:    18b2        ..      ADDS     r2,r6,r2
        0x0000037a:    1ac0        ..      SUBS     r0,r0,r3
        0x0000037c:    41b7        .A      SBCS     r7,r7,r6
        0x0000037e:    2101        .!      MOVS     r1,#1
        0x00000380:    0509        ..      LSLS     r1,r1,#20
        0x00000382:    1c00        ..      ADDS     r0,r0,#0
        0x00000384:    414f        OA      ADCS     r7,r7,r1
        0x00000386:    1800        ..      ADDS     r0,r0,r0
        0x00000388:    417f        .A      ADCS     r7,r7,r7
        0x0000038a:    4611        .F      MOV      r1,r2
        0x0000038c:    1818        ..      ADDS     r0,r3,r0
        0x0000038e:    4179        yA      ADCS     r1,r1,r7
        0x00000390:    0fe2        ..      LSRS     r2,r4,#31
        0x00000392:    4310        .C      ORRS     r0,r0,r2
        0x00000394:    196d        m.      ADDS     r5,r5,r5
        0x00000396:    4164        dA      ADCS     r4,r4,r4
        0x00000398:    e013        ..      B        0x3c2 ; __aeabi_dadd + 290
        0x0000039a:    07e2        ..      LSLS     r2,r4,#31
        0x0000039c:    086d        m.      LSRS     r5,r5,#1
        0x0000039e:    4315        .C      ORRS     r5,r5,r2
        0x000003a0:    0864        d.      LSRS     r4,r4,#1
        0x000003a2:    07c2        ..      LSLS     r2,r0,#31
        0x000003a4:    4314        .C      ORRS     r4,r4,r2
        0x000003a6:    9a03        ..      LDR      r2,[sp,#0xc]
        0x000003a8:    2601        .&      MOVS     r6,#1
        0x000003aa:    0512        ..      LSLS     r2,r2,#20
        0x000003ac:    1ac0        ..      SUBS     r0,r0,r3
        0x000003ae:    4191        .A      SBCS     r1,r1,r2
        0x000003b0:    0536        6.      LSLS     r6,r6,#20
        0x000003b2:    1c00        ..      ADDS     r0,r0,#0
        0x000003b4:    4171        qA      ADCS     r1,r1,r6
        0x000003b6:    07ce        ..      LSLS     r6,r1,#31
        0x000003b8:    0840        @.      LSRS     r0,r0,#1
        0x000003ba:    4330        0C      ORRS     r0,r0,r6
        0x000003bc:    0849        I.      LSRS     r1,r1,#1
        0x000003be:    18c0        ..      ADDS     r0,r0,r3
        0x000003c0:    4151        QA      ADCS     r1,r1,r2
        0x000003c2:    462a        *F      MOV      r2,r5
        0x000003c4:    4623        #F      MOV      r3,r4
        0x000003c6:    f000fa0e    ....    BL       _double_round ; 0x7e6
        0x000003ca:    e7cd        ..      B        0x368 ; __aeabi_dadd + 200
        0x000003cc:    e7ff        ..      B        0x3ce ; __aeabi_dadd + 302
        0x000003ce:    9804        ..      LDR      r0,[sp,#0x10]
        0x000003d0:    2201        ."      MOVS     r2,#1
        0x000003d2:    0040        @.      LSLS     r0,r0,#1
        0x000003d4:    17c1        ..      ASRS     r1,r0,#31
        0x000003d6:    1a12        ..      SUBS     r2,r2,r0
        0x000003d8:    2300        .#      MOVS     r3,#0
        0x000003da:    418b        .A      SBCS     r3,r3,r1
        0x000003dc:    9804        ..      LDR      r0,[sp,#0x10]
        0x000003de:    4631        1F      MOV      r1,r6
        0x000003e0:    17c4        ..      ASRS     r4,r0,#31
        0x000003e2:    1a38        8.      SUBS     r0,r7,r0
        0x000003e4:    41a1        .A      SBCS     r1,r1,r4
        0x000003e6:    e7ee        ..      B        0x3c6 ; __aeabi_dadd + 294
    __aeabi_dsub
        0x000003e8:    b430        0.      PUSH     {r4,r5}
        0x000003ea:    2401        .$      MOVS     r4,#1
        0x000003ec:    07e4        ..      LSLS     r4,r4,#31
        0x000003ee:    4063        c@      EORS     r3,r3,r4
        0x000003f0:    bc30        0.      POP      {r4,r5}
        0x000003f2:    e755        U.      B        __aeabi_dadd ; 0x2a0
    __aeabi_drsub
        0x000003f4:    b430        0.      PUSH     {r4,r5}
        0x000003f6:    2401        .$      MOVS     r4,#1
        0x000003f8:    07e4        ..      LSLS     r4,r4,#31
        0x000003fa:    4061        a@      EORS     r1,r1,r4
        0x000003fc:    bc30        0.      POP      {r4,r5}
        0x000003fe:    e74f        O.      B        __aeabi_dadd ; 0x2a0
    $d
        0x00000400:    ffe00000    ....    DCD    4292870144
    $t
    .text
    __aeabi_dmul
        0x00000404:    b5f0        ..      PUSH     {r4-r7,lr}
        0x00000406:    b41f        ..      PUSH     {r0-r4}
        0x00000408:    b088        ..      SUB      sp,sp,#0x20
        0x0000040a:    990b        ..      LDR      r1,[sp,#0x2c]
        0x0000040c:    9809        ..      LDR      r0,[sp,#0x24]
        0x0000040e:    2400        .$      MOVS     r4,#0
        0x00000410:    4048        H@      EORS     r0,r0,r1
        0x00000412:    9909        ..      LDR      r1,[sp,#0x24]
        0x00000414:    0fc0        ..      LSRS     r0,r0,#31
        0x00000416:    0049        I.      LSLS     r1,r1,#1
        0x00000418:    0849        I.      LSRS     r1,r1,#1
        0x0000041a:    9109        ..      STR      r1,[sp,#0x24]
        0x0000041c:    07c0        ..      LSLS     r0,r0,#31
        0x0000041e:    990b        ..      LDR      r1,[sp,#0x2c]
        0x00000420:    9000        ..      STR      r0,[sp,#0]
        0x00000422:    0049        I.      LSLS     r1,r1,#1
        0x00000424:    0849        I.      LSRS     r1,r1,#1
        0x00000426:    910b        ..      STR      r1,[sp,#0x2c]
        0x00000428:    9909        ..      LDR      r1,[sp,#0x24]
        0x0000042a:    9808        ..      LDR      r0,[sp,#0x20]
        0x0000042c:    46a6        .F      MOV      lr,r4
        0x0000042e:    4308        .C      ORRS     r0,r0,r1
        0x00000430:    d01c        ..      BEQ      0x46c ; __aeabi_dmul + 104
        0x00000432:    990b        ..      LDR      r1,[sp,#0x2c]
        0x00000434:    980a        ..      LDR      r0,[sp,#0x28]
        0x00000436:    4308        .C      ORRS     r0,r0,r1
        0x00000438:    d018        ..      BEQ      0x46c ; __aeabi_dmul + 104
        0x0000043a:    9809        ..      LDR      r0,[sp,#0x24]
        0x0000043c:    2401        .$      MOVS     r4,#1
        0x0000043e:    0040        @.      LSLS     r0,r0,#1
        0x00000440:    0d42        B.      LSRS     r2,r0,#21
        0x00000442:    0048        H.      LSLS     r0,r1,#1
        0x00000444:    0d41        A.      LSRS     r1,r0,#21
        0x00000446:    9809        ..      LDR      r0,[sp,#0x24]
        0x00000448:    0524        $.      LSLS     r4,r4,#20
        0x0000044a:    0300        ..      LSLS     r0,r0,#12
        0x0000044c:    0b00        ..      LSRS     r0,r0,#12
        0x0000044e:    4320         C      ORRS     r0,r0,r4
        0x00000450:    9009        ..      STR      r0,[sp,#0x24]
        0x00000452:    980b        ..      LDR      r0,[sp,#0x2c]
        0x00000454:    0300        ..      LSLS     r0,r0,#12
        0x00000456:    0b00        ..      LSRS     r0,r0,#12
        0x00000458:    4320         C      ORRS     r0,r0,r4
        0x0000045a:    900b        ..      STR      r0,[sp,#0x2c]
        0x0000045c:    1850        P.      ADDS     r0,r2,r1
        0x0000045e:    491c        .I      LDR      r1,[pc,#112] ; [0x4d0] = 0xfffffc0d
        0x00000460:    1840        @.      ADDS     r0,r0,r1
        0x00000462:    2200        ."      MOVS     r2,#0
        0x00000464:    9001        ..      STR      r0,[sp,#4]
        0x00000466:    4614        .F      MOV      r4,r2
        0x00000468:    4610        .F      MOV      r0,r2
        0x0000046a:    e005        ..      B        0x478 ; __aeabi_dmul + 116
        0x0000046c:    2000        .       MOVS     r0,#0
        0x0000046e:    4601        .F      MOV      r1,r0
        0x00000470:    b00d        ..      ADD      sp,sp,#0x34
        0x00000472:    bdf0        ..      POP      {r4-r7,pc}
        0x00000474:    2803        .(      CMP      r0,#3
        0x00000476:    da01        ..      BGE      0x47c ; __aeabi_dmul + 120
        0x00000478:    4603        .F      MOV      r3,r0
        0x0000047a:    e000        ..      B        0x47e ; __aeabi_dmul + 122
        0x0000047c:    2303        .#      MOVS     r3,#3
        0x0000047e:    469c        .F      MOV      r12,r3
        0x00000480:    1ac1        ..      SUBS     r1,r0,r3
        0x00000482:    ae0a        ..      ADD      r6,sp,#0x28
        0x00000484:    e00a        ..      B        0x49c ; __aeabi_dmul + 152
        0x00000486:    005f        _.      LSLS     r7,r3,#1
        0x00000488:    ad08        ..      ADD      r5,sp,#0x20
        0x0000048a:    5bed        .[      LDRH     r5,[r5,r7]
        0x0000048c:    004f        O.      LSLS     r7,r1,#1
        0x0000048e:    5bf7        .[      LDRH     r7,[r6,r7]
        0x00000490:    437d        }C      MULS     r5,r7,r5
        0x00000492:    2700        .'      MOVS     r7,#0
        0x00000494:    18aa        ..      ADDS     r2,r5,r2
        0x00000496:    417c        |A      ADCS     r4,r4,r7
        0x00000498:    1c49        I.      ADDS     r1,r1,#1
        0x0000049a:    1e5b        [.      SUBS     r3,r3,#1
        0x0000049c:    4561        aE      CMP      r1,r12
        0x0000049e:    ddf2        ..      BLE      0x486 ; __aeabi_dmul + 130
        0x000004a0:    0041        A.      LSLS     r1,r0,#1
        0x000004a2:    ab04        ..      ADD      r3,sp,#0x10
        0x000004a4:    525a        ZR      STRH     r2,[r3,r1]
        0x000004a6:    0421        !.      LSLS     r1,r4,#16
        0x000004a8:    0c12        ..      LSRS     r2,r2,#16
        0x000004aa:    430a        .C      ORRS     r2,r2,r1
        0x000004ac:    0c24        $.      LSRS     r4,r4,#16
        0x000004ae:    1c40        @.      ADDS     r0,r0,#1
        0x000004b0:    2808        .(      CMP      r0,#8
        0x000004b2:    dbdf        ..      BLT      0x474 ; __aeabi_dmul + 112
        0x000004b4:    9801        ..      LDR      r0,[sp,#4]
        0x000004b6:    9002        ..      STR      r0,[sp,#8]
        0x000004b8:    9900        ..      LDR      r1,[sp,#0]
        0x000004ba:    4670        pF      MOV      r0,lr
        0x000004bc:    9101        ..      STR      r1,[sp,#4]
        0x000004be:    9000        ..      STR      r0,[sp,#0]
        0x000004c0:    9b05        ..      LDR      r3,[sp,#0x14]
        0x000004c2:    9a04        ..      LDR      r2,[sp,#0x10]
        0x000004c4:    9907        ..      LDR      r1,[sp,#0x1c]
        0x000004c6:    9806        ..      LDR      r0,[sp,#0x18]
        0x000004c8:    f000f99a    ....    BL       _double_epilogue ; 0x800
        0x000004cc:    e7d0        ..      B        0x470 ; __aeabi_dmul + 108
    $d
        0x000004ce:    0000        ..      DCW    0
        0x000004d0:    fffffc0d    ....    DCD    4294966285
    $t
    .text
    __aeabi_ddiv
        0x000004d4:    b5f0        ..      PUSH     {r4-r7,lr}
        0x000004d6:    460c        .F      MOV      r4,r1
        0x000004d8:    405c        \@      EORS     r4,r4,r3
        0x000004da:    b085        ..      SUB      sp,sp,#0x14
        0x000004dc:    0fe4        ..      LSRS     r4,r4,#31
        0x000004de:    07e4        ..      LSLS     r4,r4,#31
        0x000004e0:    9403        ..      STR      r4,[sp,#0xc]
        0x000004e2:    004c        L.      LSLS     r4,r1,#1
        0x000004e4:    2600        .&      MOVS     r6,#0
        0x000004e6:    0864        d.      LSRS     r4,r4,#1
        0x000004e8:    0059        Y.      LSLS     r1,r3,#1
        0x000004ea:    4694        .F      MOV      r12,r2
        0x000004ec:    0849        I.      LSRS     r1,r1,#1
        0x000004ee:    4602        .F      MOV      r2,r0
        0x000004f0:    9602        ..      STR      r6,[sp,#8]
        0x000004f2:    4322        "C      ORRS     r2,r2,r4
        0x000004f4:    d021        !.      BEQ      0x53a ; __aeabi_ddiv + 102
        0x000004f6:    4662        bF      MOV      r2,r12
        0x000004f8:    430a        .C      ORRS     r2,r2,r1
        0x000004fa:    d01e        ..      BEQ      0x53a ; __aeabi_ddiv + 102
        0x000004fc:    0062        b.      LSLS     r2,r4,#1
        0x000004fe:    0d57        W.      LSRS     r7,r2,#21
        0x00000500:    004a        J.      LSLS     r2,r1,#1
        0x00000502:    030e        ..      LSLS     r6,r1,#12
        0x00000504:    0323        #.      LSLS     r3,r4,#12
        0x00000506:    0d55        U.      LSRS     r5,r2,#21
        0x00000508:    2401        .$      MOVS     r4,#1
        0x0000050a:    4602        .F      MOV      r2,r0
        0x0000050c:    492c        ,I      LDR      r1,[pc,#176] ; [0x5c0] = 0x3fd
        0x0000050e:    0524        $.      LSLS     r4,r4,#20
        0x00000510:    1b78        x.      SUBS     r0,r7,r5
        0x00000512:    0b1b        ..      LSRS     r3,r3,#12
        0x00000514:    0b36        6.      LSRS     r6,r6,#12
        0x00000516:    1840        @.      ADDS     r0,r0,r1
        0x00000518:    4323        #C      ORRS     r3,r3,r4
        0x0000051a:    4326        &C      ORRS     r6,r6,r4
        0x0000051c:    4661        aF      MOV      r1,r12
        0x0000051e:    9000        ..      STR      r0,[sp,#0]
        0x00000520:    461c        .F      MOV      r4,r3
        0x00000522:    1a50        P.      SUBS     r0,r2,r1
        0x00000524:    41b4        .A      SBCS     r4,r4,r6
        0x00000526:    d303        ..      BCC      0x530 ; __aeabi_ddiv + 92
        0x00000528:    9800        ..      LDR      r0,[sp,#0]
        0x0000052a:    1c40        @.      ADDS     r0,r0,#1
        0x0000052c:    9000        ..      STR      r0,[sp,#0]
        0x0000052e:    e002        ..      B        0x536 ; __aeabi_ddiv + 98
        0x00000530:    1892        ..      ADDS     r2,r2,r2
        0x00000532:    9800        ..      LDR      r0,[sp,#0]
        0x00000534:    415b        [A      ADCS     r3,r3,r3
        0x00000536:    2800        .(      CMP      r0,#0
        0x00000538:    da03        ..      BGE      0x542 ; __aeabi_ddiv + 110
        0x0000053a:    2000        .       MOVS     r0,#0
        0x0000053c:    4601        .F      MOV      r1,r0
        0x0000053e:    b005        ..      ADD      sp,sp,#0x14
        0x00000540:    bdf0        ..      POP      {r4-r7,pc}
        0x00000542:    2000        .       MOVS     r0,#0
        0x00000544:    2101        .!      MOVS     r1,#1
        0x00000546:    0509        ..      LSLS     r1,r1,#20
        0x00000548:    4607        .F      MOV      r7,r0
        0x0000054a:    4686        .F      MOV      lr,r0
        0x0000054c:    e011        ..      B        0x572 ; __aeabi_ddiv + 158
        0x0000054e:    4664        dF      MOV      r4,r12
        0x00000550:    461d        .F      MOV      r5,r3
        0x00000552:    1b14        ..      SUBS     r4,r2,r4
        0x00000554:    41b5        .A      SBCS     r5,r5,r6
        0x00000556:    d306        ..      BCC      0x566 ; __aeabi_ddiv + 146
        0x00000558:    4665        eF      MOV      r5,r12
        0x0000055a:    1b52        R.      SUBS     r2,r2,r5
        0x0000055c:    41b3        .A      SBCS     r3,r3,r6
        0x0000055e:    4674        tF      MOV      r4,lr
        0x00000560:    4307        .C      ORRS     r7,r7,r0
        0x00000562:    430c        .C      ORRS     r4,r4,r1
        0x00000564:    46a6        .F      MOV      lr,r4
        0x00000566:    07cd        ..      LSLS     r5,r1,#31
        0x00000568:    0840        @.      LSRS     r0,r0,#1
        0x0000056a:    0849        I.      LSRS     r1,r1,#1
        0x0000056c:    4328        (C      ORRS     r0,r0,r5
        0x0000056e:    1892        ..      ADDS     r2,r2,r2
        0x00000570:    415b        [A      ADCS     r3,r3,r3
        0x00000572:    4605        .F      MOV      r5,r0
        0x00000574:    430d        .C      ORRS     r5,r5,r1
        0x00000576:    d1ea        ..      BNE      0x54e ; __aeabi_ddiv + 122
        0x00000578:    4610        .F      MOV      r0,r2
        0x0000057a:    4318        .C      ORRS     r0,r0,r3
        0x0000057c:    d013        ..      BEQ      0x5a6 ; __aeabi_ddiv + 210
        0x0000057e:    4660        `F      MOV      r0,r12
        0x00000580:    4619        .F      MOV      r1,r3
        0x00000582:    4050        P@      EORS     r0,r0,r2
        0x00000584:    4071        q@      EORS     r1,r1,r6
        0x00000586:    4308        .C      ORRS     r0,r0,r1
        0x00000588:    d006        ..      BEQ      0x598 ; __aeabi_ddiv + 196
        0x0000058a:    4660        `F      MOV      r0,r12
        0x0000058c:    1a10        ..      SUBS     r0,r2,r0
        0x0000058e:    41b3        .A      SBCS     r3,r3,r6
        0x00000590:    d206        ..      BCS      0x5a0 ; __aeabi_ddiv + 204
        0x00000592:    2201        ."      MOVS     r2,#1
        0x00000594:    2300        .#      MOVS     r3,#0
        0x00000596:    e006        ..      B        0x5a6 ; __aeabi_ddiv + 210
        0x00000598:    2200        ."      MOVS     r2,#0
        0x0000059a:    2301        .#      MOVS     r3,#1
        0x0000059c:    07db        ..      LSLS     r3,r3,#31
        0x0000059e:    e002        ..      B        0x5a6 ; __aeabi_ddiv + 210
        0x000005a0:    2201        ."      MOVS     r2,#1
        0x000005a2:    43d2        .C      MVNS     r2,r2
        0x000005a4:    1053        S.      ASRS     r3,r2,#1
        0x000005a6:    9800        ..      LDR      r0,[sp,#0]
        0x000005a8:    4674        tF      MOV      r4,lr
        0x000005aa:    0501        ..      LSLS     r1,r0,#20
        0x000005ac:    1c38        8.      ADDS     r0,r7,#0
        0x000005ae:    4161        aA      ADCS     r1,r1,r4
        0x000005b0:    9c02        ..      LDR      r4,[sp,#8]
        0x000005b2:    9d03        ..      LDR      r5,[sp,#0xc]
        0x000005b4:    1900        ..      ADDS     r0,r0,r4
        0x000005b6:    4169        iA      ADCS     r1,r1,r5
        0x000005b8:    f000f915    ....    BL       _double_round ; 0x7e6
        0x000005bc:    e7bf        ..      B        0x53e ; __aeabi_ddiv + 106
    $d
        0x000005be:    0000        ..      DCW    0
        0x000005c0:    000003fd    ....    DCD    1021
    $t
    .text
    __aeabi_i2f
        0x000005c4:    17c2        ..      ASRS     r2,r0,#31
        0x000005c6:    0fc1        ..      LSRS     r1,r0,#31
        0x000005c8:    4050        P@      EORS     r0,r0,r2
        0x000005ca:    b510        ..      PUSH     {r4,lr}
        0x000005cc:    1840        @.      ADDS     r0,r0,r1
        0x000005ce:    07ca        ..      LSLS     r2,r1,#31
        0x000005d0:    2396        .#      MOVS     r3,#0x96
        0x000005d2:    2100        .!      MOVS     r1,#0
        0x000005d4:    f000f8ce    ....    BL       _float_epilogue ; 0x774
        0x000005d8:    bd10        ..      POP      {r4,pc}
    .text
    __aeabi_ui2f
        0x000005da:    b510        ..      PUSH     {r4,lr}
        0x000005dc:    2200        ."      MOVS     r2,#0
        0x000005de:    2396        .#      MOVS     r3,#0x96
        0x000005e0:    4611        .F      MOV      r1,r2
        0x000005e2:    f000f8c7    ....    BL       _float_epilogue ; 0x774
        0x000005e6:    bd10        ..      POP      {r4,pc}
    .text
    __aeabi_ui2d
        0x000005e8:    b50e        ..      PUSH     {r1-r3,lr}
        0x000005ea:    4905        .I      LDR      r1,[pc,#20] ; [0x600] = 0x433
        0x000005ec:    9102        ..      STR      r1,[sp,#8]
        0x000005ee:    2100        .!      MOVS     r1,#0
        0x000005f0:    9100        ..      STR      r1,[sp,#0]
        0x000005f2:    460a        .F      MOV      r2,r1
        0x000005f4:    460b        .F      MOV      r3,r1
        0x000005f6:    9101        ..      STR      r1,[sp,#4]
        0x000005f8:    f000f902    ....    BL       _double_epilogue ; 0x800
        0x000005fc:    b003        ..      ADD      sp,sp,#0xc
        0x000005fe:    bd00        ..      POP      {pc}
    $d
        0x00000600:    00000433    3...    DCD    1075
    $t
    .text
    __aeabi_f2iz
        0x00000604:    0fc2        ..      LSRS     r2,r0,#31
        0x00000606:    0041        A.      LSLS     r1,r0,#1
        0x00000608:    0240        @.      LSLS     r0,r0,#9
        0x0000060a:    2301        .#      MOVS     r3,#1
        0x0000060c:    0a40        @.      LSRS     r0,r0,#9
        0x0000060e:    05db        ..      LSLS     r3,r3,#23
        0x00000610:    07d2        ..      LSLS     r2,r2,#31
        0x00000612:    0e09        ..      LSRS     r1,r1,#24
        0x00000614:    18c0        ..      ADDS     r0,r0,r3
        0x00000616:    297f        .)      CMP      r1,#0x7f
        0x00000618:    da01        ..      BGE      0x61e ; __aeabi_f2iz + 26
        0x0000061a:    2000        .       MOVS     r0,#0
        0x0000061c:    4770        pG      BX       lr
        0x0000061e:    2996        .)      CMP      r1,#0x96
        0x00000620:    dc03        ..      BGT      0x62a ; __aeabi_f2iz + 38
        0x00000622:    2396        .#      MOVS     r3,#0x96
        0x00000624:    1a59        Y.      SUBS     r1,r3,r1
        0x00000626:    40c8        .@      LSRS     r0,r0,r1
        0x00000628:    e001        ..      B        0x62e ; __aeabi_f2iz + 42
        0x0000062a:    3996        .9      SUBS     r1,r1,#0x96
        0x0000062c:    4088        .@      LSLS     r0,r0,r1
        0x0000062e:    2a00        .*      CMP      r2,#0
        0x00000630:    d0f4        ..      BEQ      0x61c ; __aeabi_f2iz + 24
        0x00000632:    4240        @B      RSBS     r0,r0,#0
        0x00000634:    4770        pG      BX       lr
    .text
    __aeabi_f2uiz
        0x00000636:    0041        A.      LSLS     r1,r0,#1
        0x00000638:    0240        @.      LSLS     r0,r0,#9
        0x0000063a:    2201        ."      MOVS     r2,#1
        0x0000063c:    0a40        @.      LSRS     r0,r0,#9
        0x0000063e:    05d2        ..      LSLS     r2,r2,#23
        0x00000640:    0e09        ..      LSRS     r1,r1,#24
        0x00000642:    1880        ..      ADDS     r0,r0,r2
        0x00000644:    297f        .)      CMP      r1,#0x7f
        0x00000646:    da01        ..      BGE      0x64c ; __aeabi_f2uiz + 22
        0x00000648:    2000        .       MOVS     r0,#0
        0x0000064a:    4770        pG      BX       lr
        0x0000064c:    2996        .)      CMP      r1,#0x96
        0x0000064e:    dc03        ..      BGT      0x658 ; __aeabi_f2uiz + 34
        0x00000650:    2296        ."      MOVS     r2,#0x96
        0x00000652:    1a51        Q.      SUBS     r1,r2,r1
        0x00000654:    40c8        .@      LSRS     r0,r0,r1
        0x00000656:    4770        pG      BX       lr
        0x00000658:    3996        .9      SUBS     r1,r1,#0x96
        0x0000065a:    4088        .@      LSLS     r0,r0,r1
        0x0000065c:    4770        pG      BX       lr
    .text
    __aeabi_f2d
        0x0000065e:    0fc2        ..      LSRS     r2,r0,#31
        0x00000660:    07d2        ..      LSLS     r2,r2,#31
        0x00000662:    0040        @.      LSLS     r0,r0,#1
        0x00000664:    0840        @.      LSRS     r0,r0,#1
        0x00000666:    d00b        ..      BEQ      0x680 ; __aeabi_f2d + 34
        0x00000668:    0dc1        ..      LSRS     r1,r0,#23
        0x0000066a:    2307        .#      MOVS     r3,#7
        0x0000066c:    01db        ..      LSLS     r3,r3,#7
        0x0000066e:    18c9        ..      ADDS     r1,r1,r3
        0x00000670:    0240        @.      LSLS     r0,r0,#9
        0x00000672:    0509        ..      LSLS     r1,r1,#20
        0x00000674:    0a40        @.      LSRS     r0,r0,#9
        0x00000676:    4311        .C      ORRS     r1,r1,r2
        0x00000678:    08c2        ..      LSRS     r2,r0,#3
        0x0000067a:    0740        @.      LSLS     r0,r0,#29
        0x0000067c:    4311        .C      ORRS     r1,r1,r2
        0x0000067e:    4770        pG      BX       lr
        0x00000680:    2000        .       MOVS     r0,#0
        0x00000682:    4601        .F      MOV      r1,r0
        0x00000684:    4770        pG      BX       lr
    .text
    __aeabi_d2f
        0x00000686:    0fcb        ..      LSRS     r3,r1,#31
        0x00000688:    07db        ..      LSLS     r3,r3,#31
        0x0000068a:    0049        I.      LSLS     r1,r1,#1
        0x0000068c:    b510        ..      PUSH     {r4,lr}
        0x0000068e:    0849        I.      LSRS     r1,r1,#1
        0x00000690:    4602        .F      MOV      r2,r0
        0x00000692:    430a        .C      ORRS     r2,r2,r1
        0x00000694:    d007        ..      BEQ      0x6a6 ; __aeabi_d2f + 32
        0x00000696:    0d0a        ..      LSRS     r2,r1,#20
        0x00000698:    2407        .$      MOVS     r4,#7
        0x0000069a:    0309        ..      LSLS     r1,r1,#12
        0x0000069c:    01e4        ..      LSLS     r4,r4,#7
        0x0000069e:    0b09        ..      LSRS     r1,r1,#12
        0x000006a0:    1b12        ..      SUBS     r2,r2,r4
        0x000006a2:    2a00        .*      CMP      r2,#0
        0x000006a4:    dc01        ..      BGT      0x6aa ; __aeabi_d2f + 36
        0x000006a6:    2000        .       MOVS     r0,#0
        0x000006a8:    bd10        ..      POP      {r4,pc}
        0x000006aa:    00c9        ..      LSLS     r1,r1,#3
        0x000006ac:    0f44        D.      LSRS     r4,r0,#29
        0x000006ae:    430c        .C      ORRS     r4,r4,r1
        0x000006b0:    00c1        ..      LSLS     r1,r0,#3
        0x000006b2:    18e0        ..      ADDS     r0,r4,r3
        0x000006b4:    05d2        ..      LSLS     r2,r2,#23
        0x000006b6:    1880        ..      ADDS     r0,r0,r2
        0x000006b8:    f000f854    ..T.    BL       __I$use$fp ; 0x764
        0x000006bc:    bd10        ..      POP      {r4,pc}
    .text
    __aeabi_uldivmod
        0x000006be:    b5f0        ..      PUSH     {r4-r7,lr}
        0x000006c0:    b41f        ..      PUSH     {r0-r4}
        0x000006c2:    4606        .F      MOV      r6,r0
        0x000006c4:    2000        .       MOVS     r0,#0
        0x000006c6:    b082        ..      SUB      sp,sp,#8
        0x000006c8:    4605        .F      MOV      r5,r0
        0x000006ca:    2440        @$      MOVS     r4,#0x40
        0x000006cc:    9101        ..      STR      r1,[sp,#4]
        0x000006ce:    9000        ..      STR      r0,[sp,#0]
        0x000006d0:    e01b        ..      B        0x70a ; __aeabi_uldivmod + 76
        0x000006d2:    9901        ..      LDR      r1,[sp,#4]
        0x000006d4:    4622        "F      MOV      r2,r4
        0x000006d6:    460f        .F      MOV      r7,r1
        0x000006d8:    4630        0F      MOV      r0,r6
        0x000006da:    f000f953    ..S.    BL       __aeabi_llsr ; 0x984
        0x000006de:    9a04        ..      LDR      r2,[sp,#0x10]
        0x000006e0:    9b05        ..      LDR      r3,[sp,#0x14]
        0x000006e2:    1a80        ..      SUBS     r0,r0,r2
        0x000006e4:    4199        .A      SBCS     r1,r1,r3
        0x000006e6:    d310        ..      BCC      0x70a ; __aeabi_uldivmod + 76
        0x000006e8:    4610        .F      MOV      r0,r2
        0x000006ea:    4619        .F      MOV      r1,r3
        0x000006ec:    4622        "F      MOV      r2,r4
        0x000006ee:    f000f816    ....    BL       __aeabi_llsl ; 0x71e
        0x000006f2:    1a36        6.      SUBS     r6,r6,r0
        0x000006f4:    418f        .A      SBCS     r7,r7,r1
        0x000006f6:    9701        ..      STR      r7,[sp,#4]
        0x000006f8:    4622        "F      MOV      r2,r4
        0x000006fa:    2001        .       MOVS     r0,#1
        0x000006fc:    2100        .!      MOVS     r1,#0
        0x000006fe:    9f00        ..      LDR      r7,[sp,#0]
        0x00000700:    f000f80d    ....    BL       __aeabi_llsl ; 0x71e
        0x00000704:    1838        8.      ADDS     r0,r7,r0
        0x00000706:    414d        MA      ADCS     r5,r5,r1
        0x00000708:    9000        ..      STR      r0,[sp,#0]
        0x0000070a:    4620         F      MOV      r0,r4
        0x0000070c:    1e64        d.      SUBS     r4,r4,#1
        0x0000070e:    2800        .(      CMP      r0,#0
        0x00000710:    dcdf        ..      BGT      0x6d2 ; __aeabi_uldivmod + 20
        0x00000712:    9b01        ..      LDR      r3,[sp,#4]
        0x00000714:    9800        ..      LDR      r0,[sp,#0]
        0x00000716:    4629        )F      MOV      r1,r5
        0x00000718:    4632        2F      MOV      r2,r6
        0x0000071a:    b007        ..      ADD      sp,sp,#0x1c
        0x0000071c:    bdf0        ..      POP      {r4-r7,pc}
    .text
    __aeabi_llsl
    _ll_shift_l
        0x0000071e:    b510        ..      PUSH     {r4,lr}
        0x00000720:    2a20         *      CMP      r2,#0x20
        0x00000722:    db04        ..      BLT      0x72e ; __aeabi_llsl + 16
        0x00000724:    4601        .F      MOV      r1,r0
        0x00000726:    3a20         :      SUBS     r2,r2,#0x20
        0x00000728:    4091        .@      LSLS     r1,r1,r2
        0x0000072a:    2000        .       MOVS     r0,#0
        0x0000072c:    bd10        ..      POP      {r4,pc}
        0x0000072e:    4091        .@      LSLS     r1,r1,r2
        0x00000730:    2320         #      MOVS     r3,#0x20
        0x00000732:    1a9c        ..      SUBS     r4,r3,r2
        0x00000734:    4603        .F      MOV      r3,r0
        0x00000736:    40e3        .@      LSRS     r3,r3,r4
        0x00000738:    4319        .C      ORRS     r1,r1,r3
        0x0000073a:    4090        .@      LSLS     r0,r0,r2
        0x0000073c:    bd10        ..      POP      {r4,pc}
    .text
    __aeabi_lasr
    _ll_sshift_r
        0x0000073e:    b510        ..      PUSH     {r4,lr}
        0x00000740:    2a20         *      CMP      r2,#0x20
        0x00000742:    db06        ..      BLT      0x752 ; __aeabi_lasr + 20
        0x00000744:    17cb        ..      ASRS     r3,r1,#31
        0x00000746:    4608        .F      MOV      r0,r1
        0x00000748:    3a20         :      SUBS     r2,r2,#0x20
        0x0000074a:    4110        .A      ASRS     r0,r0,r2
        0x0000074c:    17c1        ..      ASRS     r1,r0,#31
        0x0000074e:    430b        .C      ORRS     r3,r3,r1
        0x00000750:    e006        ..      B        0x760 ; __aeabi_lasr + 34
        0x00000752:    460b        .F      MOV      r3,r1
        0x00000754:    4113        .A      ASRS     r3,r3,r2
        0x00000756:    40d0        .@      LSRS     r0,r0,r2
        0x00000758:    2420         $      MOVS     r4,#0x20
        0x0000075a:    1aa2        ..      SUBS     r2,r4,r2
        0x0000075c:    4091        .@      LSLS     r1,r1,r2
        0x0000075e:    4308        .C      ORRS     r0,r0,r1
        0x00000760:    4619        .F      MOV      r1,r3
        0x00000762:    bd10        ..      POP      {r4,pc}
    .text
    .text
    __I$use$fp
    _float_round
        0x00000764:    2900        .)      CMP      r1,#0
        0x00000766:    da04        ..      BGE      0x772 ; __I$use$fp + 14
        0x00000768:    1c40        @.      ADDS     r0,r0,#1
        0x0000076a:    0049        I.      LSLS     r1,r1,#1
        0x0000076c:    d101        ..      BNE      0x772 ; __I$use$fp + 14
        0x0000076e:    0840        @.      LSRS     r0,r0,#1
        0x00000770:    0040        @.      LSLS     r0,r0,#1
        0x00000772:    4770        pG      BX       lr
    _float_epilogue
        0x00000774:    b470        p.      PUSH     {r4-r6}
        0x00000776:    2400        .$      MOVS     r4,#0
        0x00000778:    0c05        ..      LSRS     r5,r0,#16
        0x0000077a:    d105        ..      BNE      0x788 ; _float_epilogue + 20
        0x0000077c:    2410        .$      MOVS     r4,#0x10
        0x0000077e:    0400        ..      LSLS     r0,r0,#16
        0x00000780:    d102        ..      BNE      0x788 ; _float_epilogue + 20
        0x00000782:    2900        .)      CMP      r1,#0
        0x00000784:    d021        !.      BEQ      0x7ca ; _float_epilogue + 86
        0x00000786:    2411        .$      MOVS     r4,#0x11
        0x00000788:    0e05        ..      LSRS     r5,r0,#24
        0x0000078a:    d101        ..      BNE      0x790 ; _float_epilogue + 28
        0x0000078c:    0200        ..      LSLS     r0,r0,#8
        0x0000078e:    3408        .4      ADDS     r4,r4,#8
        0x00000790:    0f05        ..      LSRS     r5,r0,#28
        0x00000792:    d101        ..      BNE      0x798 ; _float_epilogue + 36
        0x00000794:    0100        ..      LSLS     r0,r0,#4
        0x00000796:    1d24        $.      ADDS     r4,r4,#4
        0x00000798:    0f85        ..      LSRS     r5,r0,#30
        0x0000079a:    d101        ..      BNE      0x7a0 ; _float_epilogue + 44
        0x0000079c:    0080        ..      LSLS     r0,r0,#2
        0x0000079e:    1ca4        ..      ADDS     r4,r4,#2
        0x000007a0:    2800        .(      CMP      r0,#0
        0x000007a2:    db01        ..      BLT      0x7a8 ; _float_epilogue + 52
        0x000007a4:    0040        @.      LSLS     r0,r0,#1
        0x000007a6:    1c64        d.      ADDS     r4,r4,#1
        0x000007a8:    2900        .)      CMP      r1,#0
        0x000007aa:    d008        ..      BEQ      0x7be ; _float_epilogue + 74
        0x000007ac:    2520         %      MOVS     r5,#0x20
        0x000007ae:    1b2e        ..      SUBS     r6,r5,r4
        0x000007b0:    460d        .F      MOV      r5,r1
        0x000007b2:    40f5        .@      LSRS     r5,r5,r6
        0x000007b4:    40a1        .@      LSLS     r1,r1,r4
        0x000007b6:    d000        ..      BEQ      0x7ba ; _float_epilogue + 70
        0x000007b8:    2101        .!      MOVS     r1,#1
        0x000007ba:    4329        )C      ORRS     r1,r1,r5
        0x000007bc:    4308        .C      ORRS     r0,r0,r1
        0x000007be:    0601        ..      LSLS     r1,r0,#24
        0x000007c0:    1b1b        ..      SUBS     r3,r3,r4
        0x000007c2:    0a00        ..      LSRS     r0,r0,#8
        0x000007c4:    1ddb        ..      ADDS     r3,r3,#7
        0x000007c6:    d502        ..      BPL      0x7ce ; _float_epilogue + 90
        0x000007c8:    2000        .       MOVS     r0,#0
        0x000007ca:    bc70        p.      POP      {r4-r6}
        0x000007cc:    4770        pG      BX       lr
        0x000007ce:    05db        ..      LSLS     r3,r3,#23
        0x000007d0:    1818        ..      ADDS     r0,r3,r0
        0x000007d2:    1880        ..      ADDS     r0,r0,r2
        0x000007d4:    2900        .)      CMP      r1,#0
        0x000007d6:    daf8        ..      BGE      0x7ca ; _float_epilogue + 86
        0x000007d8:    1c40        @.      ADDS     r0,r0,#1
        0x000007da:    0049        I.      LSLS     r1,r1,#1
        0x000007dc:    d1f5        ..      BNE      0x7ca ; _float_epilogue + 86
        0x000007de:    bc70        p.      POP      {r4-r6}
        0x000007e0:    0840        @.      LSRS     r0,r0,#1
        0x000007e2:    0040        @.      LSLS     r0,r0,#1
        0x000007e4:    4770        pG      BX       lr
    .text
    _double_round
        0x000007e6:    b510        ..      PUSH     {r4,lr}
        0x000007e8:    2b00        .+      CMP      r3,#0
        0x000007ea:    da08        ..      BGE      0x7fe ; _double_round + 24
        0x000007ec:    2400        .$      MOVS     r4,#0
        0x000007ee:    1c40        @.      ADDS     r0,r0,#1
        0x000007f0:    4161        aA      ADCS     r1,r1,r4
        0x000007f2:    1892        ..      ADDS     r2,r2,r2
        0x000007f4:    415b        [A      ADCS     r3,r3,r3
        0x000007f6:    431a        .C      ORRS     r2,r2,r3
        0x000007f8:    d101        ..      BNE      0x7fe ; _double_round + 24
        0x000007fa:    0840        @.      LSRS     r0,r0,#1
        0x000007fc:    0040        @.      LSLS     r0,r0,#1
        0x000007fe:    bd10        ..      POP      {r4,pc}
    _double_epilogue
        0x00000800:    b5f0        ..      PUSH     {r4-r7,lr}
        0x00000802:    b41f        ..      PUSH     {r0-r4}
        0x00000804:    b082        ..      SUB      sp,sp,#8
        0x00000806:    4605        .F      MOV      r5,r0
        0x00000808:    000c        ..      MOVS     r4,r1
        0x0000080a:    d003        ..      BEQ      0x814 ; _double_epilogue + 20
        0x0000080c:    4608        .F      MOV      r0,r1
        0x0000080e:    f000ff03    ....    BL       __ARM_clz ; 0x1618
        0x00000812:    e002        ..      B        0x81a ; _double_epilogue + 26
        0x00000814:    f000ff00    ....    BL       __ARM_clz ; 0x1618
        0x00000818:    3020         0      ADDS     r0,r0,#0x20
        0x0000081a:    4602        .F      MOV      r2,r0
        0x0000081c:    9000        ..      STR      r0,[sp,#0]
        0x0000081e:    4621        !F      MOV      r1,r4
        0x00000820:    4628        (F      MOV      r0,r5
        0x00000822:    f7ffff7c    ..|.    BL       __aeabi_llsl ; 0x71e
        0x00000826:    9b04        ..      LDR      r3,[sp,#0x10]
        0x00000828:    9a05        ..      LDR      r2,[sp,#0x14]
        0x0000082a:    4604        .F      MOV      r4,r0
        0x0000082c:    460f        .F      MOV      r7,r1
        0x0000082e:    4318        .C      ORRS     r0,r0,r3
        0x00000830:    4311        .C      ORRS     r1,r1,r2
        0x00000832:    4308        .C      ORRS     r0,r0,r1
        0x00000834:    d014        ..      BEQ      0x860 ; _double_epilogue + 96
        0x00000836:    4618        .F      MOV      r0,r3
        0x00000838:    4310        .C      ORRS     r0,r0,r2
        0x0000083a:    d01b        ..      BEQ      0x874 ; _double_epilogue + 116
        0x0000083c:    9800        ..      LDR      r0,[sp,#0]
        0x0000083e:    2140        @!      MOVS     r1,#0x40
        0x00000840:    1a0a        ..      SUBS     r2,r1,r0
        0x00000842:    4618        .F      MOV      r0,r3
        0x00000844:    9905        ..      LDR      r1,[sp,#0x14]
        0x00000846:    f000f89d    ....    BL       __aeabi_llsr ; 0x984
        0x0000084a:    4605        .F      MOV      r5,r0
        0x0000084c:    460e        .F      MOV      r6,r1
        0x0000084e:    9a00        ..      LDR      r2,[sp,#0]
        0x00000850:    9905        ..      LDR      r1,[sp,#0x14]
        0x00000852:    9804        ..      LDR      r0,[sp,#0x10]
        0x00000854:    f7ffff63    ..c.    BL       __aeabi_llsl ; 0x71e
        0x00000858:    4308        .C      ORRS     r0,r0,r1
        0x0000085a:    d005        ..      BEQ      0x868 ; _double_epilogue + 104
        0x0000085c:    2001        .       MOVS     r0,#1
        0x0000085e:    e004        ..      B        0x86a ; _double_epilogue + 106
        0x00000860:    4620         F      MOV      r0,r4
        0x00000862:    4639        9F      MOV      r1,r7
        0x00000864:    b007        ..      ADD      sp,sp,#0x1c
        0x00000866:    bdf0        ..      POP      {r4-r7,pc}
        0x00000868:    2000        .       MOVS     r0,#0
        0x0000086a:    17c1        ..      ASRS     r1,r0,#31
        0x0000086c:    4305        .C      ORRS     r5,r5,r0
        0x0000086e:    430e        .C      ORRS     r6,r6,r1
        0x00000870:    432c        ,C      ORRS     r4,r4,r5
        0x00000872:    4337        7C      ORRS     r7,r7,r6
        0x00000874:    9900        ..      LDR      r1,[sp,#0]
        0x00000876:    980e        ..      LDR      r0,[sp,#0x38]
        0x00000878:    0563        c.      LSLS     r3,r4,#21
        0x0000087a:    1a40        @.      SUBS     r0,r0,r1
        0x0000087c:    0579        y.      LSLS     r1,r7,#21
        0x0000087e:    0ae4        ..      LSRS     r4,r4,#11
        0x00000880:    2200        ."      MOVS     r2,#0
        0x00000882:    430c        .C      ORRS     r4,r4,r1
        0x00000884:    0afd        ..      LSRS     r5,r7,#11
        0x00000886:    300a        .0      ADDS     r0,r0,#0xa
        0x00000888:    d502        ..      BPL      0x890 ; _double_epilogue + 144
        0x0000088a:    2000        .       MOVS     r0,#0
        0x0000088c:    4601        .F      MOV      r1,r0
        0x0000088e:    e7e9        ..      B        0x864 ; _double_epilogue + 100
        0x00000890:    0501        ..      LSLS     r1,r0,#20
        0x00000892:    1910        ..      ADDS     r0,r2,r4
        0x00000894:    4169        iA      ADCS     r1,r1,r5
        0x00000896:    9c0c        ..      LDR      r4,[sp,#0x30]
        0x00000898:    9d0d        ..      LDR      r5,[sp,#0x34]
        0x0000089a:    1900        ..      ADDS     r0,r0,r4
        0x0000089c:    4169        iA      ADCS     r1,r1,r5
        0x0000089e:    f7ffffa2    ....    BL       _double_round ; 0x7e6
        0x000008a2:    e7df        ..      B        0x864 ; _double_epilogue + 100
    .text
    __ARM_scalbn
    scalbn
        0x000008a4:    b570        p.      PUSH     {r4-r6,lr}
        0x000008a6:    004b        K.      LSLS     r3,r1,#1
        0x000008a8:    085b        [.      LSRS     r3,r3,#1
        0x000008aa:    4303        .C      ORRS     r3,r3,r0
        0x000008ac:    d00b        ..      BEQ      0x8c6 ; __ARM_scalbn + 34
        0x000008ae:    004b        K.      LSLS     r3,r1,#1
        0x000008b0:    0d5c        \.      LSRS     r4,r3,#21
        0x000008b2:    2600        .&      MOVS     r6,#0
        0x000008b4:    4633        3F      MOV      r3,r6
        0x000008b6:    4265        eB      RSBS     r5,r4,#0
        0x000008b8:    41b3        .A      SBCS     r3,r3,r6
        0x000008ba:    17d4        ..      ASRS     r4,r2,#31
        0x000008bc:    1aad        ..      SUBS     r5,r5,r2
        0x000008be:    41a3        .A      SBCS     r3,r3,r4
        0x000008c0:    db02        ..      BLT      0x8c8 ; __ARM_scalbn + 36
        0x000008c2:    2000        .       MOVS     r0,#0
        0x000008c4:    4601        .F      MOV      r1,r0
        0x000008c6:    bd70        p.      POP      {r4-r6,pc}
        0x000008c8:    0512        ..      LSLS     r2,r2,#20
        0x000008ca:    1830        0.      ADDS     r0,r6,r0
        0x000008cc:    4151        QA      ADCS     r1,r1,r2
        0x000008ce:    bd70        p.      POP      {r4-r6,pc}
    .text
    __aeabi_i2d
        0x000008d0:    b50e        ..      PUSH     {r1-r3,lr}
        0x000008d2:    17c2        ..      ASRS     r2,r0,#31
        0x000008d4:    0fc1        ..      LSRS     r1,r0,#31
        0x000008d6:    4050        P@      EORS     r0,r0,r2
        0x000008d8:    07ca        ..      LSLS     r2,r1,#31
        0x000008da:    1840        @.      ADDS     r0,r0,r1
        0x000008dc:    2100        .!      MOVS     r1,#0
        0x000008de:    4b05        .K      LDR      r3,[pc,#20] ; [0x8f4] = 0x433
        0x000008e0:    9302        ..      STR      r3,[sp,#8]
        0x000008e2:    9201        ..      STR      r2,[sp,#4]
        0x000008e4:    9100        ..      STR      r1,[sp,#0]
        0x000008e6:    460a        .F      MOV      r2,r1
        0x000008e8:    460b        .F      MOV      r3,r1
        0x000008ea:    f7ffff89    ....    BL       _double_epilogue ; 0x800
        0x000008ee:    b003        ..      ADD      sp,sp,#0xc
        0x000008f0:    bd00        ..      POP      {pc}
    $d
        0x000008f2:    0000        ..      DCW    0
        0x000008f4:    00000433    3...    DCD    1075
    $t
    .text
    __aeabi_d2ulz
        0x000008f8:    004a        J.      LSLS     r2,r1,#1
        0x000008fa:    0309        ..      LSLS     r1,r1,#12
        0x000008fc:    2301        .#      MOVS     r3,#1
        0x000008fe:    0b09        ..      LSRS     r1,r1,#12
        0x00000900:    051b        ..      LSLS     r3,r3,#20
        0x00000902:    4319        .C      ORRS     r1,r1,r3
        0x00000904:    4b0a        .K      LDR      r3,[pc,#40] ; [0x930] = 0x3ff
        0x00000906:    b510        ..      PUSH     {r4,lr}
        0x00000908:    0d52        R.      LSRS     r2,r2,#21
        0x0000090a:    429a        .B      CMP      r2,r3
        0x0000090c:    da02        ..      BGE      0x914 ; __aeabi_d2ulz + 28
        0x0000090e:    2000        .       MOVS     r0,#0
        0x00000910:    4601        .F      MOV      r1,r0
        0x00000912:    bd10        ..      POP      {r4,pc}
        0x00000914:    4b06        .K      LDR      r3,[pc,#24] ; [0x930] = 0x3ff
        0x00000916:    3334        43      ADDS     r3,r3,#0x34
        0x00000918:    429a        .B      CMP      r2,r3
        0x0000091a:    dc03        ..      BGT      0x924 ; __aeabi_d2ulz + 44
        0x0000091c:    1a9a        ..      SUBS     r2,r3,r2
        0x0000091e:    f000f831    ..1.    BL       __aeabi_llsr ; 0x984
        0x00000922:    bd10        ..      POP      {r4,pc}
        0x00000924:    4b03        .K      LDR      r3,[pc,#12] ; [0x934] = 0xfffffbcd
        0x00000926:    18d2        ..      ADDS     r2,r2,r3
        0x00000928:    f7fffef9    ....    BL       __aeabi_llsl ; 0x71e
        0x0000092c:    bd10        ..      POP      {r4,pc}
    $d
        0x0000092e:    0000        ..      DCW    0
        0x00000930:    000003ff    ....    DCD    1023
        0x00000934:    fffffbcd    ....    DCD    4294966221
    $t
    .text
    __aeabi_cdrcmple
        0x00000938:    b510        ..      PUSH     {r4,lr}
        0x0000093a:    2900        .)      CMP      r1,#0
        0x0000093c:    db04        ..      BLT      0x948 ; __aeabi_cdrcmple + 16
        0x0000093e:    2401        .$      MOVS     r4,#1
        0x00000940:    07e4        ..      LSLS     r4,r4,#31
        0x00000942:    4240        @B      RSBS     r0,r0,#0
        0x00000944:    418c        .A      SBCS     r4,r4,r1
        0x00000946:    4621        !F      MOV      r1,r4
        0x00000948:    2b00        .+      CMP      r3,#0
        0x0000094a:    db04        ..      BLT      0x956 ; __aeabi_cdrcmple + 30
        0x0000094c:    461c        .F      MOV      r4,r3
        0x0000094e:    2301        .#      MOVS     r3,#1
        0x00000950:    07db        ..      LSLS     r3,r3,#31
        0x00000952:    4252        RB      RSBS     r2,r2,#0
        0x00000954:    41a3        .A      SBCS     r3,r3,r4
        0x00000956:    4299        .B      CMP      r1,r3
        0x00000958:    d100        ..      BNE      0x95c ; __aeabi_cdrcmple + 36
        0x0000095a:    4290        .B      CMP      r0,r2
        0x0000095c:    bd10        ..      POP      {r4,pc}
    $d
        0x0000095e:    0000        ..      DCW    0
    $t
    .text
    __scatterload
    __scatterload_rt2
        0x00000960:    4c06        .L      LDR      r4,[pc,#24] ; [0x97c] = 0x3e08
        0x00000962:    2501        .%      MOVS     r5,#1
        0x00000964:    4e06        .N      LDR      r6,[pc,#24] ; [0x980] = 0x3e28
        0x00000966:    e005        ..      B        0x974 ; __scatterload + 20
        0x00000968:    68e3        .h      LDR      r3,[r4,#0xc]
        0x0000096a:    cc07        ..      LDM      r4!,{r0-r2}
        0x0000096c:    432b        +C      ORRS     r3,r3,r5
        0x0000096e:    3c0c        .<      SUBS     r4,r4,#0xc
        0x00000970:    4798        .G      BLX      r3
        0x00000972:    3410        .4      ADDS     r4,r4,#0x10
        0x00000974:    42b4        .B      CMP      r4,r6
        0x00000976:    d3f7        ..      BCC      0x968 ; __scatterload + 8
        0x00000978:    f7fffb88    ....    BL       __main_after_scatterload ; 0x8c
    $d
        0x0000097c:    00003e08    .>..    DCD    15880
        0x00000980:    00003e28    (>..    DCD    15912
    $t
    .text
    __aeabi_llsr
    _ll_ushift_r
        0x00000984:    b510        ..      PUSH     {r4,lr}
        0x00000986:    2a20         *      CMP      r2,#0x20
        0x00000988:    db04        ..      BLT      0x994 ; __aeabi_llsr + 16
        0x0000098a:    4608        .F      MOV      r0,r1
        0x0000098c:    3a20         :      SUBS     r2,r2,#0x20
        0x0000098e:    40d0        .@      LSRS     r0,r0,r2
        0x00000990:    2100        .!      MOVS     r1,#0
        0x00000992:    bd10        ..      POP      {r4,pc}
        0x00000994:    460b        .F      MOV      r3,r1
        0x00000996:    40d3        .@      LSRS     r3,r3,r2
        0x00000998:    40d0        .@      LSRS     r0,r0,r2
        0x0000099a:    2420         $      MOVS     r4,#0x20
        0x0000099c:    1aa2        ..      SUBS     r2,r4,r2
        0x0000099e:    4091        .@      LSLS     r1,r1,r2
        0x000009a0:    4308        .C      ORRS     r0,r0,r1
        0x000009a2:    4619        .F      MOV      r1,r3
        0x000009a4:    bd10        ..      POP      {r4,pc}
    .text
    _dsqrt
        0x000009a6:    b5fe        ..      PUSH     {r1-r7,lr}
        0x000009a8:    2300        .#      MOVS     r3,#0
        0x000009aa:    461a        .F      MOV      r2,r3
        0x000009ac:    1a1b        ..      SUBS     r3,r3,r0
        0x000009ae:    418a        .A      SBCS     r2,r2,r1
        0x000009b0:    db03        ..      BLT      0x9ba ; _dsqrt + 20
        0x000009b2:    2000        .       MOVS     r0,#0
        0x000009b4:    4601        .F      MOV      r1,r0
        0x000009b6:    b003        ..      ADD      sp,sp,#0xc
        0x000009b8:    bdf0        ..      POP      {r4-r7,pc}
        0x000009ba:    004a        J.      LSLS     r2,r1,#1
        0x000009bc:    030d        ..      LSLS     r5,r1,#12
        0x000009be:    2101        .!      MOVS     r1,#1
        0x000009c0:    0b2d        -.      LSRS     r5,r5,#12
        0x000009c2:    0509        ..      LSLS     r1,r1,#20
        0x000009c4:    0d52        R.      LSRS     r2,r2,#21
        0x000009c6:    430d        .C      ORRS     r5,r5,r1
        0x000009c8:    07d1        ..      LSLS     r1,r2,#31
        0x000009ca:    d102        ..      BNE      0x9d2 ; _dsqrt + 44
        0x000009cc:    1800        ..      ADDS     r0,r0,r0
        0x000009ce:    416d        mA      ADCS     r5,r5,r5
        0x000009d0:    1e52        R.      SUBS     r2,r2,#1
        0x000009d2:    1051        Q.      ASRS     r1,r2,#1
        0x000009d4:    31ff        .1      ADDS     r1,r1,#0xff
        0x000009d6:    31ff        .1      ADDS     r1,r1,#0xff
        0x000009d8:    3101        .1      ADDS     r1,#1
        0x000009da:    2700        .'      MOVS     r7,#0
        0x000009dc:    4604        .F      MOV      r4,r0
        0x000009de:    463e        >F      MOV      r6,r7
        0x000009e0:    4638        8F      MOV      r0,r7
        0x000009e2:    9700        ..      STR      r7,[sp,#0]
        0x000009e4:    9101        ..      STR      r1,[sp,#4]
        0x000009e6:    4602        .F      MOV      r2,r0
        0x000009e8:    2101        .!      MOVS     r1,#1
        0x000009ea:    2000        .       MOVS     r0,#0
        0x000009ec:    0509        ..      LSLS     r1,r1,#20
        0x000009ee:    f7ffffc9    ....    BL       __aeabi_llsr ; 0x984
        0x000009f2:    19c3        ..      ADDS     r3,r0,r7
        0x000009f4:    4171        qA      ADCS     r1,r1,r6
        0x000009f6:    18f8        ..      ADDS     r0,r7,r3
        0x000009f8:    4632        2F      MOV      r2,r6
        0x000009fa:    4684        .F      MOV      r12,r0
        0x000009fc:    468e        .F      MOV      lr,r1
        0x000009fe:    414a        JA      ADCS     r2,r2,r1
        0x00000a00:    4661        aF      MOV      r1,r12
        0x00000a02:    4628        (F      MOV      r0,r5
        0x00000a04:    1a61        a.      SUBS     r1,r4,r1
        0x00000a06:    4190        .A      SBCS     r0,r0,r2
        0x00000a08:    d304        ..      BCC      0xa14 ; _dsqrt + 110
        0x00000a0a:    4660        `F      MOV      r0,r12
        0x00000a0c:    1a24        $.      SUBS     r4,r4,r0
        0x00000a0e:    4195        .A      SBCS     r5,r5,r2
        0x00000a10:    4676        vF      MOV      r6,lr
        0x00000a12:    461f        .F      MOV      r7,r3
        0x00000a14:    1924        $.      ADDS     r4,r4,r4
        0x00000a16:    9800        ..      LDR      r0,[sp,#0]
        0x00000a18:    416d        mA      ADCS     r5,r5,r5
        0x00000a1a:    1c40        @.      ADDS     r0,r0,#1
        0x00000a1c:    9000        ..      STR      r0,[sp,#0]
        0x00000a1e:    2834        4(      CMP      r0,#0x34
        0x00000a20:    dde1        ..      BLE      0x9e6 ; _dsqrt + 64
        0x00000a22:    19f9        ..      ADDS     r1,r7,r7
        0x00000a24:    4630        0F      MOV      r0,r6
        0x00000a26:    4170        pA      ADCS     r0,r0,r6
        0x00000a28:    1b09        ..      SUBS     r1,r1,r4
        0x00000a2a:    41a8        .A      SBCS     r0,r0,r5
        0x00000a2c:    d203        ..      BCS      0xa36 ; _dsqrt + 144
        0x00000a2e:    2200        ."      MOVS     r2,#0
        0x00000a30:    43d2        .C      MVNS     r2,r2
        0x00000a32:    4613        .F      MOV      r3,r2
        0x00000a34:    e001        ..      B        0xa3a ; _dsqrt + 148
        0x00000a36:    2200        ."      MOVS     r2,#0
        0x00000a38:    4613        .F      MOV      r3,r2
        0x00000a3a:    9801        ..      LDR      r0,[sp,#4]
        0x00000a3c:    0501        ..      LSLS     r1,r0,#20
        0x00000a3e:    1c38        8.      ADDS     r0,r7,#0
        0x00000a40:    4171        qA      ADCS     r1,r1,r6
        0x00000a42:    f7fffed0    ....    BL       _double_round ; 0x7e6
        0x00000a46:    e7b6        ..      B        0x9b6 ; _dsqrt + 16
    i.BMP100_altitude
    BMP100_altitude
        0x00000a48:    b5f3        ..      PUSH     {r0,r1,r4-r7,lr}
        0x00000a4a:    b087        ..      SUB      sp,sp,#0x1c
        0x00000a4c:    9908        ..      LDR      r1,[sp,#0x20]
        0x00000a4e:    9807        ..      LDR      r0,[sp,#0x1c]
        0x00000a50:    f7fffbe8    ....    BL       __aeabi_fdiv ; 0x224
        0x00000a54:    9001        ..      STR      r0,[sp,#4]
        0x00000a56:    f7fffe02    ....    BL       __aeabi_f2d ; 0x65e
        0x00000a5a:    4604        .F      MOV      r4,r0
        0x00000a5c:    4a0a        .J      LDR      r2,[pc,#40] ; [0xa88] = 0xccd9456c
        0x00000a5e:    4b0b        .K      LDR      r3,[pc,#44] ; [0xa8c] = 0x3fc85b95
        0x00000a60:    f002f83a    ..:.    BL       pow ; 0x2ad8
        0x00000a64:    4606        .F      MOV      r6,r0
        0x00000a66:    2200        ."      MOVS     r2,#0
        0x00000a68:    4b09        .K      LDR      r3,[pc,#36] ; [0xa90] = 0x3ff00000
        0x00000a6a:    f7fffcc3    ....    BL       __aeabi_drsub ; 0x3f4
        0x00000a6e:    2200        ."      MOVS     r2,#0
        0x00000a70:    4b08        .K      LDR      r3,[pc,#32] ; [0xa94] = 0x40e5a540
        0x00000a72:    9103        ..      STR      r1,[sp,#0xc]
        0x00000a74:    9002        ..      STR      r0,[sp,#8]
        0x00000a76:    f7fffcc5    ....    BL       __aeabi_dmul ; 0x404
        0x00000a7a:    9105        ..      STR      r1,[sp,#0x14]
        0x00000a7c:    9004        ..      STR      r0,[sp,#0x10]
        0x00000a7e:    f7fffe02    ....    BL       __aeabi_d2f ; 0x686
        0x00000a82:    b009        ..      ADD      sp,sp,#0x24
        0x00000a84:    bdf0        ..      POP      {r4-r7,pc}
    $d
        0x00000a86:    0000        ..      DCW    0
        0x00000a88:    ccd9456c    lE..    DCD    3436791148
        0x00000a8c:    3fc85b95    .[.?    DCD    1070095253
        0x00000a90:    3ff00000    ...?    DCD    1072693248
        0x00000a94:    40e5a540    @..@    DCD    1088791872
    $t
    i.BMP100_sealevel
    BMP100_sealevel
        0x00000a98:    b5f0        ..      PUSH     {r4-r7,lr}
        0x00000a9a:    b08b        ..      SUB      sp,sp,#0x2c
        0x00000a9c:    4607        .F      MOV      r7,r0
        0x00000a9e:    460c        .F      MOV      r4,r1
        0x00000aa0:    4620         F      MOV      r0,r4
        0x00000aa2:    f7fffddc    ....    BL       __aeabi_f2d ; 0x65e
        0x00000aa6:    4605        .F      MOV      r5,r0
        0x00000aa8:    2200        ."      MOVS     r2,#0
        0x00000aaa:    4b10        .K      LDR      r3,[pc,#64] ; [0xaec] = 0x40e5a540
        0x00000aac:    f7fffd12    ....    BL       __aeabi_ddiv ; 0x4d4
        0x00000ab0:    2200        ."      MOVS     r2,#0
        0x00000ab2:    4b0f        .K      LDR      r3,[pc,#60] ; [0xaf0] = 0x3ff00000
        0x00000ab4:    9101        ..      STR      r1,[sp,#4]
        0x00000ab6:    9000        ..      STR      r0,[sp,#0]
        0x00000ab8:    f7fffc9c    ....    BL       __aeabi_drsub ; 0x3f4
        0x00000abc:    4a0d        .J      LDR      r2,[pc,#52] ; [0xaf4] = 0xb851eb85
        0x00000abe:    4b0e        .K      LDR      r3,[pc,#56] ; [0xaf8] = 0x4015051e
        0x00000ac0:    9103        ..      STR      r1,[sp,#0xc]
        0x00000ac2:    9002        ..      STR      r0,[sp,#8]
        0x00000ac4:    f002f808    ....    BL       pow ; 0x2ad8
        0x00000ac8:    9107        ..      STR      r1,[sp,#0x1c]
        0x00000aca:    9006        ..      STR      r0,[sp,#0x18]
        0x00000acc:    4638        8F      MOV      r0,r7
        0x00000ace:    f7fffdc6    ....    BL       __aeabi_f2d ; 0x65e
        0x00000ad2:    9105        ..      STR      r1,[sp,#0x14]
        0x00000ad4:    9004        ..      STR      r0,[sp,#0x10]
        0x00000ad6:    9b07        ..      LDR      r3,[sp,#0x1c]
        0x00000ad8:    9a06        ..      LDR      r2,[sp,#0x18]
        0x00000ada:    f7fffcfb    ....    BL       __aeabi_ddiv ; 0x4d4
        0x00000ade:    9109        ..      STR      r1,[sp,#0x24]
        0x00000ae0:    9008        ..      STR      r0,[sp,#0x20]
        0x00000ae2:    f7fffdd0    ....    BL       __aeabi_d2f ; 0x686
        0x00000ae6:    b00b        ..      ADD      sp,sp,#0x2c
        0x00000ae8:    bdf0        ..      POP      {r4-r7,pc}
    $d
        0x00000aea:    0000        ..      DCW    0
        0x00000aec:    40e5a540    @..@    DCD    1088791872
        0x00000af0:    3ff00000    ...?    DCD    1072693248
        0x00000af4:    b851eb85    ..Q.    DCD    3092376453
        0x00000af8:    4015051e    ...@    DCD    1075119390
    $t
    i.BMP180_calpressure
    BMP180_calpressure
        0x00000afc:    b5f8        ..      PUSH     {r3-r7,lr}
        0x00000afe:    4604        .F      MOV      r4,r0
        0x00000b00:    4620         F      MOV      r0,r4
        0x00000b02:    f000f9dd    ....    BL       BMP180_getUP ; 0xec0
        0x00000b06:    4999        .I      LDR      r1,[pc,#612] ; [0xd6c] = 0x457a0000
        0x00000b08:    4899        .H      LDR      r0,[pc,#612] ; [0xd70] = 0x20000054
        0x00000b0a:    6800        .h      LDR      r0,[r0,#0]
        0x00000b0c:    f7fffb45    ..E.    BL       __aeabi_fsub ; 0x19a
        0x00000b10:    4606        .F      MOV      r6,r0
        0x00000b12:    f7fffd77    ..w.    BL       __aeabi_f2iz ; 0x604
        0x00000b16:    4997        .I      LDR      r1,[pc,#604] ; [0xd74] = 0x20000030
        0x00000b18:    6008        .`      STR      r0,[r1,#0]
        0x00000b1a:    6809        .h      LDR      r1,[r1,#0]
        0x00000b1c:    4349        IC      MULS     r1,r1,r1
        0x00000b1e:    4608        .F      MOV      r0,r1
        0x00000b20:    f7fffd50    ..P.    BL       __aeabi_i2f ; 0x5c4
        0x00000b24:    4994        .I      LDR      r1,[pc,#592] ; [0xd78] = 0x20000048
        0x00000b26:    6008        .`      STR      r0,[r1,#0]
        0x00000b28:    218b        .!      MOVS     r1,#0x8b
        0x00000b2a:    05c9        ..      LSLS     r1,r1,#23
        0x00000b2c:    4892        .H      LDR      r0,[pc,#584] ; [0xd78] = 0x20000048
        0x00000b2e:    6800        .h      LDR      r0,[r0,#0]
        0x00000b30:    f7fffb78    ..x.    BL       __aeabi_fdiv ; 0x224
        0x00000b34:    4990        .I      LDR      r1,[pc,#576] ; [0xd78] = 0x20000048
        0x00000b36:    6008        .`      STR      r0,[r1,#0]
        0x00000b38:    4990        .I      LDR      r1,[pc,#576] ; [0xd7c] = 0x20000026
        0x00000b3a:    2000        .       MOVS     r0,#0
        0x00000b3c:    5e08        .^      LDRSH    r0,[r1,r0]
        0x00000b3e:    f7fffd41    ..A.    BL       __aeabi_i2f ; 0x5c4
        0x00000b42:    4606        .F      MOV      r6,r0
        0x00000b44:    488c        .H      LDR      r0,[pc,#560] ; [0xd78] = 0x20000048
        0x00000b46:    6801        .h      LDR      r1,[r0,#0]
        0x00000b48:    4630        0F      MOV      r0,r6
        0x00000b4a:    f7fffb2e    ....    BL       __aeabi_fmul ; 0x1aa
        0x00000b4e:    498a        .I      LDR      r1,[pc,#552] ; [0xd78] = 0x20000048
        0x00000b50:    6008        .`      STR      r0,[r1,#0]
        0x00000b52:    2145        E!      MOVS     r1,#0x45
        0x00000b54:    0609        ..      LSLS     r1,r1,#24
        0x00000b56:    4888        .H      LDR      r0,[pc,#544] ; [0xd78] = 0x20000048
        0x00000b58:    6800        .h      LDR      r0,[r0,#0]
        0x00000b5a:    f7fffb63    ..c.    BL       __aeabi_fdiv ; 0x224
        0x00000b5e:    4986        .I      LDR      r1,[pc,#536] ; [0xd78] = 0x20000048
        0x00000b60:    6008        .`      STR      r0,[r1,#0]
        0x00000b62:    4a87        .J      LDR      r2,[pc,#540] ; [0xd80] = 0x2000001a
        0x00000b64:    2100        .!      MOVS     r1,#0
        0x00000b66:    5e51        Q^      LDRSH    r1,[r2,r1]
        0x00000b68:    4a82        .J      LDR      r2,[pc,#520] ; [0xd74] = 0x20000030
        0x00000b6a:    6812        .h      LDR      r2,[r2,#0]
        0x00000b6c:    4351        QC      MULS     r1,r2,r1
        0x00000b6e:    4608        .F      MOV      r0,r1
        0x00000b70:    f7fffd28    ..(.    BL       __aeabi_i2f ; 0x5c4
        0x00000b74:    4983        .I      LDR      r1,[pc,#524] ; [0xd84] = 0x2000004c
        0x00000b76:    6008        .`      STR      r0,[r1,#0]
        0x00000b78:    2145        E!      MOVS     r1,#0x45
        0x00000b7a:    0609        ..      LSLS     r1,r1,#24
        0x00000b7c:    4881        .H      LDR      r0,[pc,#516] ; [0xd84] = 0x2000004c
        0x00000b7e:    6800        .h      LDR      r0,[r0,#0]
        0x00000b80:    f7fffb50    ..P.    BL       __aeabi_fdiv ; 0x224
        0x00000b84:    497f        .I      LDR      r1,[pc,#508] ; [0xd84] = 0x2000004c
        0x00000b86:    6008        .`      STR      r0,[r1,#0]
        0x00000b88:    4608        .F      MOV      r0,r1
        0x00000b8a:    6801        .h      LDR      r1,[r0,#0]
        0x00000b8c:    487a        zH      LDR      r0,[pc,#488] ; [0xd78] = 0x20000048
        0x00000b8e:    6800        .h      LDR      r0,[r0,#0]
        0x00000b90:    f7fffab2    ....    BL       __aeabi_fadd ; 0xf8
        0x00000b94:    497c        |I      LDR      r1,[pc,#496] ; [0xd88] = 0x20000050
        0x00000b96:    6008        .`      STR      r0,[r1,#0]
        0x00000b98:    497c        |I      LDR      r1,[pc,#496] ; [0xd8c] = 0x20000018
        0x00000b9a:    2200        ."      MOVS     r2,#0
        0x00000b9c:    5e8a        .^      LDRSH    r2,[r1,r2]
        0x00000b9e:    0090        ..      LSLS     r0,r2,#2
        0x00000ba0:    f7fffd10    ....    BL       __aeabi_i2f ; 0x5c4
        0x00000ba4:    4607        .F      MOV      r7,r0
        0x00000ba6:    4878        xH      LDR      r0,[pc,#480] ; [0xd88] = 0x20000050
        0x00000ba8:    6801        .h      LDR      r1,[r0,#0]
        0x00000baa:    4638        8F      MOV      r0,r7
        0x00000bac:    f7fffaa4    ....    BL       __aeabi_fadd ; 0xf8
        0x00000bb0:    4606        .F      MOV      r6,r0
        0x00000bb2:    f7fffd27    ..'.    BL       __aeabi_f2iz ; 0x604
        0x00000bb6:    4976        vI      LDR      r1,[pc,#472] ; [0xd90] = 0x20000028
        0x00000bb8:    6008        .`      STR      r0,[r1,#0]
        0x00000bba:    4608        .F      MOV      r0,r1
        0x00000bbc:    6800        .h      LDR      r0,[r0,#0]
        0x00000bbe:    40a0        .@      LSLS     r0,r0,r4
        0x00000bc0:    1c80        ..      ADDS     r0,r0,#2
        0x00000bc2:    6008        .`      STR      r0,[r1,#0]
        0x00000bc4:    6808        .h      LDR      r0,[r1,#0]
        0x00000bc6:    17c1        ..      ASRS     r1,r0,#31
        0x00000bc8:    0f89        ..      LSRS     r1,r1,#30
        0x00000bca:    1809        ..      ADDS     r1,r1,r0
        0x00000bcc:    1089        ..      ASRS     r1,r1,#2
        0x00000bce:    4a70        pJ      LDR      r2,[pc,#448] ; [0xd90] = 0x20000028
        0x00000bd0:    6011        .`      STR      r1,[r2,#0]
        0x00000bd2:    4a70        pJ      LDR      r2,[pc,#448] ; [0xd94] = 0x2000001c
        0x00000bd4:    2100        .!      MOVS     r1,#0
        0x00000bd6:    5e51        Q^      LDRSH    r1,[r2,r1]
        0x00000bd8:    4a66        fJ      LDR      r2,[pc,#408] ; [0xd74] = 0x20000030
        0x00000bda:    6812        .h      LDR      r2,[r2,#0]
        0x00000bdc:    4351        QC      MULS     r1,r2,r1
        0x00000bde:    4608        .F      MOV      r0,r1
        0x00000be0:    f7fffcf0    ....    BL       __aeabi_i2f ; 0x5c4
        0x00000be4:    4964        dI      LDR      r1,[pc,#400] ; [0xd78] = 0x20000048
        0x00000be6:    6008        .`      STR      r0,[r1,#0]
        0x00000be8:    2123        #!      MOVS     r1,#0x23
        0x00000bea:    0649        I.      LSLS     r1,r1,#25
        0x00000bec:    4862        bH      LDR      r0,[pc,#392] ; [0xd78] = 0x20000048
        0x00000bee:    6800        .h      LDR      r0,[r0,#0]
        0x00000bf0:    f7fffb18    ....    BL       __aeabi_fdiv ; 0x224
        0x00000bf4:    4960        `I      LDR      r1,[pc,#384] ; [0xd78] = 0x20000048
        0x00000bf6:    6008        .`      STR      r0,[r1,#0]
        0x00000bf8:    495e        ^I      LDR      r1,[pc,#376] ; [0xd74] = 0x20000030
        0x00000bfa:    6809        .h      LDR      r1,[r1,#0]
        0x00000bfc:    4349        IC      MULS     r1,r1,r1
        0x00000bfe:    4608        .F      MOV      r0,r1
        0x00000c00:    f7fffce0    ....    BL       __aeabi_i2f ; 0x5c4
        0x00000c04:    495f        _I      LDR      r1,[pc,#380] ; [0xd84] = 0x2000004c
        0x00000c06:    6008        .`      STR      r0,[r1,#0]
        0x00000c08:    218b        .!      MOVS     r1,#0x8b
        0x00000c0a:    05c9        ..      LSLS     r1,r1,#23
        0x00000c0c:    485d        ]H      LDR      r0,[pc,#372] ; [0xd84] = 0x2000004c
        0x00000c0e:    6800        .h      LDR      r0,[r0,#0]
        0x00000c10:    f7fffb08    ....    BL       __aeabi_fdiv ; 0x224
        0x00000c14:    495b        [I      LDR      r1,[pc,#364] ; [0xd84] = 0x2000004c
        0x00000c16:    6008        .`      STR      r0,[r1,#0]
        0x00000c18:    495f        _I      LDR      r1,[pc,#380] ; [0xd98] = 0x20000024
        0x00000c1a:    2000        .       MOVS     r0,#0
        0x00000c1c:    5e08        .^      LDRSH    r0,[r1,r0]
        0x00000c1e:    f7fffcd1    ....    BL       __aeabi_i2f ; 0x5c4
        0x00000c22:    4606        .F      MOV      r6,r0
        0x00000c24:    4857        WH      LDR      r0,[pc,#348] ; [0xd84] = 0x2000004c
        0x00000c26:    6801        .h      LDR      r1,[r0,#0]
        0x00000c28:    4630        0F      MOV      r0,r6
        0x00000c2a:    f7fffabe    ....    BL       __aeabi_fmul ; 0x1aa
        0x00000c2e:    4955        UI      LDR      r1,[pc,#340] ; [0xd84] = 0x2000004c
        0x00000c30:    6008        .`      STR      r0,[r1,#0]
        0x00000c32:    218f        .!      MOVS     r1,#0x8f
        0x00000c34:    05c9        ..      LSLS     r1,r1,#23
        0x00000c36:    4853        SH      LDR      r0,[pc,#332] ; [0xd84] = 0x2000004c
        0x00000c38:    6800        .h      LDR      r0,[r0,#0]
        0x00000c3a:    f7fffaf3    ....    BL       __aeabi_fdiv ; 0x224
        0x00000c3e:    4951        QI      LDR      r1,[pc,#324] ; [0xd84] = 0x2000004c
        0x00000c40:    6008        .`      STR      r0,[r1,#0]
        0x00000c42:    4608        .F      MOV      r0,r1
        0x00000c44:    6801        .h      LDR      r1,[r0,#0]
        0x00000c46:    484c        LH      LDR      r0,[pc,#304] ; [0xd78] = 0x20000048
        0x00000c48:    6800        .h      LDR      r0,[r0,#0]
        0x00000c4a:    f7fffa55    ..U.    BL       __aeabi_fadd ; 0xf8
        0x00000c4e:    4606        .F      MOV      r6,r0
        0x00000c50:    2101        .!      MOVS     r1,#1
        0x00000c52:    0789        ..      LSLS     r1,r1,#30
        0x00000c54:    f7fffa50    ..P.    BL       __aeabi_fadd ; 0xf8
        0x00000c58:    494b        KI      LDR      r1,[pc,#300] ; [0xd88] = 0x20000050
        0x00000c5a:    6008        .`      STR      r0,[r1,#0]
        0x00000c5c:    2181        .!      MOVS     r1,#0x81
        0x00000c5e:    05c9        ..      LSLS     r1,r1,#23
        0x00000c60:    4849        IH      LDR      r0,[pc,#292] ; [0xd88] = 0x20000050
        0x00000c62:    6800        .h      LDR      r0,[r0,#0]
        0x00000c64:    f7fffade    ....    BL       __aeabi_fdiv ; 0x224
        0x00000c68:    4947        GI      LDR      r1,[pc,#284] ; [0xd88] = 0x20000050
        0x00000c6a:    6008        .`      STR      r0,[r1,#0]
        0x00000c6c:    2147        G!      MOVS     r1,#0x47
        0x00000c6e:    0609        ..      LSLS     r1,r1,#24
        0x00000c70:    4845        EH      LDR      r0,[pc,#276] ; [0xd88] = 0x20000050
        0x00000c72:    6800        .h      LDR      r0,[r0,#0]
        0x00000c74:    f7fffa40    ..@.    BL       __aeabi_fadd ; 0xf8
        0x00000c78:    4606        .F      MOV      r6,r0
        0x00000c7a:    f7fffcdc    ....    BL       __aeabi_f2uiz ; 0x636
        0x00000c7e:    4947        GI      LDR      r1,[pc,#284] ; [0xd9c] = 0x2000002c
        0x00000c80:    6008        .`      STR      r0,[r1,#0]
        0x00000c82:    4608        .F      MOV      r0,r1
        0x00000c84:    6800        .h      LDR      r0,[r0,#0]
        0x00000c86:    4946        FI      LDR      r1,[pc,#280] ; [0xda0] = 0x2000001e
        0x00000c88:    8809        ..      LDRH     r1,[r1,#0]
        0x00000c8a:    4348        HC      MULS     r0,r1,r0
        0x00000c8c:    4943        CI      LDR      r1,[pc,#268] ; [0xd9c] = 0x2000002c
        0x00000c8e:    6008        .`      STR      r0,[r1,#0]
        0x00000c90:    4608        .F      MOV      r0,r1
        0x00000c92:    6800        .h      LDR      r0,[r0,#0]
        0x00000c94:    0bc0        ..      LSRS     r0,r0,#15
        0x00000c96:    6008        .`      STR      r0,[r1,#0]
        0x00000c98:    4842        BH      LDR      r0,[pc,#264] ; [0xda4] = 0x20000044
        0x00000c9a:    6800        .h      LDR      r0,[r0,#0]
        0x00000c9c:    493c        <I      LDR      r1,[pc,#240] ; [0xd90] = 0x20000028
        0x00000c9e:    6809        .h      LDR      r1,[r1,#0]
        0x00000ca0:    1a40        @.      SUBS     r0,r0,r1
        0x00000ca2:    4941        AI      LDR      r1,[pc,#260] ; [0xda8] = 0x20000034
        0x00000ca4:    6008        .`      STR      r0,[r1,#0]
        0x00000ca6:    4841        AH      LDR      r0,[pc,#260] ; [0xdac] = 0xc350
        0x00000ca8:    4120         A      ASRS     r0,r0,r4
        0x00000caa:    6809        .h      LDR      r1,[r1,#0]
        0x00000cac:    4348        HC      MULS     r0,r1,r0
        0x00000cae:    493e        >I      LDR      r1,[pc,#248] ; [0xda8] = 0x20000034
        0x00000cb0:    6008        .`      STR      r0,[r1,#0]
        0x00000cb2:    4608        .F      MOV      r0,r1
        0x00000cb4:    6800        .h      LDR      r0,[r0,#0]
        0x00000cb6:    2101        .!      MOVS     r1,#1
        0x00000cb8:    07c9        ..      LSLS     r1,r1,#31
        0x00000cba:    4288        .B      CMP      r0,r1
        0x00000cbc:    d20b        ..      BCS      0xcd6 ; BMP180_calpressure + 474
        0x00000cbe:    493a        :I      LDR      r1,[pc,#232] ; [0xda8] = 0x20000034
        0x00000cc0:    6809        .h      LDR      r1,[r1,#0]
        0x00000cc2:    0048        H.      LSLS     r0,r1,#1
        0x00000cc4:    4935        5I      LDR      r1,[pc,#212] ; [0xd9c] = 0x2000002c
        0x00000cc6:    6809        .h      LDR      r1,[r1,#0]
        0x00000cc8:    f7fffa00    ....    BL       __aeabi_uidiv ; 0xcc
        0x00000ccc:    4606        .F      MOV      r6,r0
        0x00000cce:    f7fffc84    ....    BL       __aeabi_ui2f ; 0x5da
        0x00000cd2:    4605        .F      MOV      r5,r0
        0x00000cd4:    e00f        ..      B        0xcf6 ; BMP180_calpressure + 506
        0x00000cd6:    4831        1H      LDR      r0,[pc,#196] ; [0xd9c] = 0x2000002c
        0x00000cd8:    6801        .h      LDR      r1,[r0,#0]
        0x00000cda:    4833        3H      LDR      r0,[pc,#204] ; [0xda8] = 0x20000034
        0x00000cdc:    6800        .h      LDR      r0,[r0,#0]
        0x00000cde:    f7fff9f5    ....    BL       __aeabi_uidiv ; 0xcc
        0x00000ce2:    4606        .F      MOV      r6,r0
        0x00000ce4:    f7fffc79    ..y.    BL       __aeabi_ui2f ; 0x5da
        0x00000ce8:    4605        .F      MOV      r5,r0
        0x00000cea:    2101        .!      MOVS     r1,#1
        0x00000cec:    0789        ..      LSLS     r1,r1,#30
        0x00000cee:    4628        (F      MOV      r0,r5
        0x00000cf0:    f7fffa5b    ..[.    BL       __aeabi_fmul ; 0x1aa
        0x00000cf4:    4605        .F      MOV      r5,r0
        0x00000cf6:    2187        .!      MOVS     r1,#0x87
        0x00000cf8:    05c9        ..      LSLS     r1,r1,#23
        0x00000cfa:    4628        (F      MOV      r0,r5
        0x00000cfc:    f7fffa92    ....    BL       __aeabi_fdiv ; 0x224
        0x00000d00:    491d        .I      LDR      r1,[pc,#116] ; [0xd78] = 0x20000048
        0x00000d02:    6008        .`      STR      r0,[r1,#0]
        0x00000d04:    4608        .F      MOV      r0,r1
        0x00000d06:    6801        .h      LDR      r1,[r0,#0]
        0x00000d08:    6800        .h      LDR      r0,[r0,#0]
        0x00000d0a:    f7fffa4e    ..N.    BL       __aeabi_fmul ; 0x1aa
        0x00000d0e:    491a        .I      LDR      r1,[pc,#104] ; [0xd78] = 0x20000048
        0x00000d10:    6008        .`      STR      r0,[r1,#0]
        0x00000d12:    4927        'I      LDR      r1,[pc,#156] ; [0xdb0] = 0x453de000
        0x00000d14:    4818        .H      LDR      r0,[pc,#96] ; [0xd78] = 0x20000048
        0x00000d16:    6800        .h      LDR      r0,[r0,#0]
        0x00000d18:    f7fffa47    ..G.    BL       __aeabi_fmul ; 0x1aa
        0x00000d1c:    4606        .F      MOV      r6,r0
        0x00000d1e:    218f        .!      MOVS     r1,#0x8f
        0x00000d20:    05c9        ..      LSLS     r1,r1,#23
        0x00000d22:    f7fffa7f    ....    BL       __aeabi_fdiv ; 0x224
        0x00000d26:    4914        .I      LDR      r1,[pc,#80] ; [0xd78] = 0x20000048
        0x00000d28:    6008        .`      STR      r0,[r1,#0]
        0x00000d2a:    4629        )F      MOV      r1,r5
        0x00000d2c:    4821        !H      LDR      r0,[pc,#132] ; [0xdb4] = 0xc5e5e800
        0x00000d2e:    f7fffa3c    ..<.    BL       __aeabi_fmul ; 0x1aa
        0x00000d32:    4606        .F      MOV      r6,r0
        0x00000d34:    218f        .!      MOVS     r1,#0x8f
        0x00000d36:    05c9        ..      LSLS     r1,r1,#23
        0x00000d38:    f7fffa74    ..t.    BL       __aeabi_fdiv ; 0x224
        0x00000d3c:    4911        .I      LDR      r1,[pc,#68] ; [0xd84] = 0x2000004c
        0x00000d3e:    6008        .`      STR      r0,[r1,#0]
        0x00000d40:    4608        .F      MOV      r0,r1
        0x00000d42:    6801        .h      LDR      r1,[r0,#0]
        0x00000d44:    480c        .H      LDR      r0,[pc,#48] ; [0xd78] = 0x20000048
        0x00000d46:    6800        .h      LDR      r0,[r0,#0]
        0x00000d48:    f7fff9d6    ....    BL       __aeabi_fadd ; 0xf8
        0x00000d4c:    491a        .I      LDR      r1,[pc,#104] ; [0xdb8] = 0x456cf000
        0x00000d4e:    9000        ..      STR      r0,[sp,#0]
        0x00000d50:    f7fff9d2    ....    BL       __aeabi_fadd ; 0xf8
        0x00000d54:    4607        .F      MOV      r7,r0
        0x00000d56:    2183        .!      MOVS     r1,#0x83
        0x00000d58:    05c9        ..      LSLS     r1,r1,#23
        0x00000d5a:    f7fffa63    ..c.    BL       __aeabi_fdiv ; 0x224
        0x00000d5e:    4606        .F      MOV      r6,r0
        0x00000d60:    4629        )F      MOV      r1,r5
        0x00000d62:    f7fff9c9    ....    BL       __aeabi_fadd ; 0xf8
        0x00000d66:    4605        .F      MOV      r5,r0
        0x00000d68:    4628        (F      MOV      r0,r5
        0x00000d6a:    bdf8        ..      POP      {r3-r7,pc}
    $d
        0x00000d6c:    457a0000    ..zE    DCD    1165623296
        0x00000d70:    20000054    T..     DCD    536870996
        0x00000d74:    20000030    0..     DCD    536870960
        0x00000d78:    20000048    H..     DCD    536870984
        0x00000d7c:    20000026    &..     DCD    536870950
        0x00000d80:    2000001a    ...     DCD    536870938
        0x00000d84:    2000004c    L..     DCD    536870988
        0x00000d88:    20000050    P..     DCD    536870992
        0x00000d8c:    20000018    ...     DCD    536870936
        0x00000d90:    20000028    (..     DCD    536870952
        0x00000d94:    2000001c    ...     DCD    536870940
        0x00000d98:    20000024    $..     DCD    536870948
        0x00000d9c:    2000002c    ,..     DCD    536870956
        0x00000da0:    2000001e    ...     DCD    536870942
        0x00000da4:    20000044    D..     DCD    536870980
        0x00000da8:    20000034    4..     DCD    536870964
        0x00000dac:    0000c350    P...    DCD    50000
        0x00000db0:    453de000    ..=E    DCD    1161682944
        0x00000db4:    c5e5e800    ....    DCD    3320178688
        0x00000db8:    456cf000    ..lE    DCD    1164767232
    $t
    i.BMP180_getTemperature
    BMP180_getTemperature
        0x00000dbc:    b5f8        ..      PUSH     {r3-r7,lr}
        0x00000dbe:    f000f8cd    ....    BL       BMP180_getUT ; 0xf5c
        0x00000dc2:    4835        5H      LDR      r0,[pc,#212] ; [0xe98] = 0x20000040
        0x00000dc4:    6800        .h      LDR      r0,[r0,#0]
        0x00000dc6:    f7fffbfd    ....    BL       __aeabi_i2f ; 0x5c4
        0x00000dca:    4934        4I      LDR      r1,[pc,#208] ; [0xe9c] = 0x20000048
        0x00000dcc:    6008        .`      STR      r0,[r1,#0]
        0x00000dce:    4834        4H      LDR      r0,[pc,#208] ; [0xea0] = 0x20000022
        0x00000dd0:    8800        ..      LDRH     r0,[r0,#0]
        0x00000dd2:    f7fffc02    ....    BL       __aeabi_ui2f ; 0x5da
        0x00000dd6:    4604        .F      MOV      r4,r0
        0x00000dd8:    4830        0H      LDR      r0,[pc,#192] ; [0xe9c] = 0x20000048
        0x00000dda:    6801        .h      LDR      r1,[r0,#0]
        0x00000ddc:    4620         F      MOV      r0,r4
        0x00000dde:    f7fff9e0    ....    BL       __aeabi_frsub ; 0x1a2
        0x00000de2:    492e        .I      LDR      r1,[pc,#184] ; [0xe9c] = 0x20000048
        0x00000de4:    6008        .`      STR      r0,[r1,#0]
        0x00000de6:    482f        /H      LDR      r0,[pc,#188] ; [0xea4] = 0x20000020
        0x00000de8:    8800        ..      LDRH     r0,[r0,#0]
        0x00000dea:    f7fffbf6    ....    BL       __aeabi_ui2f ; 0x5da
        0x00000dee:    4604        .F      MOV      r4,r0
        0x00000df0:    482a        *H      LDR      r0,[pc,#168] ; [0xe9c] = 0x20000048
        0x00000df2:    6801        .h      LDR      r1,[r0,#0]
        0x00000df4:    4620         F      MOV      r0,r4
        0x00000df6:    f7fff9d8    ....    BL       __aeabi_fmul ; 0x1aa
        0x00000dfa:    4928        (I      LDR      r1,[pc,#160] ; [0xe9c] = 0x20000048
        0x00000dfc:    6008        .`      STR      r0,[r1,#0]
        0x00000dfe:    2147        G!      MOVS     r1,#0x47
        0x00000e00:    0609        ..      LSLS     r1,r1,#24
        0x00000e02:    4826        &H      LDR      r0,[pc,#152] ; [0xe9c] = 0x20000048
        0x00000e04:    6800        .h      LDR      r0,[r0,#0]
        0x00000e06:    f7fffa0d    ....    BL       __aeabi_fdiv ; 0x224
        0x00000e0a:    4924        $I      LDR      r1,[pc,#144] ; [0xe9c] = 0x20000048
        0x00000e0c:    6008        .`      STR      r0,[r1,#0]
        0x00000e0e:    4926        &I      LDR      r1,[pc,#152] ; [0xea8] = 0x2000003a
        0x00000e10:    2000        .       MOVS     r0,#0
        0x00000e12:    5e08        .^      LDRSH    r0,[r1,r0]
        0x00000e14:    f7fffbd6    ....    BL       __aeabi_i2f ; 0x5c4
        0x00000e18:    4924        $I      LDR      r1,[pc,#144] ; [0xeac] = 0x2000004c
        0x00000e1a:    6008        .`      STR      r0,[r1,#0]
        0x00000e1c:    2145        E!      MOVS     r1,#0x45
        0x00000e1e:    0609        ..      LSLS     r1,r1,#24
        0x00000e20:    4822        "H      LDR      r0,[pc,#136] ; [0xeac] = 0x2000004c
        0x00000e22:    6800        .h      LDR      r0,[r0,#0]
        0x00000e24:    f7fff9c1    ....    BL       __aeabi_fmul ; 0x1aa
        0x00000e28:    4920         I      LDR      r1,[pc,#128] ; [0xeac] = 0x2000004c
        0x00000e2a:    6008        .`      STR      r0,[r1,#0]
        0x00000e2c:    4920         I      LDR      r1,[pc,#128] ; [0xeb0] = 0x2000003c
        0x00000e2e:    2000        .       MOVS     r0,#0
        0x00000e30:    5e08        .^      LDRSH    r0,[r1,r0]
        0x00000e32:    f7fffbc7    ....    BL       __aeabi_i2f ; 0x5c4
        0x00000e36:    4605        .F      MOV      r5,r0
        0x00000e38:    4818        .H      LDR      r0,[pc,#96] ; [0xe9c] = 0x20000048
        0x00000e3a:    6801        .h      LDR      r1,[r0,#0]
        0x00000e3c:    4628        (F      MOV      r0,r5
        0x00000e3e:    f7fff95b    ..[.    BL       __aeabi_fadd ; 0xf8
        0x00000e42:    4604        .F      MOV      r4,r0
        0x00000e44:    4621        !F      MOV      r1,r4
        0x00000e46:    4819        .H      LDR      r0,[pc,#100] ; [0xeac] = 0x2000004c
        0x00000e48:    6800        .h      LDR      r0,[r0,#0]
        0x00000e4a:    f7fff9eb    ....    BL       __aeabi_fdiv ; 0x224
        0x00000e4e:    4917        .I      LDR      r1,[pc,#92] ; [0xeac] = 0x2000004c
        0x00000e50:    6008        .`      STR      r0,[r1,#0]
        0x00000e52:    4608        .F      MOV      r0,r1
        0x00000e54:    6801        .h      LDR      r1,[r0,#0]
        0x00000e56:    4811        .H      LDR      r0,[pc,#68] ; [0xe9c] = 0x20000048
        0x00000e58:    6800        .h      LDR      r0,[r0,#0]
        0x00000e5a:    f7fff94d    ..M.    BL       __aeabi_fadd ; 0xf8
        0x00000e5e:    4915        .I      LDR      r1,[pc,#84] ; [0xeb4] = 0x20000054
        0x00000e60:    6008        .`      STR      r0,[r1,#0]
        0x00000e62:    2141        A!      MOVS     r1,#0x41
        0x00000e64:    0609        ..      LSLS     r1,r1,#24
        0x00000e66:    4813        .H      LDR      r0,[pc,#76] ; [0xeb4] = 0x20000054
        0x00000e68:    6800        .h      LDR      r0,[r0,#0]
        0x00000e6a:    f7fff945    ..E.    BL       __aeabi_fadd ; 0xf8
        0x00000e6e:    4604        .F      MOV      r4,r0
        0x00000e70:    2183        .!      MOVS     r1,#0x83
        0x00000e72:    05c9        ..      LSLS     r1,r1,#23
        0x00000e74:    f7fff9d6    ....    BL       __aeabi_fdiv ; 0x224
        0x00000e78:    9000        ..      STR      r0,[sp,#0]
        0x00000e7a:    9800        ..      LDR      r0,[sp,#0]
        0x00000e7c:    f7fffbef    ....    BL       __aeabi_f2d ; 0x65e
        0x00000e80:    4604        .F      MOV      r4,r0
        0x00000e82:    4a0d        .J      LDR      r2,[pc,#52] ; [0xeb8] = 0x9999999a
        0x00000e84:    4b0d        .K      LDR      r3,[pc,#52] ; [0xebc] = 0x3fb99999
        0x00000e86:    f7fffabd    ....    BL       __aeabi_dmul ; 0x404
        0x00000e8a:    4606        .F      MOV      r6,r0
        0x00000e8c:    f7fffbfb    ....    BL       __aeabi_d2f ; 0x686
        0x00000e90:    9000        ..      STR      r0,[sp,#0]
        0x00000e92:    9800        ..      LDR      r0,[sp,#0]
        0x00000e94:    bdf8        ..      POP      {r3-r7,pc}
    $d
        0x00000e96:    0000        ..      DCW    0
        0x00000e98:    20000040    @..     DCD    536870976
        0x00000e9c:    20000048    H..     DCD    536870984
        0x00000ea0:    20000022    "..     DCD    536870946
        0x00000ea4:    20000020     ..     DCD    536870944
        0x00000ea8:    2000003a    :..     DCD    536870970
        0x00000eac:    2000004c    L..     DCD    536870988
        0x00000eb0:    2000003c    <..     DCD    536870972
        0x00000eb4:    20000054    T..     DCD    536870996
        0x00000eb8:    9999999a    ....    DCD    2576980378
        0x00000ebc:    3fb99999    ...?    DCD    1069128089
    $t
    i.BMP180_getUP
    BMP180_getUP
        0x00000ec0:    b538        8.      PUSH     {r3-r5,lr}
        0x00000ec2:    4604        .F      MOV      r4,r0
        0x00000ec4:    07a4        ..      LSLS     r4,r4,#30
        0x00000ec6:    0fa4        ..      LSRS     r4,r4,#30
        0x00000ec8:    20f4        .       MOVS     r0,#0xf4
        0x00000eca:    4669        iF      MOV      r1,sp
        0x00000ecc:    7008        .p      STRB     r0,[r1,#0]
        0x00000ece:    2c00        .,      CMP      r4,#0
        0x00000ed0:    d006        ..      BEQ      0xee0 ; BMP180_getUP + 32
        0x00000ed2:    2c01        .,      CMP      r4,#1
        0x00000ed4:    d008        ..      BEQ      0xee8 ; BMP180_getUP + 40
        0x00000ed6:    2c02        .,      CMP      r4,#2
        0x00000ed8:    d00a        ..      BEQ      0xef0 ; BMP180_getUP + 48
        0x00000eda:    2c03        .,      CMP      r4,#3
        0x00000edc:    d110        ..      BNE      0xf00 ; BMP180_getUP + 64
        0x00000ede:    e00b        ..      B        0xef8 ; BMP180_getUP + 56
        0x00000ee0:    2034        4       MOVS     r0,#0x34
        0x00000ee2:    4669        iF      MOV      r1,sp
        0x00000ee4:    7048        Hp      STRB     r0,[r1,#1]
        0x00000ee6:    e00f        ..      B        0xf08 ; BMP180_getUP + 72
        0x00000ee8:    2074        t       MOVS     r0,#0x74
        0x00000eea:    4669        iF      MOV      r1,sp
        0x00000eec:    7048        Hp      STRB     r0,[r1,#1]
        0x00000eee:    e00b        ..      B        0xf08 ; BMP180_getUP + 72
        0x00000ef0:    20b4        .       MOVS     r0,#0xb4
        0x00000ef2:    4669        iF      MOV      r1,sp
        0x00000ef4:    7048        Hp      STRB     r0,[r1,#1]
        0x00000ef6:    e007        ..      B        0xf08 ; BMP180_getUP + 72
        0x00000ef8:    20f4        .       MOVS     r0,#0xf4
        0x00000efa:    4669        iF      MOV      r1,sp
        0x00000efc:    7048        Hp      STRB     r0,[r1,#1]
        0x00000efe:    e003        ..      B        0xf08 ; BMP180_getUP + 72
        0x00000f00:    2034        4       MOVS     r0,#0x34
        0x00000f02:    4669        iF      MOV      r1,sp
        0x00000f04:    7048        Hp      STRB     r0,[r1,#1]
        0x00000f06:    bf00        ..      NOP      
        0x00000f08:    bf00        ..      NOP      
        0x00000f0a:    2202        ."      MOVS     r2,#2
        0x00000f0c:    4669        iF      MOV      r1,sp
        0x00000f0e:    4810        .H      LDR      r0,[pc,#64] ; [0xf50] = 0x40020000
        0x00000f10:    f000f95e    ..^.    BL       I2CWirteBytes ; 0x11d0
        0x00000f14:    480f        .H      LDR      r0,[pc,#60] ; [0xf54] = 0x7a120
        0x00000f16:    f001fa61    ..a.    BL       delay ; 0x23dc
        0x00000f1a:    2303        .#      MOVS     r3,#3
        0x00000f1c:    466a        jF      MOV      r2,sp
        0x00000f1e:    21f6        .!      MOVS     r1,#0xf6
        0x00000f20:    480b        .H      LDR      r0,[pc,#44] ; [0xf50] = 0x40020000
        0x00000f22:    f000f933    ..3.    BL       I2CReadBytes ; 0x118c
        0x00000f26:    4668        hF      MOV      r0,sp
        0x00000f28:    7800        .x      LDRB     r0,[r0,#0]
        0x00000f2a:    0401        ..      LSLS     r1,r0,#16
        0x00000f2c:    4668        hF      MOV      r0,sp
        0x00000f2e:    7840        @x      LDRB     r0,[r0,#1]
        0x00000f30:    0200        ..      LSLS     r0,r0,#8
        0x00000f32:    4308        .C      ORRS     r0,r0,r1
        0x00000f34:    4669        iF      MOV      r1,sp
        0x00000f36:    7889        .x      LDRB     r1,[r1,#2]
        0x00000f38:    4308        .C      ORRS     r0,r0,r1
        0x00000f3a:    4907        .I      LDR      r1,[pc,#28] ; [0xf58] = 0x20000044
        0x00000f3c:    6008        .`      STR      r0,[r1,#0]
        0x00000f3e:    2008        .       MOVS     r0,#8
        0x00000f40:    1b01        ..      SUBS     r1,r0,r4
        0x00000f42:    4805        .H      LDR      r0,[pc,#20] ; [0xf58] = 0x20000044
        0x00000f44:    6800        .h      LDR      r0,[r0,#0]
        0x00000f46:    4108        .A      ASRS     r0,r0,r1
        0x00000f48:    4903        .I      LDR      r1,[pc,#12] ; [0xf58] = 0x20000044
        0x00000f4a:    6008        .`      STR      r0,[r1,#0]
        0x00000f4c:    bd38        8.      POP      {r3-r5,pc}
    $d
        0x00000f4e:    0000        ..      DCW    0
        0x00000f50:    40020000    ...@    DCD    1073872896
        0x00000f54:    0007a120     ...    DCD    500000
        0x00000f58:    20000044    D..     DCD    536870980
    $t
    i.BMP180_getUT
    BMP180_getUT
        0x00000f5c:    b508        ..      PUSH     {r3,lr}
        0x00000f5e:    21f4        .!      MOVS     r1,#0xf4
        0x00000f60:    4668        hF      MOV      r0,sp
        0x00000f62:    7001        .p      STRB     r1,[r0,#0]
        0x00000f64:    212e        .!      MOVS     r1,#0x2e
        0x00000f66:    7041        Ap      STRB     r1,[r0,#1]
        0x00000f68:    2202        ."      MOVS     r2,#2
        0x00000f6a:    4669        iF      MOV      r1,sp
        0x00000f6c:    4805        .H      LDR      r0,[pc,#20] ; [0xf84] = 0x40020000
        0x00000f6e:    f000f92f    ../.    BL       I2CWirteBytes ; 0x11d0
        0x00000f72:    4805        .H      LDR      r0,[pc,#20] ; [0xf88] = 0x7a120
        0x00000f74:    f001fa32    ..2.    BL       delay ; 0x23dc
        0x00000f78:    20f6        .       MOVS     r0,#0xf6
        0x00000f7a:    f000f87d    ..}.    BL       BMP180_readsigned16_bit ; 0x1078
        0x00000f7e:    4903        .I      LDR      r1,[pc,#12] ; [0xf8c] = 0x20000040
        0x00000f80:    6008        .`      STR      r0,[r1,#0]
        0x00000f82:    bd08        ..      POP      {r3,pc}
    $d
        0x00000f84:    40020000    ...@    DCD    1073872896
        0x00000f88:    0007a120     ...    DCD    500000
        0x00000f8c:    20000040    @..     DCD    536870976
    $t
    i.BMP180_read16_bit
    BMP180_read16_bit
        0x00000f90:    4601        .F      MOV      r1,r0
        0x00000f92:    bf00        ..      NOP      
        0x00000f94:    4a0f        .J      LDR      r2,[pc,#60] ; [0xfd4] = 0x40020040
        0x00000f96:    6b12        .k      LDR      r2,[r2,#0x30]
        0x00000f98:    07d2        ..      LSLS     r2,r2,#31
        0x00000f9a:    0fd2        ..      LSRS     r2,r2,#31
        0x00000f9c:    2a00        .*      CMP      r2,#0
        0x00000f9e:    d1f9        ..      BNE      0xf94 ; BMP180_read16_bit + 4
        0x00000fa0:    4a0c        .J      LDR      r2,[pc,#48] ; [0xfd4] = 0x40020040
        0x00000fa2:    3a40        @:      SUBS     r2,r2,#0x40
        0x00000fa4:    6111        .a      STR      r1,[r2,#0x10]
        0x00000fa6:    1592        ..      ASRS     r2,r2,#22
        0x00000fa8:    4b0a        .K      LDR      r3,[pc,#40] ; [0xfd4] = 0x40020040
        0x00000faa:    3b40        @;      SUBS     r3,r3,#0x40
        0x00000fac:    611a        .a      STR      r2,[r3,#0x10]
        0x00000fae:    611a        .a      STR      r2,[r3,#0x10]
        0x00000fb0:    bf00        ..      NOP      
        0x00000fb2:    4a08        .J      LDR      r2,[pc,#32] ; [0xfd4] = 0x40020040
        0x00000fb4:    6b12        .k      LDR      r2,[r2,#0x30]
        0x00000fb6:    07d2        ..      LSLS     r2,r2,#31
        0x00000fb8:    0fd2        ..      LSRS     r2,r2,#31
        0x00000fba:    2a00        .*      CMP      r2,#0
        0x00000fbc:    d1f9        ..      BNE      0xfb2 ; BMP180_read16_bit + 34
        0x00000fbe:    4a05        .J      LDR      r2,[pc,#20] ; [0xfd4] = 0x40020040
        0x00000fc0:    3a40        @:      SUBS     r2,r2,#0x40
        0x00000fc2:    6912        .i      LDR      r2,[r2,#0x10]
        0x00000fc4:    0612        ..      LSLS     r2,r2,#24
        0x00000fc6:    0c10        ..      LSRS     r0,r2,#16
        0x00000fc8:    4a02        .J      LDR      r2,[pc,#8] ; [0xfd4] = 0x40020040
        0x00000fca:    3a40        @:      SUBS     r2,r2,#0x40
        0x00000fcc:    6912        .i      LDR      r2,[r2,#0x10]
        0x00000fce:    4302        .C      ORRS     r2,r2,r0
        0x00000fd0:    b290        ..      UXTH     r0,r2
        0x00000fd2:    4770        pG      BX       lr
    $d
        0x00000fd4:    40020040    @..@    DCD    1073872960
    $t
    i.BMP180_read_calibration
    BMP180_read_calibration
        0x00000fd8:    b500        ..      PUSH     {lr}
        0x00000fda:    20aa        .       MOVS     r0,#0xaa
        0x00000fdc:    f000f84c    ..L.    BL       BMP180_readsigned16_bit ; 0x1078
        0x00000fe0:    491a        .I      LDR      r1,[pc,#104] ; [0x104c] = 0x20000018
        0x00000fe2:    8008        ..      STRH     r0,[r1,#0]
        0x00000fe4:    20ac        .       MOVS     r0,#0xac
        0x00000fe6:    f000f847    ..G.    BL       BMP180_readsigned16_bit ; 0x1078
        0x00000fea:    4919        .I      LDR      r1,[pc,#100] ; [0x1050] = 0x2000001a
        0x00000fec:    8008        ..      STRH     r0,[r1,#0]
        0x00000fee:    20ae        .       MOVS     r0,#0xae
        0x00000ff0:    f000f842    ..B.    BL       BMP180_readsigned16_bit ; 0x1078
        0x00000ff4:    4917        .I      LDR      r1,[pc,#92] ; [0x1054] = 0x2000001c
        0x00000ff6:    8008        ..      STRH     r0,[r1,#0]
        0x00000ff8:    20b0        .       MOVS     r0,#0xb0
        0x00000ffa:    f7ffffc9    ....    BL       BMP180_read16_bit ; 0xf90
        0x00000ffe:    4916        .I      LDR      r1,[pc,#88] ; [0x1058] = 0x2000001e
        0x00001000:    8008        ..      STRH     r0,[r1,#0]
        0x00001002:    20b2        .       MOVS     r0,#0xb2
        0x00001004:    f7ffffc4    ....    BL       BMP180_read16_bit ; 0xf90
        0x00001008:    4914        .I      LDR      r1,[pc,#80] ; [0x105c] = 0x20000020
        0x0000100a:    8008        ..      STRH     r0,[r1,#0]
        0x0000100c:    20b4        .       MOVS     r0,#0xb4
        0x0000100e:    f7ffffbf    ....    BL       BMP180_read16_bit ; 0xf90
        0x00001012:    4913        .I      LDR      r1,[pc,#76] ; [0x1060] = 0x20000022
        0x00001014:    8008        ..      STRH     r0,[r1,#0]
        0x00001016:    20b6        .       MOVS     r0,#0xb6
        0x00001018:    f000f82e    ....    BL       BMP180_readsigned16_bit ; 0x1078
        0x0000101c:    4911        .I      LDR      r1,[pc,#68] ; [0x1064] = 0x20000024
        0x0000101e:    8008        ..      STRH     r0,[r1,#0]
        0x00001020:    20b8        .       MOVS     r0,#0xb8
        0x00001022:    f000f829    ..).    BL       BMP180_readsigned16_bit ; 0x1078
        0x00001026:    4910        .I      LDR      r1,[pc,#64] ; [0x1068] = 0x20000026
        0x00001028:    8008        ..      STRH     r0,[r1,#0]
        0x0000102a:    20ba        .       MOVS     r0,#0xba
        0x0000102c:    f000f824    ..$.    BL       BMP180_readsigned16_bit ; 0x1078
        0x00001030:    490e        .I      LDR      r1,[pc,#56] ; [0x106c] = 0x20000038
        0x00001032:    8008        ..      STRH     r0,[r1,#0]
        0x00001034:    20bc        .       MOVS     r0,#0xbc
        0x00001036:    f000f81f    ....    BL       BMP180_readsigned16_bit ; 0x1078
        0x0000103a:    490d        .I      LDR      r1,[pc,#52] ; [0x1070] = 0x2000003a
        0x0000103c:    8008        ..      STRH     r0,[r1,#0]
        0x0000103e:    20be        .       MOVS     r0,#0xbe
        0x00001040:    f000f81a    ....    BL       BMP180_readsigned16_bit ; 0x1078
        0x00001044:    490b        .I      LDR      r1,[pc,#44] ; [0x1074] = 0x2000003c
        0x00001046:    8008        ..      STRH     r0,[r1,#0]
        0x00001048:    bd00        ..      POP      {pc}
    $d
        0x0000104a:    0000        ..      DCW    0
        0x0000104c:    20000018    ...     DCD    536870936
        0x00001050:    2000001a    ...     DCD    536870938
        0x00001054:    2000001c    ...     DCD    536870940
        0x00001058:    2000001e    ...     DCD    536870942
        0x0000105c:    20000020     ..     DCD    536870944
        0x00001060:    20000022    "..     DCD    536870946
        0x00001064:    20000024    $..     DCD    536870948
        0x00001068:    20000026    &..     DCD    536870950
        0x0000106c:    20000038    8..     DCD    536870968
        0x00001070:    2000003a    :..     DCD    536870970
        0x00001074:    2000003c    <..     DCD    536870972
    $t
    i.BMP180_readsigned16_bit
    BMP180_readsigned16_bit
        0x00001078:    4601        .F      MOV      r1,r0
        0x0000107a:    bf00        ..      NOP      
        0x0000107c:    4a0f        .J      LDR      r2,[pc,#60] ; [0x10bc] = 0x40020040
        0x0000107e:    6b12        .k      LDR      r2,[r2,#0x30]
        0x00001080:    07d2        ..      LSLS     r2,r2,#31
        0x00001082:    0fd2        ..      LSRS     r2,r2,#31
        0x00001084:    2a00        .*      CMP      r2,#0
        0x00001086:    d1f9        ..      BNE      0x107c ; BMP180_readsigned16_bit + 4
        0x00001088:    4a0c        .J      LDR      r2,[pc,#48] ; [0x10bc] = 0x40020040
        0x0000108a:    3a40        @:      SUBS     r2,r2,#0x40
        0x0000108c:    6111        .a      STR      r1,[r2,#0x10]
        0x0000108e:    1592        ..      ASRS     r2,r2,#22
        0x00001090:    4b0a        .K      LDR      r3,[pc,#40] ; [0x10bc] = 0x40020040
        0x00001092:    3b40        @;      SUBS     r3,r3,#0x40
        0x00001094:    611a        .a      STR      r2,[r3,#0x10]
        0x00001096:    611a        .a      STR      r2,[r3,#0x10]
        0x00001098:    bf00        ..      NOP      
        0x0000109a:    4a08        .J      LDR      r2,[pc,#32] ; [0x10bc] = 0x40020040
        0x0000109c:    6b12        .k      LDR      r2,[r2,#0x30]
        0x0000109e:    07d2        ..      LSLS     r2,r2,#31
        0x000010a0:    0fd2        ..      LSRS     r2,r2,#31
        0x000010a2:    2a00        .*      CMP      r2,#0
        0x000010a4:    d1f9        ..      BNE      0x109a ; BMP180_readsigned16_bit + 34
        0x000010a6:    4a05        .J      LDR      r2,[pc,#20] ; [0x10bc] = 0x40020040
        0x000010a8:    3a40        @:      SUBS     r2,r2,#0x40
        0x000010aa:    6912        .i      LDR      r2,[r2,#0x10]
        0x000010ac:    0212        ..      LSLS     r2,r2,#8
        0x000010ae:    b210        ..      SXTH     r0,r2
        0x000010b0:    4a02        .J      LDR      r2,[pc,#8] ; [0x10bc] = 0x40020040
        0x000010b2:    3a40        @:      SUBS     r2,r2,#0x40
        0x000010b4:    6912        .i      LDR      r2,[r2,#0x10]
        0x000010b6:    4302        .C      ORRS     r2,r2,r0
        0x000010b8:    b210        ..      SXTH     r0,r2
        0x000010ba:    4770        pG      BX       lr
    $d
        0x000010bc:    40020040    @..@    DCD    1073872960
    $t
    i.GPIO_Init
    GPIO_Init
        0x000010c0:    b500        ..      PUSH     {lr}
        0x000010c2:    794a        Jy      LDRB     r2,[r1,#5]
        0x000010c4:    0013        ..      MOVS     r3,r2
        0x000010c6:    f000fabe    ....    BL       __ARM_common_switch8 ; 0x1646
    $d
        0x000010ca:    0406        ..      DCW    1030
        0x000010cc:    34281c10    ..(4    DCD    875043856
        0x000010d0:    4c40        @L      DCW    19520
    $t
        0x000010d2:    680a        .h      LDR      r2,[r1,#0]
        0x000010d4:    4082        .@      LSLS     r2,r2,r0
        0x000010d6:    2301        .#      MOVS     r3,#1
        0x000010d8:    079b        ..      LSLS     r3,r3,#30
        0x000010da:    655a        Ze      STR      r2,[r3,#0x54]
        0x000010dc:    680a        .h      LDR      r2,[r1,#0]
        0x000010de:    4082        .@      LSLS     r2,r2,r0
        0x000010e0:    665a        Zf      STR      r2,[r3,#0x64]
        0x000010e2:    680a        .h      LDR      r2,[r1,#0]
        0x000010e4:    4082        .@      LSLS     r2,r2,r0
        0x000010e6:    679a        .g      STR      r2,[r3,#0x78]
        0x000010e8:    e03b        ;.      B        0x1162 ; GPIO_Init + 162
        0x000010ea:    680a        .h      LDR      r2,[r1,#0]
        0x000010ec:    4082        .@      LSLS     r2,r2,r0
        0x000010ee:    2301        .#      MOVS     r3,#1
        0x000010f0:    079b        ..      LSLS     r3,r3,#30
        0x000010f2:    655a        Ze      STR      r2,[r3,#0x54]
        0x000010f4:    680a        .h      LDR      r2,[r1,#0]
        0x000010f6:    4082        .@      LSLS     r2,r2,r0
        0x000010f8:    669a        .f      STR      r2,[r3,#0x68]
        0x000010fa:    680a        .h      LDR      r2,[r1,#0]
        0x000010fc:    4082        .@      LSLS     r2,r2,r0
        0x000010fe:    675a        Zg      STR      r2,[r3,#0x74]
        0x00001100:    e02f        /.      B        0x1162 ; GPIO_Init + 162
        0x00001102:    680a        .h      LDR      r2,[r1,#0]
        0x00001104:    4082        .@      LSLS     r2,r2,r0
        0x00001106:    2301        .#      MOVS     r3,#1
        0x00001108:    079b        ..      LSLS     r3,r3,#30
        0x0000110a:    659a        .e      STR      r2,[r3,#0x58]
        0x0000110c:    680a        .h      LDR      r2,[r1,#0]
        0x0000110e:    4082        .@      LSLS     r2,r2,r0
        0x00001110:    665a        Zf      STR      r2,[r3,#0x64]
        0x00001112:    680a        .h      LDR      r2,[r1,#0]
        0x00001114:    4082        .@      LSLS     r2,r2,r0
        0x00001116:    679a        .g      STR      r2,[r3,#0x78]
        0x00001118:    e023        #.      B        0x1162 ; GPIO_Init + 162
        0x0000111a:    680a        .h      LDR      r2,[r1,#0]
        0x0000111c:    4082        .@      LSLS     r2,r2,r0
        0x0000111e:    2301        .#      MOVS     r3,#1
        0x00001120:    079b        ..      LSLS     r3,r3,#30
        0x00001122:    659a        .e      STR      r2,[r3,#0x58]
        0x00001124:    680a        .h      LDR      r2,[r1,#0]
        0x00001126:    4082        .@      LSLS     r2,r2,r0
        0x00001128:    669a        .f      STR      r2,[r3,#0x68]
        0x0000112a:    680a        .h      LDR      r2,[r1,#0]
        0x0000112c:    4082        .@      LSLS     r2,r2,r0
        0x0000112e:    675a        Zg      STR      r2,[r3,#0x74]
        0x00001130:    e017        ..      B        0x1162 ; GPIO_Init + 162
        0x00001132:    680a        .h      LDR      r2,[r1,#0]
        0x00001134:    4082        .@      LSLS     r2,r2,r0
        0x00001136:    2301        .#      MOVS     r3,#1
        0x00001138:    079b        ..      LSLS     r3,r3,#30
        0x0000113a:    659a        .e      STR      r2,[r3,#0x58]
        0x0000113c:    680a        .h      LDR      r2,[r1,#0]
        0x0000113e:    4082        .@      LSLS     r2,r2,r0
        0x00001140:    665a        Zf      STR      r2,[r3,#0x64]
        0x00001142:    680a        .h      LDR      r2,[r1,#0]
        0x00001144:    4082        .@      LSLS     r2,r2,r0
        0x00001146:    675a        Zg      STR      r2,[r3,#0x74]
        0x00001148:    e00b        ..      B        0x1162 ; GPIO_Init + 162
        0x0000114a:    680a        .h      LDR      r2,[r1,#0]
        0x0000114c:    4082        .@      LSLS     r2,r2,r0
        0x0000114e:    2301        .#      MOVS     r3,#1
        0x00001150:    079b        ..      LSLS     r3,r3,#30
        0x00001152:    659a        .e      STR      r2,[r3,#0x58]
        0x00001154:    680a        .h      LDR      r2,[r1,#0]
        0x00001156:    4082        .@      LSLS     r2,r2,r0
        0x00001158:    669a        .f      STR      r2,[r3,#0x68]
        0x0000115a:    680a        .h      LDR      r2,[r1,#0]
        0x0000115c:    4082        .@      LSLS     r2,r2,r0
        0x0000115e:    679a        .g      STR      r2,[r3,#0x78]
        0x00001160:    bf00        ..      NOP      
        0x00001162:    bf00        ..      NOP      
        0x00001164:    790a        .y      LDRB     r2,[r1,#4]
        0x00001166:    2a00        .*      CMP      r2,#0
        0x00001168:    d002        ..      BEQ      0x1170 ; GPIO_Init + 176
        0x0000116a:    2a01        .*      CMP      r2,#1
        0x0000116c:    d10c        ..      BNE      0x1188 ; GPIO_Init + 200
        0x0000116e:    e005        ..      B        0x117c ; GPIO_Init + 188
        0x00001170:    680a        .h      LDR      r2,[r1,#0]
        0x00001172:    4082        .@      LSLS     r2,r2,r0
        0x00001174:    2301        .#      MOVS     r3,#1
        0x00001176:    079b        ..      LSLS     r3,r3,#30
        0x00001178:    629a        .b      STR      r2,[r3,#0x28]
        0x0000117a:    e005        ..      B        0x1188 ; GPIO_Init + 200
        0x0000117c:    680a        .h      LDR      r2,[r1,#0]
        0x0000117e:    4082        .@      LSLS     r2,r2,r0
        0x00001180:    2301        .#      MOVS     r3,#1
        0x00001182:    079b        ..      LSLS     r3,r3,#30
        0x00001184:    625a        Zb      STR      r2,[r3,#0x24]
        0x00001186:    bf00        ..      NOP      
        0x00001188:    bf00        ..      NOP      
        0x0000118a:    bd00        ..      POP      {pc}
    i.I2CReadBytes
    I2CReadBytes
        0x0000118c:    b530        0.      PUSH     {r4,r5,lr}
        0x0000118e:    460c        .F      MOV      r4,r1
        0x00001190:    bf00        ..      NOP      
        0x00001192:    6f05        .o      LDR      r5,[r0,#0x70]
        0x00001194:    07ed        ..      LSLS     r5,r5,#31
        0x00001196:    0fed        ..      LSRS     r5,r5,#31
        0x00001198:    2d00        .-      CMP      r5,#0
        0x0000119a:    d1fa        ..      BNE      0x1192 ; I2CReadBytes + 6
        0x0000119c:    6104        .a      STR      r4,[r0,#0x10]
        0x0000119e:    2100        .!      MOVS     r1,#0
        0x000011a0:    e004        ..      B        0x11ac ; I2CReadBytes + 32
        0x000011a2:    25ff        .%      MOVS     r5,#0xff
        0x000011a4:    3501        .5      ADDS     r5,#1
        0x000011a6:    6105        .a      STR      r5,[r0,#0x10]
        0x000011a8:    1c4d        M.      ADDS     r5,r1,#1
        0x000011aa:    b2e9        ..      UXTB     r1,r5
        0x000011ac:    4299        .B      CMP      r1,r3
        0x000011ae:    dbf8        ..      BLT      0x11a2 ; I2CReadBytes + 22
        0x000011b0:    bf00        ..      NOP      
        0x000011b2:    6f05        .o      LDR      r5,[r0,#0x70]
        0x000011b4:    07ed        ..      LSLS     r5,r5,#31
        0x000011b6:    0fed        ..      LSRS     r5,r5,#31
        0x000011b8:    2d00        .-      CMP      r5,#0
        0x000011ba:    d1fa        ..      BNE      0x11b2 ; I2CReadBytes + 38
        0x000011bc:    2100        .!      MOVS     r1,#0
        0x000011be:    e004        ..      B        0x11ca ; I2CReadBytes + 62
        0x000011c0:    6905        .i      LDR      r5,[r0,#0x10]
        0x000011c2:    7015        .p      STRB     r5,[r2,#0]
        0x000011c4:    1c4d        M.      ADDS     r5,r1,#1
        0x000011c6:    b2e9        ..      UXTB     r1,r5
        0x000011c8:    1c52        R.      ADDS     r2,r2,#1
        0x000011ca:    4299        .B      CMP      r1,r3
        0x000011cc:    dbf8        ..      BLT      0x11c0 ; I2CReadBytes + 52
        0x000011ce:    bd30        0.      POP      {r4,r5,pc}
    i.I2CWirteBytes
    I2CWirteBytes
        0x000011d0:    b530        0.      PUSH     {r4,r5,lr}
        0x000011d2:    4613        .F      MOV      r3,r2
        0x000011d4:    bf00        ..      NOP      
        0x000011d6:    6f04        .o      LDR      r4,[r0,#0x70]
        0x000011d8:    07e4        ..      LSLS     r4,r4,#31
        0x000011da:    0fe4        ..      LSRS     r4,r4,#31
        0x000011dc:    2c00        .,      CMP      r4,#0
        0x000011de:    d1fa        ..      BNE      0x11d6 ; I2CWirteBytes + 6
        0x000011e0:    2200        ."      MOVS     r2,#0
        0x000011e2:    e004        ..      B        0x11ee ; I2CWirteBytes + 30
        0x000011e4:    780c        .x      LDRB     r4,[r1,#0]
        0x000011e6:    6104        .a      STR      r4,[r0,#0x10]
        0x000011e8:    1c54        T.      ADDS     r4,r2,#1
        0x000011ea:    b2e2        ..      UXTB     r2,r4
        0x000011ec:    1c49        I.      ADDS     r1,r1,#1
        0x000011ee:    429a        .B      CMP      r2,r3
        0x000011f0:    dbf8        ..      BLT      0x11e4 ; I2CWirteBytes + 20
        0x000011f2:    bf00        ..      NOP      
        0x000011f4:    6f04        .o      LDR      r4,[r0,#0x70]
        0x000011f6:    2504        .%      MOVS     r5,#4
        0x000011f8:    402c        ,@      ANDS     r4,r4,r5
        0x000011fa:    2c00        .,      CMP      r4,#0
        0x000011fc:    d0fa        ..      BEQ      0x11f4 ; I2CWirteBytes + 36
        0x000011fe:    bd30        0.      POP      {r4,r5,pc}
    i.I2C_DISABLE
    I2C_DISABLE
        0x00001200:    6ec2        .n      LDR      r2,[r0,#0x6c]
        0x00001202:    2301        .#      MOVS     r3,#1
        0x00001204:    408b        .@      LSLS     r3,r3,r1
        0x00001206:    439a        .C      BICS     r2,r2,r3
        0x00001208:    66c2        .f      STR      r2,[r0,#0x6c]
        0x0000120a:    4770        pG      BX       lr
    i.I2C_ENABLE
    I2C_ENABLE
        0x0000120c:    6ec2        .n      LDR      r2,[r0,#0x6c]
        0x0000120e:    2301        .#      MOVS     r3,#1
        0x00001210:    408b        .@      LSLS     r3,r3,r1
        0x00001212:    431a        .C      ORRS     r2,r2,r3
        0x00001214:    66c2        .f      STR      r2,[r0,#0x6c]
        0x00001216:    4770        pG      BX       lr
    i.I2C_MasterConfig
    I2C_MasterConfig
        0x00001218:    b5f8        ..      PUSH     {r3-r7,lr}
        0x0000121a:    4604        .F      MOV      r4,r0
        0x0000121c:    460f        .F      MOV      r7,r1
        0x0000121e:    4616        .F      MOV      r6,r2
        0x00001220:    461d        .F      MOV      r5,r3
        0x00001222:    2100        .!      MOVS     r1,#0
        0x00001224:    4620         F      MOV      r0,r4
        0x00001226:    f7ffffeb    ....    BL       I2C_DISABLE ; 0x1200
        0x0000122a:    6820         h      LDR      r0,[r4,#0]
        0x0000122c:    0c00        ..      LSRS     r0,r0,#16
        0x0000122e:    0400        ..      LSLS     r0,r0,#16
        0x00001230:    6020         `      STR      r0,[r4,#0]
        0x00001232:    01b0        ..      LSLS     r0,r6,#6
        0x00001234:    0069        i.      LSLS     r1,r5,#1
        0x00001236:    4308        .C      ORRS     r0,r0,r1
        0x00001238:    9906        ..      LDR      r1,[sp,#0x18]
        0x0000123a:    4308        .C      ORRS     r0,r0,r1
        0x0000123c:    21ff        .!      MOVS     r1,#0xff
        0x0000123e:    3121        !1      ADDS     r1,r1,#0x21
        0x00001240:    4308        .C      ORRS     r0,r0,r1
        0x00001242:    6020         `      STR      r0,[r4,#0]
        0x00001244:    2000        .       MOVS     r0,#0
        0x00001246:    490e        .I      LDR      r1,[pc,#56] ; [0x1280] = 0x40020000
        0x00001248:    6308        .c      STR      r0,[r1,#0x30]
        0x0000124a:    4639        9F      MOV      r1,r7
        0x0000124c:    4620         F      MOV      r0,r4
        0x0000124e:    f000f921    ..!.    BL       I2C_TargerAdd ; 0x1494
        0x00001252:    4629        )F      MOV      r1,r5
        0x00001254:    4620         F      MOV      r0,r4
        0x00001256:    9a09        ..      LDR      r2,[sp,#0x24]
        0x00001258:    f000f8aa    ....    BL       I2C_SCL_LCNT ; 0x13b0
        0x0000125c:    4629        )F      MOV      r1,r5
        0x0000125e:    4620         F      MOV      r0,r4
        0x00001260:    9a09        ..      LDR      r2,[sp,#0x24]
        0x00001262:    f000f831    ..1.    BL       I2C_SCL_HCNT ; 0x12c8
        0x00001266:    4620         F      MOV      r0,r4
        0x00001268:    9907        ..      LDR      r1,[sp,#0x1c]
        0x0000126a:    f000f915    ....    BL       I2C_TransFifoSet ; 0x1498
        0x0000126e:    4620         F      MOV      r0,r4
        0x00001270:    9907        ..      LDR      r1,[sp,#0x1c]
        0x00001272:    f000f807    ....    BL       I2C_ReceFifoSet ; 0x1284
        0x00001276:    2100        .!      MOVS     r1,#0
        0x00001278:    4620         F      MOV      r0,r4
        0x0000127a:    f7ffffc7    ....    BL       I2C_ENABLE ; 0x120c
        0x0000127e:    bdf8        ..      POP      {r3-r7,pc}
    $d
        0x00001280:    40020000    ...@    DCD    1073872896
    $t
    i.I2C_ReceFifoSet
    I2C_ReceFifoSet
        0x00001284:    b570        p.      PUSH     {r4-r6,lr}
        0x00001286:    4605        .F      MOV      r5,r0
        0x00001288:    460c        .F      MOV      r4,r1
        0x0000128a:    2c09        .,      CMP      r4,#9
        0x0000128c:    da01        ..      BGE      0x1292 ; I2C_ReceFifoSet + 14
        0x0000128e:    63ac        .c      STR      r4,[r5,#0x38]
        0x00001290:    e003        ..      B        0x129a ; I2C_ReceFifoSet + 22
        0x00001292:    2108        .!      MOVS     r1,#8
        0x00001294:    a001        ..      ADR      r0,{pc}+8 ; 0x129c
        0x00001296:    f000f99b    ....    BL       __0printf ; 0x15d0
        0x0000129a:    bd70        p.      POP      {r4-r6,pc}
    $d
        0x0000129c:    4f525245    ERRO    DCD    1330795077
        0x000012a0:    68543a52    R:Th    DCD    1750350418
        0x000012a4:    43492065    e IC    DCD    1128865893
        0x000012a8:    5f58545f    _TX_    DCD    1599624287
        0x000012ac:    6d204c54    TL m    DCD    1830833236
        0x000012b0:    20747375    ust     DCD    544502645
        0x000012b4:    6c206562    be l    DCD    1814062434
        0x000012b8:    20737365    ess     DCD    544437093
        0x000012bc:    6e616874    than    DCD    1851877492
        0x000012c0:    20782520     %x     DCD    544744736
        0x000012c4:    0000200a    . ..    DCD    8202
    $t
    i.I2C_SCL_HCNT
    I2C_SCL_HCNT
        0x000012c8:    b5f7        ..      PUSH     {r0-r2,r4-r7,lr}
        0x000012ca:    b084        ..      SUB      sp,sp,#0x10
        0x000012cc:    4604        .F      MOV      r4,r0
        0x000012ce:    460d        .F      MOV      r5,r1
        0x000012d0:    2700        .'      MOVS     r7,#0
        0x000012d2:    2d01        .-      CMP      r5,#1
        0x000012d4:    d116        ..      BNE      0x1304 ; I2C_SCL_HCNT + 60
        0x000012d6:    277d        }'      MOVS     r7,#0x7d
        0x000012d8:    017f        ..      LSLS     r7,r7,#5
        0x000012da:    2118        .!      MOVS     r1,#0x18
        0x000012dc:    4379        yC      MULS     r1,r7,r1
        0x000012de:    4608        .F      MOV      r0,r1
        0x000012e0:    f7fff982    ....    BL       __aeabi_ui2d ; 0x5e8
        0x000012e4:    4a27        'J      LDR      r2,[pc,#156] ; [0x1384] = 0xd2f1a9fc
        0x000012e6:    4b28        (K      LDR      r3,[pc,#160] ; [0x1388] = 0x3f50624d
        0x000012e8:    9101        ..      STR      r1,[sp,#4]
        0x000012ea:    9000        ..      STR      r0,[sp,#0]
        0x000012ec:    f7fff88a    ....    BL       __aeabi_dmul ; 0x404
        0x000012f0:    9103        ..      STR      r1,[sp,#0xc]
        0x000012f2:    9002        ..      STR      r0,[sp,#8]
        0x000012f4:    f7fff9c7    ....    BL       __aeabi_d2f ; 0x686
        0x000012f8:    4606        .F      MOV      r6,r0
        0x000012fa:    4630        0F      MOV      r0,r6
        0x000012fc:    f7fff99b    ....    BL       __aeabi_f2uiz ; 0x636
        0x00001300:    6160        `a      STR      r0,[r4,#0x14]
        0x00001302:    e03d        =.      B        0x1380 ; I2C_SCL_HCNT + 184
        0x00001304:    2d02        .-      CMP      r5,#2
        0x00001306:    d11c        ..      BNE      0x1342 ; I2C_SCL_HCNT + 122
        0x00001308:    9806        ..      LDR      r0,[sp,#0x18]
        0x0000130a:    2801        .(      CMP      r0,#1
        0x0000130c:    d102        ..      BNE      0x1314 ; I2C_SCL_HCNT + 76
        0x0000130e:    27ff        .'      MOVS     r7,#0xff
        0x00001310:    3705        .7      ADDS     r7,#5
        0x00001312:    e001        ..      B        0x1318 ; I2C_SCL_HCNT + 80
        0x00001314:    274b        K'      MOVS     r7,#0x4b
        0x00001316:    00ff        ..      LSLS     r7,r7,#3
        0x00001318:    2118        .!      MOVS     r1,#0x18
        0x0000131a:    4379        yC      MULS     r1,r7,r1
        0x0000131c:    4608        .F      MOV      r0,r1
        0x0000131e:    f7fff963    ..c.    BL       __aeabi_ui2d ; 0x5e8
        0x00001322:    4a18        .J      LDR      r2,[pc,#96] ; [0x1384] = 0xd2f1a9fc
        0x00001324:    4b18        .K      LDR      r3,[pc,#96] ; [0x1388] = 0x3f50624d
        0x00001326:    9101        ..      STR      r1,[sp,#4]
        0x00001328:    9000        ..      STR      r0,[sp,#0]
        0x0000132a:    f7fff86b    ..k.    BL       __aeabi_dmul ; 0x404
        0x0000132e:    9103        ..      STR      r1,[sp,#0xc]
        0x00001330:    9002        ..      STR      r0,[sp,#8]
        0x00001332:    f7fff9a8    ....    BL       __aeabi_d2f ; 0x686
        0x00001336:    4606        .F      MOV      r6,r0
        0x00001338:    4630        0F      MOV      r0,r6
        0x0000133a:    f7fff97c    ..|.    BL       __aeabi_f2uiz ; 0x636
        0x0000133e:    61e0        .a      STR      r0,[r4,#0x1c]
        0x00001340:    e01e        ..      B        0x1380 ; I2C_SCL_HCNT + 184
        0x00001342:    2d03        .-      CMP      r5,#3
        0x00001344:    d119        ..      BNE      0x137a ; I2C_SCL_HCNT + 178
        0x00001346:    2778        x'      MOVS     r7,#0x78
        0x00001348:    2118        .!      MOVS     r1,#0x18
        0x0000134a:    4379        yC      MULS     r1,r7,r1
        0x0000134c:    4608        .F      MOV      r0,r1
        0x0000134e:    f7fff94b    ..K.    BL       __aeabi_ui2d ; 0x5e8
        0x00001352:    4a0c        .J      LDR      r2,[pc,#48] ; [0x1384] = 0xd2f1a9fc
        0x00001354:    4b0c        .K      LDR      r3,[pc,#48] ; [0x1388] = 0x3f50624d
        0x00001356:    9101        ..      STR      r1,[sp,#4]
        0x00001358:    9000        ..      STR      r0,[sp,#0]
        0x0000135a:    f7fff853    ..S.    BL       __aeabi_dmul ; 0x404
        0x0000135e:    9103        ..      STR      r1,[sp,#0xc]
        0x00001360:    9002        ..      STR      r0,[sp,#8]
        0x00001362:    f7fff990    ....    BL       __aeabi_d2f ; 0x686
        0x00001366:    4606        .F      MOV      r6,r0
        0x00001368:    2000        .       MOVS     r0,#0
        0x0000136a:    61e0        .a      STR      r0,[r4,#0x1c]
        0x0000136c:    6260        `b      STR      r0,[r4,#0x24]
        0x0000136e:    2102        .!      MOVS     r1,#2
        0x00001370:    20a4        .       MOVS     r0,#0xa4
        0x00001372:    5101        .Q      STR      r1,[r0,r4]
        0x00001374:    20a0        .       MOVS     r0,#0xa0
        0x00001376:    5101        .Q      STR      r1,[r0,r4]
        0x00001378:    e002        ..      B        0x1380 ; I2C_SCL_HCNT + 184
        0x0000137a:    a004        ..      ADR      r0,{pc}+0x12 ; 0x138c
        0x0000137c:    f000f928    ..(.    BL       __0printf ; 0x15d0
        0x00001380:    b007        ..      ADD      sp,sp,#0x1c
        0x00001382:    bdf0        ..      POP      {r4-r7,pc}
    $d
        0x00001384:    d2f1a9fc    ....    DCD    3539053052
        0x00001388:    3f50624d    MbP?    DCD    1062232653
        0x0000138c:    4f525245    ERRO    DCD    1330795077
        0x00001390:    32493a52    R:I2    DCD    843659858
        0x00001394:    43535f43    C_SC    DCD    1129537347
        0x00001398:    43485f4c    L_HC    DCD    1128816460
        0x0000139c:    6920544e    NT i    DCD    1763726414
        0x000013a0:    6f6e2073    s no    DCD    1869488243
        0x000013a4:    78652074    t ex    DCD    2019893364
        0x000013a8:    20747369    ist     DCD    544502633
        0x000013ac:    00000021    !...    DCD    33
    $t
    i.I2C_SCL_LCNT
    I2C_SCL_LCNT
        0x000013b0:    b5f7        ..      PUSH     {r0-r2,r4-r7,lr}
        0x000013b2:    b084        ..      SUB      sp,sp,#0x10
        0x000013b4:    4604        .F      MOV      r4,r0
        0x000013b6:    460d        .F      MOV      r5,r1
        0x000013b8:    2700        .'      MOVS     r7,#0
        0x000013ba:    2d01        .-      CMP      r5,#1
        0x000013bc:    d115        ..      BNE      0x13ea ; I2C_SCL_LCNT + 58
        0x000013be:    4f28        (O      LDR      r7,[pc,#160] ; [0x1460] = 0x125c
        0x000013c0:    2118        .!      MOVS     r1,#0x18
        0x000013c2:    4379        yC      MULS     r1,r7,r1
        0x000013c4:    4608        .F      MOV      r0,r1
        0x000013c6:    f7fff90f    ....    BL       __aeabi_ui2d ; 0x5e8
        0x000013ca:    4a26        &J      LDR      r2,[pc,#152] ; [0x1464] = 0xd2f1a9fc
        0x000013cc:    4b26        &K      LDR      r3,[pc,#152] ; [0x1468] = 0x3f50624d
        0x000013ce:    9101        ..      STR      r1,[sp,#4]
        0x000013d0:    9000        ..      STR      r0,[sp,#0]
        0x000013d2:    f7fff817    ....    BL       __aeabi_dmul ; 0x404
        0x000013d6:    9103        ..      STR      r1,[sp,#0xc]
        0x000013d8:    9002        ..      STR      r0,[sp,#8]
        0x000013da:    f7fff954    ..T.    BL       __aeabi_d2f ; 0x686
        0x000013de:    4606        .F      MOV      r6,r0
        0x000013e0:    4630        0F      MOV      r0,r6
        0x000013e2:    f7fff928    ..(.    BL       __aeabi_f2uiz ; 0x636
        0x000013e6:    61a0        .a      STR      r0,[r4,#0x18]
        0x000013e8:    e038        8.      B        0x145c ; I2C_SCL_LCNT + 172
        0x000013ea:    2d02        .-      CMP      r5,#2
        0x000013ec:    d11b        ..      BNE      0x1426 ; I2C_SCL_LCNT + 118
        0x000013ee:    9806        ..      LDR      r0,[sp,#0x18]
        0x000013f0:    2801        .(      CMP      r0,#1
        0x000013f2:    d102        ..      BNE      0x13fa ; I2C_SCL_LCNT + 74
        0x000013f4:    27ff        .'      MOVS     r7,#0xff
        0x000013f6:    37f5        .7      ADDS     r7,r7,#0xf5
        0x000013f8:    e000        ..      B        0x13fc ; I2C_SCL_LCNT + 76
        0x000013fa:    4f1c        .O      LDR      r7,[pc,#112] ; [0x146c] = 0x514
        0x000013fc:    2118        .!      MOVS     r1,#0x18
        0x000013fe:    4379        yC      MULS     r1,r7,r1
        0x00001400:    4608        .F      MOV      r0,r1
        0x00001402:    f7fff8f1    ....    BL       __aeabi_ui2d ; 0x5e8
        0x00001406:    4a17        .J      LDR      r2,[pc,#92] ; [0x1464] = 0xd2f1a9fc
        0x00001408:    4b17        .K      LDR      r3,[pc,#92] ; [0x1468] = 0x3f50624d
        0x0000140a:    9101        ..      STR      r1,[sp,#4]
        0x0000140c:    9000        ..      STR      r0,[sp,#0]
        0x0000140e:    f7fefff9    ....    BL       __aeabi_dmul ; 0x404
        0x00001412:    9103        ..      STR      r1,[sp,#0xc]
        0x00001414:    9002        ..      STR      r0,[sp,#8]
        0x00001416:    f7fff936    ..6.    BL       __aeabi_d2f ; 0x686
        0x0000141a:    4606        .F      MOV      r6,r0
        0x0000141c:    4630        0F      MOV      r0,r6
        0x0000141e:    f7fff90a    ....    BL       __aeabi_f2uiz ; 0x636
        0x00001422:    6220         b      STR      r0,[r4,#0x20]
        0x00001424:    e01a        ..      B        0x145c ; I2C_SCL_LCNT + 172
        0x00001426:    2d03        .-      CMP      r5,#3
        0x00001428:    d115        ..      BNE      0x1456 ; I2C_SCL_LCNT + 166
        0x0000142a:    27ff        .'      MOVS     r7,#0xff
        0x0000142c:    3741        A7      ADDS     r7,r7,#0x41
        0x0000142e:    2118        .!      MOVS     r1,#0x18
        0x00001430:    4379        yC      MULS     r1,r7,r1
        0x00001432:    4608        .F      MOV      r0,r1
        0x00001434:    f7fff8d8    ....    BL       __aeabi_ui2d ; 0x5e8
        0x00001438:    4a0a        .J      LDR      r2,[pc,#40] ; [0x1464] = 0xd2f1a9fc
        0x0000143a:    4b0b        .K      LDR      r3,[pc,#44] ; [0x1468] = 0x3f50624d
        0x0000143c:    9101        ..      STR      r1,[sp,#4]
        0x0000143e:    9000        ..      STR      r0,[sp,#0]
        0x00001440:    f7feffe0    ....    BL       __aeabi_dmul ; 0x404
        0x00001444:    9103        ..      STR      r1,[sp,#0xc]
        0x00001446:    9002        ..      STR      r0,[sp,#8]
        0x00001448:    f7fff91d    ....    BL       __aeabi_d2f ; 0x686
        0x0000144c:    4606        .F      MOV      r6,r0
        0x0000144e:    2000        .       MOVS     r0,#0
        0x00001450:    6220         b      STR      r0,[r4,#0x20]
        0x00001452:    62a0        .b      STR      r0,[r4,#0x28]
        0x00001454:    e002        ..      B        0x145c ; I2C_SCL_LCNT + 172
        0x00001456:    a006        ..      ADR      r0,{pc}+0x1a ; 0x1470
        0x00001458:    f000f8ba    ....    BL       __0printf ; 0x15d0
        0x0000145c:    b007        ..      ADD      sp,sp,#0x1c
        0x0000145e:    bdf0        ..      POP      {r4-r7,pc}
    $d
        0x00001460:    0000125c    \...    DCD    4700
        0x00001464:    d2f1a9fc    ....    DCD    3539053052
        0x00001468:    3f50624d    MbP?    DCD    1062232653
        0x0000146c:    00000514    ....    DCD    1300
        0x00001470:    4f525245    ERRO    DCD    1330795077
        0x00001474:    32493a52    R:I2    DCD    843659858
        0x00001478:    43535f43    C_SC    DCD    1129537347
        0x0000147c:    434c5f4c    L_LC    DCD    1129078604
        0x00001480:    6920544e    NT i    DCD    1763726414
        0x00001484:    6f6e2073    s no    DCD    1869488243
        0x00001488:    78652074    t ex    DCD    2019893364
        0x0000148c:    20747369    ist     DCD    544502633
        0x00001490:    00000021    !...    DCD    33
    $t
    i.I2C_TargerAdd
    I2C_TargerAdd
        0x00001494:    6041        A`      STR      r1,[r0,#4]
        0x00001496:    4770        pG      BX       lr
    i.I2C_TransFifoSet
    I2C_TransFifoSet
        0x00001498:    b570        p.      PUSH     {r4-r6,lr}
        0x0000149a:    4605        .F      MOV      r5,r0
        0x0000149c:    460c        .F      MOV      r4,r1
        0x0000149e:    2c09        .,      CMP      r4,#9
        0x000014a0:    da01        ..      BGE      0x14a6 ; I2C_TransFifoSet + 14
        0x000014a2:    63ec        .c      STR      r4,[r5,#0x3c]
        0x000014a4:    e003        ..      B        0x14ae ; I2C_TransFifoSet + 22
        0x000014a6:    2108        .!      MOVS     r1,#8
        0x000014a8:    a001        ..      ADR      r0,{pc}+8 ; 0x14b0
        0x000014aa:    f000f891    ....    BL       __0printf ; 0x15d0
        0x000014ae:    bd70        p.      POP      {r4-r6,pc}
    $d
        0x000014b0:    4f525245    ERRO    DCD    1330795077
        0x000014b4:    68543a52    R:Th    DCD    1750350418
        0x000014b8:    43492065    e IC    DCD    1128865893
        0x000014bc:    5f58545f    _TX_    DCD    1599624287
        0x000014c0:    6d204c54    TL m    DCD    1830833236
        0x000014c4:    20747375    ust     DCD    544502645
        0x000014c8:    6c206562    be l    DCD    1814062434
        0x000014cc:    20737365    ess     DCD    544437093
        0x000014d0:    6e616874    than    DCD    1851877492
        0x000014d4:    20782520     %x     DCD    544744736
        0x000014d8:    0000200a    . ..    DCD    8202
    $t
    i.PinCtrl_GIOSet
    PinCtrl_GIOSet
        0x000014dc:    b570        p.      PUSH     {r4-r6,lr}
        0x000014de:    4603        .F      MOV      r3,r0
        0x000014e0:    2000        .       MOVS     r0,#0
        0x000014e2:    bf00        ..      NOP      
        0x000014e4:    e019        ..      B        0x151a ; PinCtrl_GIOSet + 62
        0x000014e6:    460c        .F      MOV      r4,r1
        0x000014e8:    40c4        .@      LSRS     r4,r4,r0
        0x000014ea:    07e4        ..      LSLS     r4,r4,#31
        0x000014ec:    0fe4        ..      LSRS     r4,r4,#31
        0x000014ee:    2c00        .,      CMP      r4,#0
        0x000014f0:    d012        ..      BEQ      0x1518 ; PinCtrl_GIOSet + 60
        0x000014f2:    7914        .y      LDRB     r4,[r2,#4]
        0x000014f4:    78d5        .x      LDRB     r5,[r2,#3]
        0x000014f6:    432c        ,C      ORRS     r4,r4,r5
        0x000014f8:    7895        .x      LDRB     r5,[r2,#2]
        0x000014fa:    432c        ,C      ORRS     r4,r4,r5
        0x000014fc:    7855        Ux      LDRB     r5,[r2,#1]
        0x000014fe:    432c        ,C      ORRS     r4,r4,r5
        0x00001500:    015d        ].      LSLS     r5,r3,#5
        0x00001502:    4e07        .N      LDR      r6,[pc,#28] ; [0x1520] = 0x40040000
        0x00001504:    19ad        ..      ADDS     r5,r5,r6
        0x00001506:    0086        ..      LSLS     r6,r0,#2
        0x00001508:    55ac        .U      STRB     r4,[r5,r6]
        0x0000150a:    7814        .x      LDRB     r4,[r2,#0]
        0x0000150c:    015d        ].      LSLS     r5,r3,#5
        0x0000150e:    4e04        .N      LDR      r6,[pc,#16] ; [0x1520] = 0x40040000
        0x00001510:    19ad        ..      ADDS     r5,r5,r6
        0x00001512:    0086        ..      LSLS     r6,r0,#2
        0x00001514:    19ad        ..      ADDS     r5,r5,r6
        0x00001516:    706c        lp      STRB     r4,[r5,#1]
        0x00001518:    1c40        @.      ADDS     r0,r0,#1
        0x0000151a:    2808        .(      CMP      r0,#8
        0x0000151c:    d3e3        ..      BCC      0x14e6 ; PinCtrl_GIOSet + 10
        0x0000151e:    bd70        p.      POP      {r4-r6,pc}
    $d
        0x00001520:    40040000    ...@    DCD    1074003968
    $t
    i.SER_GetChar
    SER_GetChar
        0x00001524:    b510        ..      PUSH     {r4,lr}
        0x00001526:    4802        .H      LDR      r0,[pc,#8] ; [0x1530] = 0x40010000
        0x00001528:    f000f84c    ..L.    BL       UART_ReceData ; 0x15c4
        0x0000152c:    bd10        ..      POP      {r4,pc}
    $d
        0x0000152e:    0000        ..      DCW    0
        0x00001530:    40010000    ...@    DCD    1073807360
    $t
    i.SER_PutChar
    SER_PutChar
        0x00001534:    b510        ..      PUSH     {r4,lr}
        0x00001536:    4604        .F      MOV      r4,r0
        0x00001538:    b2e1        ..      UXTB     r1,r4
        0x0000153a:    4802        .H      LDR      r0,[pc,#8] ; [0x1544] = 0x40010000
        0x0000153c:    f002f947    ..G.    BL       sendchar ; 0x37ce
        0x00001540:    4620         F      MOV      r0,r4
        0x00001542:    bd10        ..      POP      {r4,pc}
    $d
        0x00001544:    40010000    ...@    DCD    1073807360
    $t
    i.SYSCTRL_ClrReset_APB_PinCtrl
    SYSCTRL_ClrReset_APB_PinCtrl
        0x00001548:    2101        .!      MOVS     r1,#1
        0x0000154a:    4801        .H      LDR      r0,[pc,#4] ; [0x1550] = 0x40060000
        0x0000154c:    6781        .g      STR      r1,[r0,#0x78]
        0x0000154e:    4770        pG      BX       lr
    $d
        0x00001550:    40060000    ...@    DCD    1074135040
    $t
    i.SYSCTRL_ClrReset_APB_SCI0
    SYSCTRL_ClrReset_APB_SCI0
        0x00001554:    2101        .!      MOVS     r1,#1
        0x00001556:    0249        I.      LSLS     r1,r1,#9
        0x00001558:    4801        .H      LDR      r0,[pc,#4] ; [0x1560] = 0x40060000
        0x0000155a:    6781        .g      STR      r1,[r0,#0x78]
        0x0000155c:    4770        pG      BX       lr
    $d
        0x0000155e:    0000        ..      DCW    0
        0x00001560:    40060000    ...@    DCD    1074135040
    $t
    i.Spi_init
    Spi_init
        0x00001564:    b51c        ..      PUSH     {r2-r4,lr}
        0x00001566:    21d0        .!      MOVS     r1,#0xd0
        0x00001568:    4668        hF      MOV      r0,sp
        0x0000156a:    7001        .p      STRB     r1,[r0,#0]
        0x0000156c:    2141        A!      MOVS     r1,#0x41
        0x0000156e:    7101        .q      STRB     r1,[r0,#4]
        0x00001570:    2150        P!      MOVS     r1,#0x50
        0x00001572:    7041        Ap      STRB     r1,[r0,#1]
        0x00001574:    2140        @!      MOVS     r1,#0x40
        0x00001576:    7081        .p      STRB     r1,[r0,#2]
        0x00001578:    2144        D!      MOVS     r1,#0x44
        0x0000157a:    70c1        .p      STRB     r1,[r0,#3]
        0x0000157c:    21ff        .!      MOVS     r1,#0xff
        0x0000157e:    3101        .1      ADDS     r1,#1
        0x00001580:    0588        ..      LSLS     r0,r1,#22
        0x00001582:    6141        Aa      STR      r1,[r0,#0x14]
        0x00001584:    6241        Ab      STR      r1,[r0,#0x24]
        0x00001586:    466a        jF      MOV      r2,sp
        0x00001588:    210e        .!      MOVS     r1,#0xe
        0x0000158a:    2001        .       MOVS     r0,#1
        0x0000158c:    f7ffffa6    ....    BL       PinCtrl_GIOSet ; 0x14dc
        0x00001590:    2006        .       MOVS     r0,#6
        0x00001592:    f002fa03    ....    BL       ssp_config ; 0x399c
        0x00001596:    bd1c        ..      POP      {r2-r4,pc}
    i.SysTick_Handler
    SysTick_Handler
        0x00001598:    4802        .H      LDR      r0,[pc,#8] ; [0x15a4] = 0x20000010
        0x0000159a:    6800        .h      LDR      r0,[r0,#0]
        0x0000159c:    1c40        @.      ADDS     r0,r0,#1
        0x0000159e:    4901        .I      LDR      r1,[pc,#4] ; [0x15a4] = 0x20000010
        0x000015a0:    6008        .`      STR      r0,[r1,#0]
        0x000015a2:    4770        pG      BX       lr
    $d
        0x000015a4:    20000010    ...     DCD    536870928
    $t
    i.SystemInit
    SystemInit
        0x000015a8:    20ff        .       MOVS     r0,#0xff
        0x000015aa:    302e        .0      ADDS     r0,r0,#0x2e
        0x000015ac:    4902        .I      LDR      r1,[pc,#8] ; [0x15b8] = 0x40060080
        0x000015ae:    6208        .b      STR      r0,[r1,#0x20]
        0x000015b0:    4802        .H      LDR      r0,[pc,#8] ; [0x15bc] = 0x16e3600
        0x000015b2:    4903        .I      LDR      r1,[pc,#12] ; [0x15c0] = 0x20000000
        0x000015b4:    6008        .`      STR      r0,[r1,#0]
        0x000015b6:    4770        pG      BX       lr
    $d
        0x000015b8:    40060080    ...@    DCD    1074135168
        0x000015bc:    016e3600    .6n.    DCD    24000000
        0x000015c0:    20000000    ...     DCD    536870912
    $t
    i.UART_ReceData
    UART_ReceData
        0x000015c4:    4601        .F      MOV      r1,r0
        0x000015c6:    6808        .h      LDR      r0,[r1,#0]
        0x000015c8:    b2c0        ..      UXTB     r0,r0
        0x000015ca:    4770        pG      BX       lr
    i.UART_SendData
    UART_SendData
        0x000015cc:    6001        .`      STR      r1,[r0,#0]
        0x000015ce:    4770        pG      BX       lr
    i.__0printf
    __0printf
    __1printf
    __2printf
    __c89printf
    printf
        0x000015d0:    b40f        ..      PUSH     {r0-r3}
        0x000015d2:    b510        ..      PUSH     {r4,lr}
        0x000015d4:    a903        ..      ADD      r1,sp,#0xc
        0x000015d6:    4b04        .K      LDR      r3,[pc,#16] ; [0x15e8] = 0x240d
        0x000015d8:    4a04        .J      LDR      r2,[pc,#16] ; [0x15ec] = 0x20000068
        0x000015da:    9802        ..      LDR      r0,[sp,#8]
        0x000015dc:    f000f9a8    ....    BL       _printf_core ; 0x1930
        0x000015e0:    bc10        ..      POP      {r4}
        0x000015e2:    bc08        ..      POP      {r3}
        0x000015e4:    b004        ..      ADD      sp,sp,#0x10
        0x000015e6:    4718        .G      BX       r3
    $d
        0x000015e8:    0000240d    .$..    DCD    9229
        0x000015ec:    20000068    h..     DCD    536871016
    $t
    i.__0sprintf
    __0sprintf
    __1sprintf
    __2sprintf
    __c89sprintf
    sprintf
        0x000015f0:    b40f        ..      PUSH     {r0-r3}
        0x000015f2:    b510        ..      PUSH     {r4,lr}
        0x000015f4:    a904        ..      ADD      r1,sp,#0x10
        0x000015f6:    4b07        .K      LDR      r3,[pc,#28] ; [0x1614] = 0x2069
        0x000015f8:    aa02        ..      ADD      r2,sp,#8
        0x000015fa:    9803        ..      LDR      r0,[sp,#0xc]
        0x000015fc:    f000f998    ....    BL       _printf_core ; 0x1930
        0x00001600:    4604        .F      MOV      r4,r0
        0x00001602:    a902        ..      ADD      r1,sp,#8
        0x00001604:    2000        .       MOVS     r0,#0
        0x00001606:    f000fd2f    ../.    BL       _sputc ; 0x2068
        0x0000160a:    4620         F      MOV      r0,r4
        0x0000160c:    bc10        ..      POP      {r4}
        0x0000160e:    bc08        ..      POP      {r3}
        0x00001610:    b004        ..      ADD      sp,sp,#0x10
        0x00001612:    4718        .G      BX       r3
    $d
        0x00001614:    00002069    i ..    DCD    8297
    $t
    i.__ARM_clz
    __ARM_clz
        0x00001618:    2120         !      MOVS     r1,#0x20
        0x0000161a:    0c02        ..      LSRS     r2,r0,#16
        0x0000161c:    d001        ..      BEQ      0x1622 ; __ARM_clz + 10
        0x0000161e:    2110        .!      MOVS     r1,#0x10
        0x00001620:    4610        .F      MOV      r0,r2
        0x00001622:    0a02        ..      LSRS     r2,r0,#8
        0x00001624:    d001        ..      BEQ      0x162a ; __ARM_clz + 18
        0x00001626:    4610        .F      MOV      r0,r2
        0x00001628:    3908        .9      SUBS     r1,r1,#8
        0x0000162a:    0902        ..      LSRS     r2,r0,#4
        0x0000162c:    d001        ..      BEQ      0x1632 ; __ARM_clz + 26
        0x0000162e:    4610        .F      MOV      r0,r2
        0x00001630:    1f09        ..      SUBS     r1,r1,#4
        0x00001632:    0882        ..      LSRS     r2,r0,#2
        0x00001634:    d001        ..      BEQ      0x163a ; __ARM_clz + 34
        0x00001636:    4610        .F      MOV      r0,r2
        0x00001638:    1e89        ..      SUBS     r1,r1,#2
        0x0000163a:    0842        B.      LSRS     r2,r0,#1
        0x0000163c:    d001        ..      BEQ      0x1642 ; __ARM_clz + 42
        0x0000163e:    1e88        ..      SUBS     r0,r1,#2
        0x00001640:    4770        pG      BX       lr
        0x00001642:    1a08        ..      SUBS     r0,r1,r0
        0x00001644:    4770        pG      BX       lr
    i.__ARM_common_switch8
    __ARM_common_switch8
        0x00001646:    b430        0.      PUSH     {r4,r5}
        0x00001648:    4674        tF      MOV      r4,lr
        0x0000164a:    1e64        d.      SUBS     r4,r4,#1
        0x0000164c:    7825        %x      LDRB     r5,[r4,#0]
        0x0000164e:    1c64        d.      ADDS     r4,r4,#1
        0x00001650:    42ab        .B      CMP      r3,r5
        0x00001652:    d304        ..      BCC      0x165e ; __ARM_common_switch8 + 24
        0x00001654:    5d63        c]      LDRB     r3,[r4,r5]
        0x00001656:    005b        [.      LSLS     r3,r3,#1
        0x00001658:    18e3        ..      ADDS     r3,r4,r3
        0x0000165a:    bc30        0.      POP      {r4,r5}
        0x0000165c:    4718        .G      BX       r3
        0x0000165e:    461d        .F      MOV      r5,r3
        0x00001660:    e7f8        ..      B        0x1654 ; __ARM_common_switch8 + 14
        0x00001662:    0000        ..      MOVS     r0,r0
    i.__ARM_fpclassify
    __ARM_fpclassify
        0x00001664:    0049        I.      LSLS     r1,r1,#1
        0x00001666:    02ca        ..      LSLS     r2,r1,#11
        0x00001668:    4302        .C      ORRS     r2,r2,r0
        0x0000166a:    0010        ..      MOVS     r0,r2
        0x0000166c:    d000        ..      BEQ      0x1670 ; __ARM_fpclassify + 12
        0x0000166e:    2004        .       MOVS     r0,#4
        0x00001670:    0d4a        J.      LSRS     r2,r1,#21
        0x00001672:    d001        ..      BEQ      0x1678 ; __ARM_fpclassify + 20
        0x00001674:    2201        ."      MOVS     r2,#1
        0x00001676:    4310        .C      ORRS     r0,r0,r2
        0x00001678:    4a04        .J      LDR      r2,[pc,#16] ; [0x168c] = 0x7ff
        0x0000167a:    0d49        I.      LSRS     r1,r1,#21
        0x0000167c:    4291        .B      CMP      r1,r2
        0x0000167e:    d101        ..      BNE      0x1684 ; __ARM_fpclassify + 32
        0x00001680:    2102        .!      MOVS     r1,#2
        0x00001682:    4308        .C      ORRS     r0,r0,r1
        0x00001684:    2801        .(      CMP      r0,#1
        0x00001686:    d100        ..      BNE      0x168a ; __ARM_fpclassify + 38
        0x00001688:    2005        .       MOVS     r0,#5
        0x0000168a:    4770        pG      BX       lr
    $d
        0x0000168c:    000007ff    ....    DCD    2047
    $t
    i.__kernel_poly
    __kernel_poly
        0x00001690:    b5f8        ..      PUSH     {r3-r7,lr}
        0x00001692:    4604        .F      MOV      r4,r0
        0x00001694:    1e4f        O.      SUBS     r7,r1,#1
        0x00001696:    00c8        ..      LSLS     r0,r1,#3
        0x00001698:    3808        .8      SUBS     r0,r0,#8
        0x0000169a:    1821        !.      ADDS     r1,r4,r0
        0x0000169c:    4615        .F      MOV      r5,r2
        0x0000169e:    461e        .F      MOV      r6,r3
        0x000016a0:    6808        .h      LDR      r0,[r1,#0]
        0x000016a2:    6849        Ih      LDR      r1,[r1,#4]
        0x000016a4:    463a        :F      MOV      r2,r7
        0x000016a6:    2306        .#      MOVS     r3,#6
        0x000016a8:    439a        .C      BICS     r2,r2,r3
        0x000016aa:    d010        ..      BEQ      0x16ce ; __kernel_poly + 62
        0x000016ac:    462a        *F      MOV      r2,r5
        0x000016ae:    4633        3F      MOV      r3,r6
        0x000016b0:    f7fefea8    ....    BL       __aeabi_dmul ; 0x404
        0x000016b4:    463a        :F      MOV      r2,r7
        0x000016b6:    00d2        ..      LSLS     r2,r2,#3
        0x000016b8:    3a08        .:      SUBS     r2,r2,#8
        0x000016ba:    18a3        ..      ADDS     r3,r4,r2
        0x000016bc:    681a        .h      LDR      r2,[r3,#0]
        0x000016be:    1e7f        ..      SUBS     r7,r7,#1
        0x000016c0:    685b        [h      LDR      r3,[r3,#4]
        0x000016c2:    f7fefded    ....    BL       __aeabi_dadd ; 0x2a0
        0x000016c6:    2206        ."      MOVS     r2,#6
        0x000016c8:    463b        ;F      MOV      r3,r7
        0x000016ca:    4393        .C      BICS     r3,r3,r2
        0x000016cc:    d1ee        ..      BNE      0x16ac ; __kernel_poly + 28
        0x000016ce:    2f02        ./      CMP      r7,#2
        0x000016d0:    d023        #.      BEQ      0x171a ; __kernel_poly + 138
        0x000016d2:    2f04        ./      CMP      r7,#4
        0x000016d4:    d011        ..      BEQ      0x16fa ; __kernel_poly + 106
        0x000016d6:    2f06        ./      CMP      r7,#6
        0x000016d8:    d12f        /.      BNE      0x173a ; __kernel_poly + 170
        0x000016da:    462a        *F      MOV      r2,r5
        0x000016dc:    4633        3F      MOV      r3,r6
        0x000016de:    f7fefe91    ....    BL       __aeabi_dmul ; 0x404
        0x000016e2:    6ae3        .j      LDR      r3,[r4,#0x2c]
        0x000016e4:    6aa2        .j      LDR      r2,[r4,#0x28]
        0x000016e6:    f7fefddb    ....    BL       __aeabi_dadd ; 0x2a0
        0x000016ea:    462a        *F      MOV      r2,r5
        0x000016ec:    4633        3F      MOV      r3,r6
        0x000016ee:    f7fefe89    ....    BL       __aeabi_dmul ; 0x404
        0x000016f2:    6a63        cj      LDR      r3,[r4,#0x24]
        0x000016f4:    6a22        "j      LDR      r2,[r4,#0x20]
        0x000016f6:    f7fefdd3    ....    BL       __aeabi_dadd ; 0x2a0
        0x000016fa:    462a        *F      MOV      r2,r5
        0x000016fc:    4633        3F      MOV      r3,r6
        0x000016fe:    f7fefe81    ....    BL       __aeabi_dmul ; 0x404
        0x00001702:    69e3        .i      LDR      r3,[r4,#0x1c]
        0x00001704:    69a2        .i      LDR      r2,[r4,#0x18]
        0x00001706:    f7fefdcb    ....    BL       __aeabi_dadd ; 0x2a0
        0x0000170a:    462a        *F      MOV      r2,r5
        0x0000170c:    4633        3F      MOV      r3,r6
        0x0000170e:    f7fefe79    ..y.    BL       __aeabi_dmul ; 0x404
        0x00001712:    6963        ci      LDR      r3,[r4,#0x14]
        0x00001714:    6922        "i      LDR      r2,[r4,#0x10]
        0x00001716:    f7fefdc3    ....    BL       __aeabi_dadd ; 0x2a0
        0x0000171a:    462a        *F      MOV      r2,r5
        0x0000171c:    4633        3F      MOV      r3,r6
        0x0000171e:    f7fefe71    ..q.    BL       __aeabi_dmul ; 0x404
        0x00001722:    68e3        .h      LDR      r3,[r4,#0xc]
        0x00001724:    68a2        .h      LDR      r2,[r4,#8]
        0x00001726:    f7fefdbb    ....    BL       __aeabi_dadd ; 0x2a0
        0x0000172a:    462a        *F      MOV      r2,r5
        0x0000172c:    4633        3F      MOV      r3,r6
        0x0000172e:    f7fefe69    ..i.    BL       __aeabi_dmul ; 0x404
        0x00001732:    6863        ch      LDR      r3,[r4,#4]
        0x00001734:    6822        "h      LDR      r2,[r4,#0]
        0x00001736:    f7fefdb3    ....    BL       __aeabi_dadd ; 0x2a0
        0x0000173a:    bdf8        ..      POP      {r3-r7,pc}
    i.__mathlib_dbl_divzero
    __mathlib_dbl_divzero
        0x0000173c:    2200        ."      MOVS     r2,#0
        0x0000173e:    b510        ..      PUSH     {r4,lr}
        0x00001740:    4613        .F      MOV      r3,r2
        0x00001742:    4610        .F      MOV      r0,r2
        0x00001744:    4901        .I      LDR      r1,[pc,#4] ; [0x174c] = 0x3ff00000
        0x00001746:    f7fefec5    ....    BL       __aeabi_ddiv ; 0x4d4
        0x0000174a:    bd10        ..      POP      {r4,pc}
    $d
        0x0000174c:    3ff00000    ...?    DCD    1072693248
    $t
    i.__mathlib_dbl_infnan2
    __mathlib_dbl_infnan2
        0x00001750:    b510        ..      PUSH     {r4,lr}
        0x00001752:    f7fefda5    ....    BL       __aeabi_dadd ; 0x2a0
        0x00001756:    bd10        ..      POP      {r4,pc}
    i.__mathlib_dbl_invalid
    __mathlib_dbl_invalid
        0x00001758:    2200        ."      MOVS     r2,#0
        0x0000175a:    b510        ..      PUSH     {r4,lr}
        0x0000175c:    4613        .F      MOV      r3,r2
        0x0000175e:    4610        .F      MOV      r0,r2
        0x00001760:    4611        .F      MOV      r1,r2
        0x00001762:    f7fefeb7    ....    BL       __aeabi_ddiv ; 0x4d4
        0x00001766:    bd10        ..      POP      {r4,pc}
    i.__mathlib_dbl_overflow
    __mathlib_dbl_overflow
        0x00001768:    b510        ..      PUSH     {r4,lr}
        0x0000176a:    2107        .!      MOVS     r1,#7
        0x0000176c:    4a02        .J      LDR      r2,[pc,#8] ; [0x1778] = 0x301
        0x0000176e:    2000        .       MOVS     r0,#0
        0x00001770:    0709        ..      LSLS     r1,r1,#28
        0x00001772:    f7fff897    ....    BL       __ARM_scalbn ; 0x8a4
        0x00001776:    bd10        ..      POP      {r4,pc}
    $d
        0x00001778:    00000301    ....    DCD    769
    $t
    i.__mathlib_dbl_underflow
    __mathlib_dbl_underflow
        0x0000177c:    4a03        .J      LDR      r2,[pc,#12] ; [0x178c] = 0xfffffd01
        0x0000177e:    b510        ..      PUSH     {r4,lr}
        0x00001780:    2000        .       MOVS     r0,#0
        0x00001782:    0711        ..      LSLS     r1,r2,#28
        0x00001784:    f7fff88e    ....    BL       __ARM_scalbn ; 0x8a4
        0x00001788:    bd10        ..      POP      {r4,pc}
    $d
        0x0000178a:    0000        ..      DCW    0
        0x0000178c:    fffffd01    ....    DCD    4294966529
    $t
    i.__scatterload_copy
    __scatterload_copy
        0x00001790:    e002        ..      B        0x1798 ; __scatterload_copy + 8
        0x00001792:    c808        ..      LDM      r0!,{r3}
        0x00001794:    1f12        ..      SUBS     r2,r2,#4
        0x00001796:    c108        ..      STM      r1!,{r3}
        0x00001798:    2a00        .*      CMP      r2,#0
        0x0000179a:    d1fa        ..      BNE      0x1792 ; __scatterload_copy + 2
        0x0000179c:    4770        pG      BX       lr
    i.__scatterload_null
    __scatterload_null
        0x0000179e:    4770        pG      BX       lr
    i.__scatterload_zeroinit
    __scatterload_zeroinit
        0x000017a0:    2000        .       MOVS     r0,#0
        0x000017a2:    e001        ..      B        0x17a8 ; __scatterload_zeroinit + 8
        0x000017a4:    c101        ..      STM      r1!,{r0}
        0x000017a6:    1f12        ..      SUBS     r2,r2,#4
        0x000017a8:    2a00        .*      CMP      r2,#0
        0x000017aa:    d1fb        ..      BNE      0x17a4 ; __scatterload_zeroinit + 4
        0x000017ac:    4770        pG      BX       lr
        0x000017ae:    0000        ..      MOVS     r0,r0
    i.__set_errno
    __set_errno
        0x000017b0:    4901        .I      LDR      r1,[pc,#4] ; [0x17b8] = 0x20000070
        0x000017b2:    6008        .`      STR      r0,[r1,#0]
        0x000017b4:    4770        pG      BX       lr
    $d
        0x000017b6:    0000        ..      DCW    0
        0x000017b8:    20000070    p..     DCD    536871024
    $t
    i._fp_digits
    _fp_digits
        0x000017bc:    b5f0        ..      PUSH     {r4-r7,lr}
        0x000017be:    b41f        ..      PUSH     {r0-r4}
        0x000017c0:    b086        ..      SUB      sp,sp,#0x18
        0x000017c2:    9809        ..      LDR      r0,[sp,#0x24]
        0x000017c4:    9a08        ..      LDR      r2,[sp,#0x20]
        0x000017c6:    0d03        ..      LSRS     r3,r0,#20
        0x000017c8:    2100        .!      MOVS     r1,#0
        0x000017ca:    4302        .C      ORRS     r2,r2,r0
        0x000017cc:    d014        ..      BEQ      0x17f8 ; _fp_digits + 60
        0x000017ce:    4851        QH      LDR      r0,[pc,#324] ; [0x1914] = 0xfffffc01
        0x000017d0:    4a51        QJ      LDR      r2,[pc,#324] ; [0x1918] = 0x4d10
        0x000017d2:    1818        ..      ADDS     r0,r3,r0
        0x000017d4:    4350        PC      MULS     r0,r2,r0
        0x000017d6:    1405        ..      ASRS     r5,r0,#16
        0x000017d8:    9811        ..      LDR      r0,[sp,#0x44]
        0x000017da:    2801        .(      CMP      r0,#1
        0x000017dc:    9810        ..      LDR      r0,[sp,#0x40]
        0x000017de:    d01a        ..      BEQ      0x1816 ; _fp_digits + 90
        0x000017e0:    1a28        (.      SUBS     r0,r5,r0
        0x000017e2:    1c40        @.      ADDS     r0,r0,#1
        0x000017e4:    2600        .&      MOVS     r6,#0
        0x000017e6:    4f4d        MO      LDR      r7,[pc,#308] ; [0x191c] = 0x40140000
        0x000017e8:    494d        MI      LDR      r1,[pc,#308] ; [0x1920] = 0x3ff00000
        0x000017ea:    9600        ..      STR      r6,[sp,#0]
        0x000017ec:    9101        ..      STR      r1,[sp,#4]
        0x000017ee:    9004        ..      STR      r0,[sp,#0x10]
        0x000017f0:    2800        .(      CMP      r0,#0
        0x000017f2:    da12        ..      BGE      0x181a ; _fp_digits + 94
        0x000017f4:    4244        DB      RSBS     r4,r0,#0
        0x000017f6:    e011        ..      B        0x181c ; _fp_digits + 96
        0x000017f8:    9811        ..      LDR      r0,[sp,#0x44]
        0x000017fa:    2401        .$      MOVS     r4,#1
        0x000017fc:    a349        I.      ADR      r3,{pc}+0x128 ; 0x1924
        0x000017fe:    2801        .(      CMP      r0,#1
        0x00001800:    d101        ..      BNE      0x1806 ; _fp_digits + 74
        0x00001802:    9810        ..      LDR      r0,[sp,#0x40]
        0x00001804:    43c1        .C      MVNS     r1,r0
        0x00001806:    9806        ..      LDR      r0,[sp,#0x18]
        0x00001808:    9a11        ..      LDR      r2,[sp,#0x44]
        0x0000180a:    6084        .`      STR      r4,[r0,#8]
        0x0000180c:    6003        .`      STR      r3,[r0,#0]
        0x0000180e:    60c2        .`      STR      r2,[r0,#0xc]
        0x00001810:    6041        A`      STR      r1,[r0,#4]
        0x00001812:    b00b        ..      ADD      sp,sp,#0x2c
        0x00001814:    bdf0        ..      POP      {r4-r7,pc}
        0x00001816:    4240        @B      RSBS     r0,r0,#0
        0x00001818:    e7e4        ..      B        0x17e4 ; _fp_digits + 40
        0x0000181a:    4604        .F      MOV      r4,r0
        0x0000181c:    0521        !.      LSLS     r1,r4,#20
        0x0000181e:    2000        .       MOVS     r0,#0
        0x00001820:    4a3f        ?J      LDR      r2,[pc,#252] ; [0x1920] = 0x3ff00000
        0x00001822:    1c00        ..      ADDS     r0,r0,#0
        0x00001824:    4151        QA      ADCS     r1,r1,r2
        0x00001826:    9103        ..      STR      r1,[sp,#0xc]
        0x00001828:    9002        ..      STR      r0,[sp,#8]
        0x0000182a:    e012        ..      B        0x1852 ; _fp_digits + 150
        0x0000182c:    07e0        ..      LSLS     r0,r4,#31
        0x0000182e:    d007        ..      BEQ      0x1840 ; _fp_digits + 132
        0x00001830:    4632        2F      MOV      r2,r6
        0x00001832:    463b        ;F      MOV      r3,r7
        0x00001834:    9901        ..      LDR      r1,[sp,#4]
        0x00001836:    9800        ..      LDR      r0,[sp,#0]
        0x00001838:    f7fefde4    ....    BL       __aeabi_dmul ; 0x404
        0x0000183c:    9101        ..      STR      r1,[sp,#4]
        0x0000183e:    9000        ..      STR      r0,[sp,#0]
        0x00001840:    4632        2F      MOV      r2,r6
        0x00001842:    463b        ;F      MOV      r3,r7
        0x00001844:    4610        .F      MOV      r0,r2
        0x00001846:    4619        .F      MOV      r1,r3
        0x00001848:    f7fefddc    ....    BL       __aeabi_dmul ; 0x404
        0x0000184c:    4606        .F      MOV      r6,r0
        0x0000184e:    460f        .F      MOV      r7,r1
        0x00001850:    1064        d.      ASRS     r4,r4,#1
        0x00001852:    2c00        .,      CMP      r4,#0
        0x00001854:    d1ea        ..      BNE      0x182c ; _fp_digits + 112
        0x00001856:    9804        ..      LDR      r0,[sp,#0x10]
        0x00001858:    9b03        ..      LDR      r3,[sp,#0xc]
        0x0000185a:    2800        .(      CMP      r0,#0
        0x0000185c:    9a02        ..      LDR      r2,[sp,#8]
        0x0000185e:    9909        ..      LDR      r1,[sp,#0x24]
        0x00001860:    9808        ..      LDR      r0,[sp,#0x20]
        0x00001862:    da06        ..      BGE      0x1872 ; _fp_digits + 182
        0x00001864:    f7fefdce    ....    BL       __aeabi_dmul ; 0x404
        0x00001868:    9b01        ..      LDR      r3,[sp,#4]
        0x0000186a:    9a00        ..      LDR      r2,[sp,#0]
        0x0000186c:    f7fefdca    ....    BL       __aeabi_dmul ; 0x404
        0x00001870:    e005        ..      B        0x187e ; _fp_digits + 194
        0x00001872:    f7fefe2f    ../.    BL       __aeabi_ddiv ; 0x4d4
        0x00001876:    9b01        ..      LDR      r3,[sp,#4]
        0x00001878:    9a00        ..      LDR      r2,[sp,#0]
        0x0000187a:    f7fefe2b    ..+.    BL       __aeabi_ddiv ; 0x4d4
        0x0000187e:    4604        .F      MOV      r4,r0
        0x00001880:    460e        .F      MOV      r6,r1
        0x00001882:    2200        ."      MOVS     r2,#0
        0x00001884:    4b28        (K      LDR      r3,[pc,#160] ; [0x1928] = 0x43f00000
        0x00001886:    f7fff857    ..W.    BL       __aeabi_cdrcmple ; 0x938
        0x0000188a:    d803        ..      BHI      0x1894 ; _fp_digits + 216
        0x0000188c:    2000        .       MOVS     r0,#0
        0x0000188e:    43c0        .C      MVNS     r0,r0
        0x00001890:    4601        .F      MOV      r1,r0
        0x00001892:    e007        ..      B        0x18a4 ; _fp_digits + 232
        0x00001894:    2200        ."      MOVS     r2,#0
        0x00001896:    4b25        %K      LDR      r3,[pc,#148] ; [0x192c] = 0x3fe00000
        0x00001898:    4620         F      MOV      r0,r4
        0x0000189a:    4631        1F      MOV      r1,r6
        0x0000189c:    f7fefd00    ....    BL       __aeabi_dadd ; 0x2a0
        0x000018a0:    f7fff82a    ..*.    BL       __aeabi_d2ulz ; 0x8f8
        0x000018a4:    2410        .$      MOVS     r4,#0x10
        0x000018a6:    e009        ..      B        0x18bc ; _fp_digits + 256
        0x000018a8:    2c00        .,      CMP      r4,#0
        0x000018aa:    db0a        ..      BLT      0x18c2 ; _fp_digits + 262
        0x000018ac:    220a        ."      MOVS     r2,#0xa
        0x000018ae:    2300        .#      MOVS     r3,#0
        0x000018b0:    f7feff05    ....    BL       __aeabi_uldivmod ; 0x6be
        0x000018b4:    9b07        ..      LDR      r3,[sp,#0x1c]
        0x000018b6:    3230        02      ADDS     r2,r2,#0x30
        0x000018b8:    551a        .U      STRB     r2,[r3,r4]
        0x000018ba:    1e64        d.      SUBS     r4,r4,#1
        0x000018bc:    4602        .F      MOV      r2,r0
        0x000018be:    430a        .C      ORRS     r2,r2,r1
        0x000018c0:    d1f2        ..      BNE      0x18a8 ; _fp_digits + 236
        0x000018c2:    2211        ."      MOVS     r2,#0x11
        0x000018c4:    1c64        d.      ADDS     r4,r4,#1
        0x000018c6:    9b07        ..      LDR      r3,[sp,#0x1c]
        0x000018c8:    1b12        ..      SUBS     r2,r2,r4
        0x000018ca:    191c        ..      ADDS     r4,r3,r4
        0x000018cc:    9b11        ..      LDR      r3,[sp,#0x44]
        0x000018ce:    2b01        .+      CMP      r3,#1
        0x000018d0:    d003        ..      BEQ      0x18da ; _fp_digits + 286
        0x000018d2:    2301        .#      MOVS     r3,#1
        0x000018d4:    4308        .C      ORRS     r0,r0,r1
        0x000018d6:    d10e        ..      BNE      0x18f6 ; _fp_digits + 314
        0x000018d8:    e00a        ..      B        0x18f0 ; _fp_digits + 308
        0x000018da:    4308        .C      ORRS     r0,r0,r1
        0x000018dc:    d004        ..      BEQ      0x18e8 ; _fp_digits + 300
        0x000018de:    2011        .       MOVS     r0,#0x11
        0x000018e0:    9010        ..      STR      r0,[sp,#0x40]
        0x000018e2:    2000        .       MOVS     r0,#0
        0x000018e4:    9011        ..      STR      r0,[sp,#0x44]
        0x000018e6:    e777        w.      B        0x17d8 ; _fp_digits + 28
        0x000018e8:    9810        ..      LDR      r0,[sp,#0x40]
        0x000018ea:    1a15        ..      SUBS     r5,r2,r0
        0x000018ec:    1e6d        m.      SUBS     r5,r5,#1
        0x000018ee:    e00b        ..      B        0x1908 ; _fp_digits + 332
        0x000018f0:    9810        ..      LDR      r0,[sp,#0x40]
        0x000018f2:    4282        .B      CMP      r2,r0
        0x000018f4:    dd02        ..      BLE      0x18fc ; _fp_digits + 320
        0x000018f6:    2300        .#      MOVS     r3,#0
        0x000018f8:    1c6d        m.      ADDS     r5,r5,#1
        0x000018fa:    e003        ..      B        0x1904 ; _fp_digits + 328
        0x000018fc:    4282        .B      CMP      r2,r0
        0x000018fe:    da01        ..      BGE      0x1904 ; _fp_digits + 328
        0x00001900:    2300        .#      MOVS     r3,#0
        0x00001902:    1e6d        m.      SUBS     r5,r5,#1
        0x00001904:    2b00        .+      CMP      r3,#0
        0x00001906:    d0ee        ..      BEQ      0x18e6 ; _fp_digits + 298
        0x00001908:    9806        ..      LDR      r0,[sp,#0x18]
        0x0000190a:    9911        ..      LDR      r1,[sp,#0x44]
        0x0000190c:    6082        .`      STR      r2,[r0,#8]
        0x0000190e:    60c1        .`      STR      r1,[r0,#0xc]
        0x00001910:    c030        0.      STM      r0!,{r4,r5}
        0x00001912:    e77e        ~.      B        0x1812 ; _fp_digits + 86
    $d
        0x00001914:    fffffc01    ....    DCD    4294966273
        0x00001918:    00004d10    .M..    DCD    19728
        0x0000191c:    40140000    ...@    DCD    1075052544
        0x00001920:    3ff00000    ...?    DCD    1072693248
        0x00001924:    00000030    0...    DCD    48
        0x00001928:    43f00000    ...C    DCD    1139802112
        0x0000192c:    3fe00000    ...?    DCD    1071644672
    $t
    i._printf_core
    _printf_core
        0x00001930:    b5ff        ..      PUSH     {r0-r7,lr}
        0x00001932:    b097        ..      SUB      sp,sp,#0x5c
        0x00001934:    4606        .F      MOV      r6,r0
        0x00001936:    2500        .%      MOVS     r5,#0
        0x00001938:    e218        ..      B        0x1d6c ; _printf_core + 1084
        0x0000193a:    2825        %(      CMP      r0,#0x25
        0x0000193c:    d177        w.      BNE      0x1a2e ; _printf_core + 254
        0x0000193e:    2400        .$      MOVS     r4,#0
        0x00001940:    4627        'F      MOV      r7,r4
        0x00001942:    49fd        .I      LDR      r1,[pc,#1012] ; [0x1d38] = 0x12809
        0x00001944:    9404        ..      STR      r4,[sp,#0x10]
        0x00001946:    e000        ..      B        0x194a ; _printf_core + 26
        0x00001948:    4304        .C      ORRS     r4,r4,r0
        0x0000194a:    1c76        v.      ADDS     r6,r6,#1
        0x0000194c:    7832        2x      LDRB     r2,[r6,#0]
        0x0000194e:    2001        .       MOVS     r0,#1
        0x00001950:    3a20         :      SUBS     r2,r2,#0x20
        0x00001952:    4090        .@      LSLS     r0,r0,r2
        0x00001954:    4208        .B      TST      r0,r1
        0x00001956:    d1f7        ..      BNE      0x1948 ; _printf_core + 24
        0x00001958:    7830        0x      LDRB     r0,[r6,#0]
        0x0000195a:    282a        *(      CMP      r0,#0x2a
        0x0000195c:    d00e        ..      BEQ      0x197c ; _printf_core + 76
        0x0000195e:    2202        ."      MOVS     r2,#2
        0x00001960:    7830        0x      LDRB     r0,[r6,#0]
        0x00001962:    4601        .F      MOV      r1,r0
        0x00001964:    3930        09      SUBS     r1,r1,#0x30
        0x00001966:    2909        .)      CMP      r1,#9
        0x00001968:    d816        ..      BHI      0x1998 ; _printf_core + 104
        0x0000196a:    9904        ..      LDR      r1,[sp,#0x10]
        0x0000196c:    230a        .#      MOVS     r3,#0xa
        0x0000196e:    4359        YC      MULS     r1,r3,r1
        0x00001970:    3930        09      SUBS     r1,r1,#0x30
        0x00001972:    1840        @.      ADDS     r0,r0,r1
        0x00001974:    4314        .C      ORRS     r4,r4,r2
        0x00001976:    1c76        v.      ADDS     r6,r6,#1
        0x00001978:    9004        ..      STR      r0,[sp,#0x10]
        0x0000197a:    e7f1        ..      B        0x1960 ; _printf_core + 48
        0x0000197c:    9818        ..      LDR      r0,[sp,#0x60]
        0x0000197e:    c802        ..      LDM      r0!,{r1}
        0x00001980:    9104        ..      STR      r1,[sp,#0x10]
        0x00001982:    9018        ..      STR      r0,[sp,#0x60]
        0x00001984:    2900        .)      CMP      r1,#0
        0x00001986:    da04        ..      BGE      0x1992 ; _printf_core + 98
        0x00001988:    2001        .       MOVS     r0,#1
        0x0000198a:    0340        @.      LSLS     r0,r0,#13
        0x0000198c:    4304        .C      ORRS     r4,r4,r0
        0x0000198e:    4248        HB      RSBS     r0,r1,#0
        0x00001990:    9004        ..      STR      r0,[sp,#0x10]
        0x00001992:    2002        .       MOVS     r0,#2
        0x00001994:    4304        .C      ORRS     r4,r4,r0
        0x00001996:    1c76        v.      ADDS     r6,r6,#1
        0x00001998:    7830        0x      LDRB     r0,[r6,#0]
        0x0000199a:    282e        .(      CMP      r0,#0x2e
        0x0000199c:    d114        ..      BNE      0x19c8 ; _printf_core + 152
        0x0000199e:    2004        .       MOVS     r0,#4
        0x000019a0:    4304        .C      ORRS     r4,r4,r0
        0x000019a2:    7870        px      LDRB     r0,[r6,#1]
        0x000019a4:    1c76        v.      ADDS     r6,r6,#1
        0x000019a6:    282a        *(      CMP      r0,#0x2a
        0x000019a8:    d109        ..      BNE      0x19be ; _printf_core + 142
        0x000019aa:    9818        ..      LDR      r0,[sp,#0x60]
        0x000019ac:    1c76        v.      ADDS     r6,r6,#1
        0x000019ae:    c880        ..      LDM      r0!,{r7}
        0x000019b0:    9018        ..      STR      r0,[sp,#0x60]
        0x000019b2:    e009        ..      B        0x19c8 ; _printf_core + 152
        0x000019b4:    210a        .!      MOVS     r1,#0xa
        0x000019b6:    434f        OC      MULS     r7,r1,r7
        0x000019b8:    3f30        0?      SUBS     r7,r7,#0x30
        0x000019ba:    19c7        ..      ADDS     r7,r0,r7
        0x000019bc:    1c76        v.      ADDS     r6,r6,#1
        0x000019be:    7830        0x      LDRB     r0,[r6,#0]
        0x000019c0:    4601        .F      MOV      r1,r0
        0x000019c2:    3930        09      SUBS     r1,r1,#0x30
        0x000019c4:    2909        .)      CMP      r1,#9
        0x000019c6:    d9f5        ..      BLS      0x19b4 ; _printf_core + 132
        0x000019c8:    7830        0x      LDRB     r0,[r6,#0]
        0x000019ca:    286c        l(      CMP      r0,#0x6c
        0x000019cc:    d010        ..      BEQ      0x19f0 ; _printf_core + 192
        0x000019ce:    dc06        ..      BGT      0x19de ; _printf_core + 174
        0x000019d0:    284c        L(      CMP      r0,#0x4c
        0x000019d2:    d01a        ..      BEQ      0x1a0a ; _printf_core + 218
        0x000019d4:    2868        h(      CMP      r0,#0x68
        0x000019d6:    d00e        ..      BEQ      0x19f6 ; _printf_core + 198
        0x000019d8:    286a        j(      CMP      r0,#0x6a
        0x000019da:    d117        ..      BNE      0x1a0c ; _printf_core + 220
        0x000019dc:    e004        ..      B        0x19e8 ; _printf_core + 184
        0x000019de:    2874        t(      CMP      r0,#0x74
        0x000019e0:    d013        ..      BEQ      0x1a0a ; _printf_core + 218
        0x000019e2:    287a        z(      CMP      r0,#0x7a
        0x000019e4:    d112        ..      BNE      0x1a0c ; _printf_core + 220
        0x000019e6:    e010        ..      B        0x1a0a ; _printf_core + 218
        0x000019e8:    2001        .       MOVS     r0,#1
        0x000019ea:    0540        @.      LSLS     r0,r0,#21
        0x000019ec:    4304        .C      ORRS     r4,r4,r0
        0x000019ee:    e00c        ..      B        0x1a0a ; _printf_core + 218
        0x000019f0:    2101        .!      MOVS     r1,#1
        0x000019f2:    0509        ..      LSLS     r1,r1,#20
        0x000019f4:    e001        ..      B        0x19fa ; _printf_core + 202
        0x000019f6:    2103        .!      MOVS     r1,#3
        0x000019f8:    0509        ..      LSLS     r1,r1,#20
        0x000019fa:    430c        .C      ORRS     r4,r4,r1
        0x000019fc:    7871        qx      LDRB     r1,[r6,#1]
        0x000019fe:    4281        .B      CMP      r1,r0
        0x00001a00:    d103        ..      BNE      0x1a0a ; _printf_core + 218
        0x00001a02:    2001        .       MOVS     r0,#1
        0x00001a04:    0500        ..      LSLS     r0,r0,#20
        0x00001a06:    1824        $.      ADDS     r4,r4,r0
        0x00001a08:    1c76        v.      ADDS     r6,r6,#1
        0x00001a0a:    1c76        v.      ADDS     r6,r6,#1
        0x00001a0c:    7830        0x      LDRB     r0,[r6,#0]
        0x00001a0e:    9011        ..      STR      r0,[sp,#0x44]
        0x00001a10:    2866        f(      CMP      r0,#0x66
        0x00001a12:    d00b        ..      BEQ      0x1a2c ; _printf_core + 252
        0x00001a14:    dc13        ..      BGT      0x1a3e ; _printf_core + 270
        0x00001a16:    2858        X(      CMP      r0,#0x58
        0x00001a18:    d07d        }.      BEQ      0x1b16 ; _printf_core + 486
        0x00001a1a:    dc09        ..      BGT      0x1a30 ; _printf_core + 256
        0x00001a1c:    2800        .(      CMP      r0,#0
        0x00001a1e:    d07b        {.      BEQ      0x1b18 ; _printf_core + 488
        0x00001a20:    2845        E(      CMP      r0,#0x45
        0x00001a22:    d0f6        ..      BEQ      0x1a12 ; _printf_core + 226
        0x00001a24:    2846        F(      CMP      r0,#0x46
        0x00001a26:    d0f4        ..      BEQ      0x1a12 ; _printf_core + 226
        0x00001a28:    2847        G(      CMP      r0,#0x47
        0x00001a2a:    d11a        ..      BNE      0x1a62 ; _printf_core + 306
        0x00001a2c:    e1a5        ..      B        0x1d7a ; _printf_core + 1098
        0x00001a2e:    e018        ..      B        0x1a62 ; _printf_core + 306
        0x00001a30:    2863        c(      CMP      r0,#0x63
        0x00001a32:    d035        5.      BEQ      0x1aa0 ; _printf_core + 368
        0x00001a34:    2864        d(      CMP      r0,#0x64
        0x00001a36:    d070        p.      BEQ      0x1b1a ; _printf_core + 490
        0x00001a38:    2865        e(      CMP      r0,#0x65
        0x00001a3a:    d112        ..      BNE      0x1a62 ; _printf_core + 306
        0x00001a3c:    e19d        ..      B        0x1d7a ; _printf_core + 1098
        0x00001a3e:    2870        p(      CMP      r0,#0x70
        0x00001a40:    d06c        l.      BEQ      0x1b1c ; _printf_core + 492
        0x00001a42:    dc08        ..      BGT      0x1a56 ; _printf_core + 294
        0x00001a44:    2867        g(      CMP      r0,#0x67
        0x00001a46:    d0f1        ..      BEQ      0x1a2c ; _printf_core + 252
        0x00001a48:    2869        i(      CMP      r0,#0x69
        0x00001a4a:    d07b        {.      BEQ      0x1b44 ; _printf_core + 532
        0x00001a4c:    286e        n(      CMP      r0,#0x6e
        0x00001a4e:    d00d        ..      BEQ      0x1a6c ; _printf_core + 316
        0x00001a50:    286f        o(      CMP      r0,#0x6f
        0x00001a52:    d106        ..      BNE      0x1a62 ; _printf_core + 306
        0x00001a54:    e0ba        ..      B        0x1bcc ; _printf_core + 668
        0x00001a56:    2873        s(      CMP      r0,#0x73
        0x00001a58:    d02e        ..      BEQ      0x1ab8 ; _printf_core + 392
        0x00001a5a:    2875        u(      CMP      r0,#0x75
        0x00001a5c:    d071        q.      BEQ      0x1b42 ; _printf_core + 530
        0x00001a5e:    2878        x(      CMP      r0,#0x78
        0x00001a60:    d059        Y.      BEQ      0x1b16 ; _printf_core + 486
        0x00001a62:    9a1a        ..      LDR      r2,[sp,#0x68]
        0x00001a64:    9919        ..      LDR      r1,[sp,#0x64]
        0x00001a66:    4790        .G      BLX      r2
        0x00001a68:    1c6d        m.      ADDS     r5,r5,#1
        0x00001a6a:    e17e        ~.      B        0x1d6a ; _printf_core + 1082
        0x00001a6c:    0260        `.      LSLS     r0,r4,#9
        0x00001a6e:    0f40        @.      LSRS     r0,r0,#29
        0x00001a70:    2802        .(      CMP      r0,#2
        0x00001a72:    d009        ..      BEQ      0x1a88 ; _printf_core + 344
        0x00001a74:    2803        .(      CMP      r0,#3
        0x00001a76:    d00d        ..      BEQ      0x1a94 ; _printf_core + 356
        0x00001a78:    2804        .(      CMP      r0,#4
        0x00001a7a:    9818        ..      LDR      r0,[sp,#0x60]
        0x00001a7c:    6801        .h      LDR      r1,[r0,#0]
        0x00001a7e:    d00d        ..      BEQ      0x1a9c ; _printf_core + 364
        0x00001a80:    600d        .`      STR      r5,[r1,#0]
        0x00001a82:    1d00        ..      ADDS     r0,r0,#4
        0x00001a84:    9018        ..      STR      r0,[sp,#0x60]
        0x00001a86:    e170        p.      B        0x1d6a ; _printf_core + 1082
        0x00001a88:    9818        ..      LDR      r0,[sp,#0x60]
        0x00001a8a:    17ea        ..      ASRS     r2,r5,#31
        0x00001a8c:    6801        .h      LDR      r1,[r0,#0]
        0x00001a8e:    600d        .`      STR      r5,[r1,#0]
        0x00001a90:    604a        J`      STR      r2,[r1,#4]
        0x00001a92:    e7f6        ..      B        0x1a82 ; _printf_core + 338
        0x00001a94:    9818        ..      LDR      r0,[sp,#0x60]
        0x00001a96:    6801        .h      LDR      r1,[r0,#0]
        0x00001a98:    800d        ..      STRH     r5,[r1,#0]
        0x00001a9a:    e7f2        ..      B        0x1a82 ; _printf_core + 338
        0x00001a9c:    700d        .p      STRB     r5,[r1,#0]
        0x00001a9e:    e7f0        ..      B        0x1a82 ; _printf_core + 338
        0x00001aa0:    9818        ..      LDR      r0,[sp,#0x60]
        0x00001aa2:    466a        jF      MOV      r2,sp
        0x00001aa4:    7801        .x      LDRB     r1,[r0,#0]
        0x00001aa6:    7211        .r      STRB     r1,[r2,#8]
        0x00001aa8:    1d00        ..      ADDS     r0,r0,#4
        0x00001aaa:    9018        ..      STR      r0,[sp,#0x60]
        0x00001aac:    2000        .       MOVS     r0,#0
        0x00001aae:    7250        Pr      STRB     r0,[r2,#9]
        0x00001ab0:    a802        ..      ADD      r0,sp,#8
        0x00001ab2:    9000        ..      STR      r0,[sp,#0]
        0x00001ab4:    2001        .       MOVS     r0,#1
        0x00001ab6:    e005        ..      B        0x1ac4 ; _printf_core + 404
        0x00001ab8:    9818        ..      LDR      r0,[sp,#0x60]
        0x00001aba:    c802        ..      LDM      r0!,{r1}
        0x00001abc:    9018        ..      STR      r0,[sp,#0x60]
        0x00001abe:    2000        .       MOVS     r0,#0
        0x00001ac0:    9100        ..      STR      r1,[sp,#0]
        0x00001ac2:    43c0        .C      MVNS     r0,r0
        0x00001ac4:    0761        a.      LSLS     r1,r4,#29
        0x00001ac6:    d50d        ..      BPL      0x1ae4 ; _printf_core + 436
        0x00001ac8:    2100        .!      MOVS     r1,#0
        0x00001aca:    e001        ..      B        0x1ad0 ; _printf_core + 416
        0x00001acc:    9901        ..      LDR      r1,[sp,#4]
        0x00001ace:    1c49        I.      ADDS     r1,r1,#1
        0x00001ad0:    9101        ..      STR      r1,[sp,#4]
        0x00001ad2:    42b9        .B      CMP      r1,r7
        0x00001ad4:    da12        ..      BGE      0x1afc ; _printf_core + 460
        0x00001ad6:    4281        .B      CMP      r1,r0
        0x00001ad8:    dbf8        ..      BLT      0x1acc ; _printf_core + 412
        0x00001ada:    9a00        ..      LDR      r2,[sp,#0]
        0x00001adc:    5c51        Q\      LDRB     r1,[r2,r1]
        0x00001ade:    2900        .)      CMP      r1,#0
        0x00001ae0:    d1f4        ..      BNE      0x1acc ; _printf_core + 412
        0x00001ae2:    e00b        ..      B        0x1afc ; _printf_core + 460
        0x00001ae4:    2100        .!      MOVS     r1,#0
        0x00001ae6:    e001        ..      B        0x1aec ; _printf_core + 444
        0x00001ae8:    9901        ..      LDR      r1,[sp,#4]
        0x00001aea:    1c49        I.      ADDS     r1,r1,#1
        0x00001aec:    9101        ..      STR      r1,[sp,#4]
        0x00001aee:    4281        .B      CMP      r1,r0
        0x00001af0:    dbfa        ..      BLT      0x1ae8 ; _printf_core + 440
        0x00001af2:    9a01        ..      LDR      r2,[sp,#4]
        0x00001af4:    9900        ..      LDR      r1,[sp,#0]
        0x00001af6:    5c89        .\      LDRB     r1,[r1,r2]
        0x00001af8:    2900        .)      CMP      r1,#0
        0x00001afa:    d1f5        ..      BNE      0x1ae8 ; _printf_core + 440
        0x00001afc:    9901        ..      LDR      r1,[sp,#4]
        0x00001afe:    9804        ..      LDR      r0,[sp,#0x10]
        0x00001b00:    9b1a        ..      LDR      r3,[sp,#0x68]
        0x00001b02:    1a47        G.      SUBS     r7,r0,r1
        0x00001b04:    4621        !F      MOV      r1,r4
        0x00001b06:    4638        8F      MOV      r0,r7
        0x00001b08:    9a19        ..      LDR      r2,[sp,#0x64]
        0x00001b0a:    f000fa97    ....    BL       _printf_pre_padding ; 0x203c
        0x00001b0e:    9901        ..      LDR      r1,[sp,#4]
        0x00001b10:    1940        @.      ADDS     r0,r0,r5
        0x00001b12:    1845        E.      ADDS     r5,r0,r1
        0x00001b14:    e00b        ..      B        0x1b2e ; _printf_core + 510
        0x00001b16:    e04f        O.      B        0x1bb8 ; _printf_core + 648
        0x00001b18:    e12c        ,.      B        0x1d74 ; _printf_core + 1092
        0x00001b1a:    e013        ..      B        0x1b44 ; _printf_core + 532
        0x00001b1c:    e04e        N.      B        0x1bbc ; _printf_core + 652
        0x00001b1e:    9800        ..      LDR      r0,[sp,#0]
        0x00001b20:    9900        ..      LDR      r1,[sp,#0]
        0x00001b22:    7800        .x      LDRB     r0,[r0,#0]
        0x00001b24:    1c49        I.      ADDS     r1,r1,#1
        0x00001b26:    9100        ..      STR      r1,[sp,#0]
        0x00001b28:    9a1a        ..      LDR      r2,[sp,#0x68]
        0x00001b2a:    9919        ..      LDR      r1,[sp,#0x64]
        0x00001b2c:    4790        .G      BLX      r2
        0x00001b2e:    9801        ..      LDR      r0,[sp,#4]
        0x00001b30:    1e40        @.      SUBS     r0,r0,#1
        0x00001b32:    9001        ..      STR      r0,[sp,#4]
        0x00001b34:    1c40        @.      ADDS     r0,r0,#1
        0x00001b36:    d1f2        ..      BNE      0x1b1e ; _printf_core + 494
        0x00001b38:    4621        !F      MOV      r1,r4
        0x00001b3a:    4638        8F      MOV      r0,r7
        0x00001b3c:    9b1a        ..      LDR      r3,[sp,#0x68]
        0x00001b3e:    9a19        ..      LDR      r2,[sp,#0x64]
        0x00001b40:    e110        ..      B        0x1d64 ; _printf_core + 1076
        0x00001b42:    e037        7.      B        0x1bb4 ; _printf_core + 644
        0x00001b44:    200a        .       MOVS     r0,#0xa
        0x00001b46:    2100        .!      MOVS     r1,#0
        0x00001b48:    9000        ..      STR      r0,[sp,#0]
        0x00001b4a:    9101        ..      STR      r1,[sp,#4]
        0x00001b4c:    0260        `.      LSLS     r0,r4,#9
        0x00001b4e:    0f41        A.      LSRS     r1,r0,#29
        0x00001b50:    2902        .)      CMP      r1,#2
        0x00001b52:    d007        ..      BEQ      0x1b64 ; _printf_core + 564
        0x00001b54:    9a18        ..      LDR      r2,[sp,#0x60]
        0x00001b56:    ca01        ..      LDM      r2!,{r0}
        0x00001b58:    9218        ..      STR      r2,[sp,#0x60]
        0x00001b5a:    17c2        ..      ASRS     r2,r0,#31
        0x00001b5c:    4694        .F      MOV      r12,r2
        0x00001b5e:    2903        .)      CMP      r1,#3
        0x00001b60:    d008        ..      BEQ      0x1b74 ; _printf_core + 580
        0x00001b62:    e00a        ..      B        0x1b7a ; _printf_core + 586
        0x00001b64:    9818        ..      LDR      r0,[sp,#0x60]
        0x00001b66:    1dc0        ..      ADDS     r0,r0,#7
        0x00001b68:    08c1        ..      LSRS     r1,r0,#3
        0x00001b6a:    00c9        ..      LSLS     r1,r1,#3
        0x00001b6c:    c905        ..      LDM      r1!,{r0,r2}
        0x00001b6e:    9118        ..      STR      r1,[sp,#0x60]
        0x00001b70:    4694        .F      MOV      r12,r2
        0x00001b72:    e007        ..      B        0x1b84 ; _printf_core + 596
        0x00001b74:    b200        ..      SXTH     r0,r0
        0x00001b76:    17c2        ..      ASRS     r2,r0,#31
        0x00001b78:    4694        .F      MOV      r12,r2
        0x00001b7a:    2904        .)      CMP      r1,#4
        0x00001b7c:    d102        ..      BNE      0x1b84 ; _printf_core + 596
        0x00001b7e:    b240        @.      SXTB     r0,r0
        0x00001b80:    17c1        ..      ASRS     r1,r0,#31
        0x00001b82:    468c        .F      MOV      r12,r1
        0x00001b84:    2200        ."      MOVS     r2,#0
        0x00001b86:    4661        aF      MOV      r1,r12
        0x00001b88:    4594        .E      CMP      r12,r2
        0x00001b8a:    da06        ..      BGE      0x1b9a ; _printf_core + 618
        0x00001b8c:    460a        .F      MOV      r2,r1
        0x00001b8e:    2100        .!      MOVS     r1,#0
        0x00001b90:    4240        @B      RSBS     r0,r0,#0
        0x00001b92:    4191        .A      SBCS     r1,r1,r2
        0x00001b94:    468c        .F      MOV      r12,r1
        0x00001b96:    212d        -!      MOVS     r1,#0x2d
        0x00001b98:    e002        ..      B        0x1ba0 ; _printf_core + 624
        0x00001b9a:    0521        !.      LSLS     r1,r4,#20
        0x00001b9c:    d504        ..      BPL      0x1ba8 ; _printf_core + 632
        0x00001b9e:    212b        +!      MOVS     r1,#0x2b
        0x00001ba0:    466a        jF      MOV      r2,sp
        0x00001ba2:    7311        .s      STRB     r1,[r2,#0xc]
        0x00001ba4:    2101        .!      MOVS     r1,#1
        0x00001ba6:    e003        ..      B        0x1bb0 ; _printf_core + 640
        0x00001ba8:    07e1        ..      LSLS     r1,r4,#31
        0x00001baa:    d001        ..      BEQ      0x1bb0 ; _printf_core + 640
        0x00001bac:    2120         !      MOVS     r1,#0x20
        0x00001bae:    e7f7        ..      B        0x1ba0 ; _printf_core + 624
        0x00001bb0:    9102        ..      STR      r1,[sp,#8]
        0x00001bb2:    e055        U.      B        0x1c60 ; _printf_core + 816
        0x00001bb4:    200a        .       MOVS     r0,#0xa
        0x00001bb6:    e00a        ..      B        0x1bce ; _printf_core + 670
        0x00001bb8:    2010        .       MOVS     r0,#0x10
        0x00001bba:    e008        ..      B        0x1bce ; _printf_core + 670
        0x00001bbc:    2010        .       MOVS     r0,#0x10
        0x00001bbe:    9000        ..      STR      r0,[sp,#0]
        0x00001bc0:    2100        .!      MOVS     r1,#0
        0x00001bc2:    2004        .       MOVS     r0,#4
        0x00001bc4:    4304        .C      ORRS     r4,r4,r0
        0x00001bc6:    9101        ..      STR      r1,[sp,#4]
        0x00001bc8:    2708        .'      MOVS     r7,#8
        0x00001bca:    e003        ..      B        0x1bd4 ; _printf_core + 676
        0x00001bcc:    2008        .       MOVS     r0,#8
        0x00001bce:    2100        .!      MOVS     r1,#0
        0x00001bd0:    9101        ..      STR      r1,[sp,#4]
        0x00001bd2:    9000        ..      STR      r0,[sp,#0]
        0x00001bd4:    0260        `.      LSLS     r0,r4,#9
        0x00001bd6:    0f41        A.      LSRS     r1,r0,#29
        0x00001bd8:    2902        .)      CMP      r1,#2
        0x00001bda:    d007        ..      BEQ      0x1bec ; _printf_core + 700
        0x00001bdc:    9a18        ..      LDR      r2,[sp,#0x60]
        0x00001bde:    ca01        ..      LDM      r2!,{r0}
        0x00001be0:    9218        ..      STR      r2,[sp,#0x60]
        0x00001be2:    2200        ."      MOVS     r2,#0
        0x00001be4:    4694        .F      MOV      r12,r2
        0x00001be6:    2903        .)      CMP      r1,#3
        0x00001be8:    d008        ..      BEQ      0x1bfc ; _printf_core + 716
        0x00001bea:    e008        ..      B        0x1bfe ; _printf_core + 718
        0x00001bec:    9818        ..      LDR      r0,[sp,#0x60]
        0x00001bee:    1dc0        ..      ADDS     r0,r0,#7
        0x00001bf0:    08c1        ..      LSRS     r1,r0,#3
        0x00001bf2:    00c9        ..      LSLS     r1,r1,#3
        0x00001bf4:    c905        ..      LDM      r1!,{r0,r2}
        0x00001bf6:    9118        ..      STR      r1,[sp,#0x60]
        0x00001bf8:    4694        .F      MOV      r12,r2
        0x00001bfa:    e003        ..      B        0x1c04 ; _printf_core + 724
        0x00001bfc:    b280        ..      UXTH     r0,r0
        0x00001bfe:    2904        .)      CMP      r1,#4
        0x00001c00:    d100        ..      BNE      0x1c04 ; _printf_core + 724
        0x00001c02:    b2c0        ..      UXTB     r0,r0
        0x00001c04:    2100        .!      MOVS     r1,#0
        0x00001c06:    9102        ..      STR      r1,[sp,#8]
        0x00001c08:    0721        !.      LSLS     r1,r4,#28
        0x00001c0a:    d529        ).      BPL      0x1c60 ; _printf_core + 816
        0x00001c0c:    9911        ..      LDR      r1,[sp,#0x44]
        0x00001c0e:    2970        p)      CMP      r1,#0x70
        0x00001c10:    d006        ..      BEQ      0x1c20 ; _printf_core + 752
        0x00001c12:    9a00        ..      LDR      r2,[sp,#0]
        0x00001c14:    2110        .!      MOVS     r1,#0x10
        0x00001c16:    9b01        ..      LDR      r3,[sp,#4]
        0x00001c18:    404a        J@      EORS     r2,r2,r1
        0x00001c1a:    431a        .C      ORRS     r2,r2,r3
        0x00001c1c:    d005        ..      BEQ      0x1c2a ; _printf_core + 762
        0x00001c1e:    e00e        ..      B        0x1c3e ; _printf_core + 782
        0x00001c20:    2140        @!      MOVS     r1,#0x40
        0x00001c22:    466a        jF      MOV      r2,sp
        0x00001c24:    7311        .s      STRB     r1,[r2,#0xc]
        0x00001c26:    2101        .!      MOVS     r1,#1
        0x00001c28:    e008        ..      B        0x1c3c ; _printf_core + 780
        0x00001c2a:    4661        aF      MOV      r1,r12
        0x00001c2c:    4301        .C      ORRS     r1,r1,r0
        0x00001c2e:    d006        ..      BEQ      0x1c3e ; _printf_core + 782
        0x00001c30:    2130        0!      MOVS     r1,#0x30
        0x00001c32:    466a        jF      MOV      r2,sp
        0x00001c34:    7311        .s      STRB     r1,[r2,#0xc]
        0x00001c36:    9911        ..      LDR      r1,[sp,#0x44]
        0x00001c38:    7351        Qs      STRB     r1,[r2,#0xd]
        0x00001c3a:    2102        .!      MOVS     r1,#2
        0x00001c3c:    9102        ..      STR      r1,[sp,#8]
        0x00001c3e:    9a00        ..      LDR      r2,[sp,#0]
        0x00001c40:    2108        .!      MOVS     r1,#8
        0x00001c42:    9b01        ..      LDR      r3,[sp,#4]
        0x00001c44:    404a        J@      EORS     r2,r2,r1
        0x00001c46:    431a        .C      ORRS     r2,r2,r3
        0x00001c48:    d10a        ..      BNE      0x1c60 ; _printf_core + 816
        0x00001c4a:    4661        aF      MOV      r1,r12
        0x00001c4c:    4301        .C      ORRS     r1,r1,r0
        0x00001c4e:    d101        ..      BNE      0x1c54 ; _printf_core + 804
        0x00001c50:    0761        a.      LSLS     r1,r4,#29
        0x00001c52:    d505        ..      BPL      0x1c60 ; _printf_core + 816
        0x00001c54:    2130        0!      MOVS     r1,#0x30
        0x00001c56:    466a        jF      MOV      r2,sp
        0x00001c58:    7311        .s      STRB     r1,[r2,#0xc]
        0x00001c5a:    2101        .!      MOVS     r1,#1
        0x00001c5c:    1e7f        ..      SUBS     r7,r7,#1
        0x00001c5e:    9102        ..      STR      r1,[sp,#8]
        0x00001c60:    9911        ..      LDR      r1,[sp,#0x44]
        0x00001c62:    2958        X)      CMP      r1,#0x58
        0x00001c64:    d004        ..      BEQ      0x1c70 ; _printf_core + 832
        0x00001c66:    a135        5.      ADR      r1,{pc}+0xd6 ; 0x1d3c
        0x00001c68:    910e        ..      STR      r1,[sp,#0x38]
        0x00001c6a:    a90d        ..      ADD      r1,sp,#0x34
        0x00001c6c:    910d        ..      STR      r1,[sp,#0x34]
        0x00001c6e:    e00d        ..      B        0x1c8c ; _printf_core + 860
        0x00001c70:    a137        7.      ADR      r1,{pc}+0xe0 ; 0x1d50
        0x00001c72:    e7f9        ..      B        0x1c68 ; _printf_core + 824
        0x00001c74:    4661        aF      MOV      r1,r12
        0x00001c76:    9b01        ..      LDR      r3,[sp,#4]
        0x00001c78:    9a00        ..      LDR      r2,[sp,#0]
        0x00001c7a:    f7fefd20    .. .    BL       __aeabi_uldivmod ; 0x6be
        0x00001c7e:    9b0e        ..      LDR      r3,[sp,#0x38]
        0x00001c80:    468c        .F      MOV      r12,r1
        0x00001c82:    5c9b        .\      LDRB     r3,[r3,r2]
        0x00001c84:    9a0d        ..      LDR      r2,[sp,#0x34]
        0x00001c86:    1e52        R.      SUBS     r2,r2,#1
        0x00001c88:    920d        ..      STR      r2,[sp,#0x34]
        0x00001c8a:    7013        .p      STRB     r3,[r2,#0]
        0x00001c8c:    4661        aF      MOV      r1,r12
        0x00001c8e:    4301        .C      ORRS     r1,r1,r0
        0x00001c90:    d1f0        ..      BNE      0x1c74 ; _printf_core + 836
        0x00001c92:    980d        ..      LDR      r0,[sp,#0x34]
        0x00001c94:    a905        ..      ADD      r1,sp,#0x14
        0x00001c96:    1a08        ..      SUBS     r0,r1,r0
        0x00001c98:    3020         0      ADDS     r0,r0,#0x20
        0x00001c9a:    9001        ..      STR      r0,[sp,#4]
        0x00001c9c:    0760        `.      LSLS     r0,r4,#29
        0x00001c9e:    d503        ..      BPL      0x1ca8 ; _printf_core + 888
        0x00001ca0:    2001        .       MOVS     r0,#1
        0x00001ca2:    0400        ..      LSLS     r0,r0,#16
        0x00001ca4:    4384        .C      BICS     r4,r4,r0
        0x00001ca6:    e000        ..      B        0x1caa ; _printf_core + 890
        0x00001ca8:    2701        .'      MOVS     r7,#1
        0x00001caa:    9801        ..      LDR      r0,[sp,#4]
        0x00001cac:    4287        .B      CMP      r7,r0
        0x00001cae:    dd01        ..      BLE      0x1cb4 ; _printf_core + 900
        0x00001cb0:    1a38        8.      SUBS     r0,r7,r0
        0x00001cb2:    e000        ..      B        0x1cb6 ; _printf_core + 902
        0x00001cb4:    2000        .       MOVS     r0,#0
        0x00001cb6:    9901        ..      LDR      r1,[sp,#4]
        0x00001cb8:    9000        ..      STR      r0,[sp,#0]
        0x00001cba:    1841        A.      ADDS     r1,r0,r1
        0x00001cbc:    9802        ..      LDR      r0,[sp,#8]
        0x00001cbe:    1809        ..      ADDS     r1,r1,r0
        0x00001cc0:    9804        ..      LDR      r0,[sp,#0x10]
        0x00001cc2:    1a40        @.      SUBS     r0,r0,r1
        0x00001cc4:    9004        ..      STR      r0,[sp,#0x10]
        0x00001cc6:    03e0        ..      LSLS     r0,r4,#15
        0x00001cc8:    d406        ..      BMI      0x1cd8 ; _printf_core + 936
        0x00001cca:    4621        !F      MOV      r1,r4
        0x00001ccc:    9b1a        ..      LDR      r3,[sp,#0x68]
        0x00001cce:    9a19        ..      LDR      r2,[sp,#0x64]
        0x00001cd0:    9804        ..      LDR      r0,[sp,#0x10]
        0x00001cd2:    f000f9b3    ....    BL       _printf_pre_padding ; 0x203c
        0x00001cd6:    1945        E.      ADDS     r5,r0,r5
        0x00001cd8:    2700        .'      MOVS     r7,#0
        0x00001cda:    e006        ..      B        0x1cea ; _printf_core + 954
        0x00001cdc:    a803        ..      ADD      r0,sp,#0xc
        0x00001cde:    9a1a        ..      LDR      r2,[sp,#0x68]
        0x00001ce0:    5dc0        .]      LDRB     r0,[r0,r7]
        0x00001ce2:    9919        ..      LDR      r1,[sp,#0x64]
        0x00001ce4:    4790        .G      BLX      r2
        0x00001ce6:    1c6d        m.      ADDS     r5,r5,#1
        0x00001ce8:    1c7f        ..      ADDS     r7,r7,#1
        0x00001cea:    9802        ..      LDR      r0,[sp,#8]
        0x00001cec:    4287        .B      CMP      r7,r0
        0x00001cee:    dbf5        ..      BLT      0x1cdc ; _printf_core + 940
        0x00001cf0:    03e0        ..      LSLS     r0,r4,#15
        0x00001cf2:    d50c        ..      BPL      0x1d0e ; _printf_core + 990
        0x00001cf4:    4621        !F      MOV      r1,r4
        0x00001cf6:    9b1a        ..      LDR      r3,[sp,#0x68]
        0x00001cf8:    9a19        ..      LDR      r2,[sp,#0x64]
        0x00001cfa:    9804        ..      LDR      r0,[sp,#0x10]
        0x00001cfc:    f000f99e    ....    BL       _printf_pre_padding ; 0x203c
        0x00001d00:    1945        E.      ADDS     r5,r0,r5
        0x00001d02:    e004        ..      B        0x1d0e ; _printf_core + 990
        0x00001d04:    9a1a        ..      LDR      r2,[sp,#0x68]
        0x00001d06:    2030        0       MOVS     r0,#0x30
        0x00001d08:    9919        ..      LDR      r1,[sp,#0x64]
        0x00001d0a:    4790        .G      BLX      r2
        0x00001d0c:    1c6d        m.      ADDS     r5,r5,#1
        0x00001d0e:    9900        ..      LDR      r1,[sp,#0]
        0x00001d10:    1e48        H.      SUBS     r0,r1,#1
        0x00001d12:    9000        ..      STR      r0,[sp,#0]
        0x00001d14:    2900        .)      CMP      r1,#0
        0x00001d16:    dcf5        ..      BGT      0x1d04 ; _printf_core + 980
        0x00001d18:    e008        ..      B        0x1d2c ; _printf_core + 1020
        0x00001d1a:    980d        ..      LDR      r0,[sp,#0x34]
        0x00001d1c:    990d        ..      LDR      r1,[sp,#0x34]
        0x00001d1e:    7800        .x      LDRB     r0,[r0,#0]
        0x00001d20:    1c49        I.      ADDS     r1,r1,#1
        0x00001d22:    910d        ..      STR      r1,[sp,#0x34]
        0x00001d24:    9a1a        ..      LDR      r2,[sp,#0x68]
        0x00001d26:    9919        ..      LDR      r1,[sp,#0x64]
        0x00001d28:    4790        .G      BLX      r2
        0x00001d2a:    1c6d        m.      ADDS     r5,r5,#1
        0x00001d2c:    9901        ..      LDR      r1,[sp,#4]
        0x00001d2e:    1e48        H.      SUBS     r0,r1,#1
        0x00001d30:    9001        ..      STR      r0,[sp,#4]
        0x00001d32:    2900        .)      CMP      r1,#0
        0x00001d34:    dcf1        ..      BGT      0x1d1a ; _printf_core + 1002
        0x00001d36:    e163        c.      B        0x2000 ; _printf_core + 1744
    $d
        0x00001d38:    00012809    .(..    DCD    75785
        0x00001d3c:    33323130    0123    DCD    858927408
        0x00001d40:    37363534    4567    DCD    926299444
        0x00001d44:    62613938    89ab    DCD    1650538808
        0x00001d48:    66656463    cdef    DCD    1717920867
        0x00001d4c:    00000000    ....    DCD    0
        0x00001d50:    33323130    0123    DCD    858927408
        0x00001d54:    37363534    4567    DCD    926299444
        0x00001d58:    42413938    89AB    DCD    1111570744
        0x00001d5c:    46454443    CDEF    DCD    1178944579
        0x00001d60:    00000000    ....    DCD    0
    $t
        0x00001d64:    f000f95a    ..Z.    BL       _printf_post_padding ; 0x201c
        0x00001d68:    1945        E.      ADDS     r5,r0,r5
        0x00001d6a:    1c76        v.      ADDS     r6,r6,#1
        0x00001d6c:    7830        0x      LDRB     r0,[r6,#0]
        0x00001d6e:    2800        .(      CMP      r0,#0
        0x00001d70:    d000        ..      BEQ      0x1d74 ; _printf_core + 1092
        0x00001d72:    e5e2        ..      B        0x193a ; _printf_core + 10
        0x00001d74:    4628        (F      MOV      r0,r5
        0x00001d76:    b01b        ..      ADD      sp,sp,#0x6c
        0x00001d78:    bdf0        ..      POP      {r4-r7,pc}
        0x00001d7a:    0760        `.      LSLS     r0,r4,#29
        0x00001d7c:    d400        ..      BMI      0x1d80 ; _printf_core + 1104
        0x00001d7e:    2706        .'      MOVS     r7,#6
        0x00001d80:    9818        ..      LDR      r0,[sp,#0x60]
        0x00001d82:    1dc0        ..      ADDS     r0,r0,#7
        0x00001d84:    08c1        ..      LSRS     r1,r0,#3
        0x00001d86:    00c9        ..      LSLS     r1,r1,#3
        0x00001d88:    6848        Hh      LDR      r0,[r1,#4]
        0x00001d8a:    680a        .h      LDR      r2,[r1,#0]
        0x00001d8c:    3108        .1      ADDS     r1,r1,#8
        0x00001d8e:    0fc3        ..      LSRS     r3,r0,#31
        0x00001d90:    07db        ..      LSLS     r3,r3,#31
        0x00001d92:    9118        ..      STR      r1,[sp,#0x60]
        0x00001d94:    0019        ..      MOVS     r1,r3
        0x00001d96:    d001        ..      BEQ      0x1d9c ; _printf_core + 1132
        0x00001d98:    a19c        ..      ADR      r1,{pc}+0x274 ; 0x200c
        0x00001d9a:    e008        ..      B        0x1dae ; _printf_core + 1150
        0x00001d9c:    0521        !.      LSLS     r1,r4,#20
        0x00001d9e:    d501        ..      BPL      0x1da4 ; _printf_core + 1140
        0x00001da0:    a19b        ..      ADR      r1,{pc}+0x270 ; 0x2010
        0x00001da2:    e004        ..      B        0x1dae ; _printf_core + 1150
        0x00001da4:    07e1        ..      LSLS     r1,r4,#31
        0x00001da6:    d001        ..      BEQ      0x1dac ; _printf_core + 1148
        0x00001da8:    a19a        ..      ADR      r1,{pc}+0x26c ; 0x2014
        0x00001daa:    e000        ..      B        0x1dae ; _printf_core + 1150
        0x00001dac:    a19a        ..      ADR      r1,{pc}+0x26c ; 0x2018
        0x00001dae:    0043        C.      LSLS     r3,r0,#1
        0x00001db0:    9811        ..      LDR      r0,[sp,#0x44]
        0x00001db2:    085b        [.      LSRS     r3,r3,#1
        0x00001db4:    9110        ..      STR      r1,[sp,#0x40]
        0x00001db6:    2865        e(      CMP      r0,#0x65
        0x00001db8:    d00c        ..      BEQ      0x1dd4 ; _printf_core + 1188
        0x00001dba:    dc06        ..      BGT      0x1dca ; _printf_core + 1178
        0x00001dbc:    2845        E(      CMP      r0,#0x45
        0x00001dbe:    d009        ..      BEQ      0x1dd4 ; _printf_core + 1188
        0x00001dc0:    2846        F(      CMP      r0,#0x46
        0x00001dc2:    d01d        ..      BEQ      0x1e00 ; _printf_core + 1232
        0x00001dc4:    2847        G(      CMP      r0,#0x47
        0x00001dc6:    d141        A.      BNE      0x1e4c ; _printf_core + 1308
        0x00001dc8:    e041        A.      B        0x1e4e ; _printf_core + 1310
        0x00001dca:    2866        f(      CMP      r0,#0x66
        0x00001dcc:    d018        ..      BEQ      0x1e00 ; _printf_core + 1232
        0x00001dce:    2867        g(      CMP      r0,#0x67
        0x00001dd0:    d13c        <.      BNE      0x1e4c ; _printf_core + 1308
        0x00001dd2:    e03c        <.      B        0x1e4e ; _printf_core + 1310
        0x00001dd4:    2100        .!      MOVS     r1,#0
        0x00001dd6:    2f11        ./      CMP      r7,#0x11
        0x00001dd8:    db01        ..      BLT      0x1dde ; _printf_core + 1198
        0x00001dda:    2011        .       MOVS     r0,#0x11
        0x00001ddc:    e000        ..      B        0x1de0 ; _printf_core + 1200
        0x00001dde:    1c78        x.      ADDS     r0,r7,#1
        0x00001de0:    9101        ..      STR      r1,[sp,#4]
        0x00001de2:    9000        ..      STR      r0,[sp,#0]
        0x00001de4:    a908        ..      ADD      r1,sp,#0x20
        0x00001de6:    a811        ..      ADD      r0,sp,#0x44
        0x00001de8:    f7fffce8    ....    BL       _fp_digits ; 0x17bc
        0x00001dec:    9913        ..      LDR      r1,[sp,#0x4c]
        0x00001dee:    9105        ..      STR      r1,[sp,#0x14]
        0x00001df0:    2100        .!      MOVS     r1,#0
        0x00001df2:    9a11        ..      LDR      r2,[sp,#0x44]
        0x00001df4:    9215        ..      STR      r2,[sp,#0x54]
        0x00001df6:    1c7f        ..      ADDS     r7,r7,#1
        0x00001df8:    9812        ..      LDR      r0,[sp,#0x48]
        0x00001dfa:    9701        ..      STR      r7,[sp,#4]
        0x00001dfc:    9100        ..      STR      r1,[sp,#0]
        0x00001dfe:    e050        P.      B        0x1ea2 ; _printf_core + 1394
        0x00001e00:    2001        .       MOVS     r0,#1
        0x00001e02:    07c0        ..      LSLS     r0,r0,#31
        0x00001e04:    9003        ..      STR      r0,[sp,#0xc]
        0x00001e06:    2001        .       MOVS     r0,#1
        0x00001e08:    9001        ..      STR      r0,[sp,#4]
        0x00001e0a:    a908        ..      ADD      r1,sp,#0x20
        0x00001e0c:    9700        ..      STR      r7,[sp,#0]
        0x00001e0e:    a811        ..      ADD      r0,sp,#0x44
        0x00001e10:    f7fffcd4    ....    BL       _fp_digits ; 0x17bc
        0x00001e14:    9a13        ..      LDR      r2,[sp,#0x4c]
        0x00001e16:    9914        ..      LDR      r1,[sp,#0x50]
        0x00001e18:    9205        ..      STR      r2,[sp,#0x14]
        0x00001e1a:    2200        ."      MOVS     r2,#0
        0x00001e1c:    9b11        ..      LDR      r3,[sp,#0x44]
        0x00001e1e:    9200        ..      STR      r2,[sp,#0]
        0x00001e20:    9812        ..      LDR      r0,[sp,#0x48]
        0x00001e22:    9315        ..      STR      r3,[sp,#0x54]
        0x00001e24:    9a05        ..      LDR      r2,[sp,#0x14]
        0x00001e26:    9201        ..      STR      r2,[sp,#4]
        0x00001e28:    2900        .)      CMP      r1,#0
        0x00001e2a:    d001        ..      BEQ      0x1e30 ; _printf_core + 1280
        0x00001e2c:    4610        .F      MOV      r0,r2
        0x00001e2e:    e002        ..      B        0x1e36 ; _printf_core + 1286
        0x00001e30:    1c79        y.      ADDS     r1,r7,#1
        0x00001e32:    1840        @.      ADDS     r0,r0,r1
        0x00001e34:    9001        ..      STR      r0,[sp,#4]
        0x00001e36:    1a38        8.      SUBS     r0,r7,r0
        0x00001e38:    d501        ..      BPL      0x1e3e ; _printf_core + 1294
        0x00001e3a:    9801        ..      LDR      r0,[sp,#4]
        0x00001e3c:    e004        ..      B        0x1e48 ; _printf_core + 1304
        0x00001e3e:    4240        @B      RSBS     r0,r0,#0
        0x00001e40:    1e40        @.      SUBS     r0,r0,#1
        0x00001e42:    9000        ..      STR      r0,[sp,#0]
        0x00001e44:    1c78        x.      ADDS     r0,r7,#1
        0x00001e46:    9001        ..      STR      r0,[sp,#4]
        0x00001e48:    1bc0        ..      SUBS     r0,r0,r7
        0x00001e4a:    9002        ..      STR      r0,[sp,#8]
        0x00001e4c:    e043        C.      B        0x1ed6 ; _printf_core + 1446
        0x00001e4e:    2f01        ./      CMP      r7,#1
        0x00001e50:    da00        ..      BGE      0x1e54 ; _printf_core + 1316
        0x00001e52:    2701        .'      MOVS     r7,#1
        0x00001e54:    2100        .!      MOVS     r1,#0
        0x00001e56:    2f11        ./      CMP      r7,#0x11
        0x00001e58:    dd01        ..      BLE      0x1e5e ; _printf_core + 1326
        0x00001e5a:    2011        .       MOVS     r0,#0x11
        0x00001e5c:    e000        ..      B        0x1e60 ; _printf_core + 1328
        0x00001e5e:    4638        8F      MOV      r0,r7
        0x00001e60:    9101        ..      STR      r1,[sp,#4]
        0x00001e62:    9000        ..      STR      r0,[sp,#0]
        0x00001e64:    a908        ..      ADD      r1,sp,#0x20
        0x00001e66:    a811        ..      ADD      r0,sp,#0x44
        0x00001e68:    f7fffca8    ....    BL       _fp_digits ; 0x17bc
        0x00001e6c:    9913        ..      LDR      r1,[sp,#0x4c]
        0x00001e6e:    9105        ..      STR      r1,[sp,#0x14]
        0x00001e70:    9a11        ..      LDR      r2,[sp,#0x44]
        0x00001e72:    2100        .!      MOVS     r1,#0
        0x00001e74:    9812        ..      LDR      r0,[sp,#0x48]
        0x00001e76:    9215        ..      STR      r2,[sp,#0x54]
        0x00001e78:    9100        ..      STR      r1,[sp,#0]
        0x00001e7a:    9701        ..      STR      r7,[sp,#4]
        0x00001e7c:    0721        !.      LSLS     r1,r4,#28
        0x00001e7e:    d40c        ..      BMI      0x1e9a ; _printf_core + 1386
        0x00001e80:    9905        ..      LDR      r1,[sp,#0x14]
        0x00001e82:    42b9        .B      CMP      r1,r7
        0x00001e84:    db01        ..      BLT      0x1e8a ; _printf_core + 1370
        0x00001e86:    9901        ..      LDR      r1,[sp,#4]
        0x00001e88:    e000        ..      B        0x1e8c ; _printf_core + 1372
        0x00001e8a:    9101        ..      STR      r1,[sp,#4]
        0x00001e8c:    2901        .)      CMP      r1,#1
        0x00001e8e:    dd04        ..      BLE      0x1e9a ; _printf_core + 1386
        0x00001e90:    9a15        ..      LDR      r2,[sp,#0x54]
        0x00001e92:    1e49        I.      SUBS     r1,r1,#1
        0x00001e94:    5c51        Q\      LDRB     r1,[r2,r1]
        0x00001e96:    2930        0)      CMP      r1,#0x30
        0x00001e98:    d006        ..      BEQ      0x1ea8 ; _printf_core + 1400
        0x00001e9a:    42b8        .B      CMP      r0,r7
        0x00001e9c:    da01        ..      BGE      0x1ea2 ; _printf_core + 1394
        0x00001e9e:    1d01        ..      ADDS     r1,r0,#4
        0x00001ea0:    da05        ..      BGE      0x1eae ; _printf_core + 1406
        0x00001ea2:    2101        .!      MOVS     r1,#1
        0x00001ea4:    9102        ..      STR      r1,[sp,#8]
        0x00001ea6:    e015        ..      B        0x1ed4 ; _printf_core + 1444
        0x00001ea8:    9901        ..      LDR      r1,[sp,#4]
        0x00001eaa:    1e49        I.      SUBS     r1,r1,#1
        0x00001eac:    e7ed        ..      B        0x1e8a ; _printf_core + 1370
        0x00001eae:    2800        .(      CMP      r0,#0
        0x00001eb0:    dc05        ..      BGT      0x1ebe ; _printf_core + 1422
        0x00001eb2:    9900        ..      LDR      r1,[sp,#0]
        0x00001eb4:    1841        A.      ADDS     r1,r0,r1
        0x00001eb6:    9100        ..      STR      r1,[sp,#0]
        0x00001eb8:    9901        ..      LDR      r1,[sp,#4]
        0x00001eba:    1a09        ..      SUBS     r1,r1,r0
        0x00001ebc:    e003        ..      B        0x1ec6 ; _printf_core + 1430
        0x00001ebe:    9a01        ..      LDR      r2,[sp,#4]
        0x00001ec0:    1c41        A.      ADDS     r1,r0,#1
        0x00001ec2:    4291        .B      CMP      r1,r2
        0x00001ec4:    dd00        ..      BLE      0x1ec8 ; _printf_core + 1432
        0x00001ec6:    9101        ..      STR      r1,[sp,#4]
        0x00001ec8:    9900        ..      LDR      r1,[sp,#0]
        0x00001eca:    1a40        @.      SUBS     r0,r0,r1
        0x00001ecc:    1c40        @.      ADDS     r0,r0,#1
        0x00001ece:    9002        ..      STR      r0,[sp,#8]
        0x00001ed0:    2001        .       MOVS     r0,#1
        0x00001ed2:    07c0        ..      LSLS     r0,r0,#31
        0x00001ed4:    9003        ..      STR      r0,[sp,#0xc]
        0x00001ed6:    0720         .      LSLS     r0,r4,#28
        0x00001ed8:    d406        ..      BMI      0x1ee8 ; _printf_core + 1464
        0x00001eda:    9902        ..      LDR      r1,[sp,#8]
        0x00001edc:    9801        ..      LDR      r0,[sp,#4]
        0x00001ede:    4281        .B      CMP      r1,r0
        0x00001ee0:    db02        ..      BLT      0x1ee8 ; _printf_core + 1464
        0x00001ee2:    2000        .       MOVS     r0,#0
        0x00001ee4:    43c0        .C      MVNS     r0,r0
        0x00001ee6:    9002        ..      STR      r0,[sp,#8]
        0x00001ee8:    2000        .       MOVS     r0,#0
        0x00001eea:    4669        iF      MOV      r1,sp
        0x00001eec:    77c8        .w      STRB     r0,[r1,#0x1f]
        0x00001eee:    af07        ..      ADD      r7,sp,#0x1c
        0x00001ef0:    2101        .!      MOVS     r1,#1
        0x00001ef2:    9803        ..      LDR      r0,[sp,#0xc]
        0x00001ef4:    3703        .7      ADDS     r7,#3
        0x00001ef6:    07c9        ..      LSLS     r1,r1,#31
        0x00001ef8:    4288        .B      CMP      r0,r1
        0x00001efa:    d024        $.      BEQ      0x1f46 ; _printf_core + 1558
        0x00001efc:    2002        .       MOVS     r0,#2
        0x00001efe:    9011        ..      STR      r0,[sp,#0x44]
        0x00001f00:    202b        +       MOVS     r0,#0x2b
        0x00001f02:    9012        ..      STR      r0,[sp,#0x48]
        0x00001f04:    9803        ..      LDR      r0,[sp,#0xc]
        0x00001f06:    2800        .(      CMP      r0,#0
        0x00001f08:    da0c        ..      BGE      0x1f24 ; _printf_core + 1524
        0x00001f0a:    4240        @B      RSBS     r0,r0,#0
        0x00001f0c:    9003        ..      STR      r0,[sp,#0xc]
        0x00001f0e:    202d        -       MOVS     r0,#0x2d
        0x00001f10:    9012        ..      STR      r0,[sp,#0x48]
        0x00001f12:    e007        ..      B        0x1f24 ; _printf_core + 1524
        0x00001f14:    210a        .!      MOVS     r1,#0xa
        0x00001f16:    9803        ..      LDR      r0,[sp,#0xc]
        0x00001f18:    f7fef8d8    ....    BL       __aeabi_uidiv ; 0xcc
        0x00001f1c:    3130        01      ADDS     r1,r1,#0x30
        0x00001f1e:    1e7f        ..      SUBS     r7,r7,#1
        0x00001f20:    9003        ..      STR      r0,[sp,#0xc]
        0x00001f22:    7039        9p      STRB     r1,[r7,#0]
        0x00001f24:    9911        ..      LDR      r1,[sp,#0x44]
        0x00001f26:    1e48        H.      SUBS     r0,r1,#1
        0x00001f28:    9011        ..      STR      r0,[sp,#0x44]
        0x00001f2a:    2900        .)      CMP      r1,#0
        0x00001f2c:    dcf2        ..      BGT      0x1f14 ; _printf_core + 1508
        0x00001f2e:    9803        ..      LDR      r0,[sp,#0xc]
        0x00001f30:    2800        .(      CMP      r0,#0
        0x00001f32:    d1ef        ..      BNE      0x1f14 ; _printf_core + 1508
        0x00001f34:    1e79        y.      SUBS     r1,r7,#1
        0x00001f36:    9812        ..      LDR      r0,[sp,#0x48]
        0x00001f38:    7008        .p      STRB     r0,[r1,#0]
        0x00001f3a:    7830        0x      LDRB     r0,[r6,#0]
        0x00001f3c:    2120         !      MOVS     r1,#0x20
        0x00001f3e:    4008        .@      ANDS     r0,r0,r1
        0x00001f40:    3045        E0      ADDS     r0,r0,#0x45
        0x00001f42:    1ebf        ..      SUBS     r7,r7,#2
        0x00001f44:    7038        8p      STRB     r0,[r7,#0]
        0x00001f46:    a806        ..      ADD      r0,sp,#0x18
        0x00001f48:    1bc0        ..      SUBS     r0,r0,r7
        0x00001f4a:    1dc0        ..      ADDS     r0,r0,#7
        0x00001f4c:    9003        ..      STR      r0,[sp,#0xc]
        0x00001f4e:    9810        ..      LDR      r0,[sp,#0x40]
        0x00001f50:    7800        .x      LDRB     r0,[r0,#0]
        0x00001f52:    2800        .(      CMP      r0,#0
        0x00001f54:    d000        ..      BEQ      0x1f58 ; _printf_core + 1576
        0x00001f56:    2001        .       MOVS     r0,#1
        0x00001f58:    9901        ..      LDR      r1,[sp,#4]
        0x00001f5a:    1841        A.      ADDS     r1,r0,r1
        0x00001f5c:    9802        ..      LDR      r0,[sp,#8]
        0x00001f5e:    17c0        ..      ASRS     r0,r0,#31
        0x00001f60:    1809        ..      ADDS     r1,r1,r0
        0x00001f62:    9803        ..      LDR      r0,[sp,#0xc]
        0x00001f64:    1809        ..      ADDS     r1,r1,r0
        0x00001f66:    9804        ..      LDR      r0,[sp,#0x10]
        0x00001f68:    1a40        @.      SUBS     r0,r0,r1
        0x00001f6a:    1e40        @.      SUBS     r0,r0,#1
        0x00001f6c:    9004        ..      STR      r0,[sp,#0x10]
        0x00001f6e:    03e0        ..      LSLS     r0,r4,#15
        0x00001f70:    d406        ..      BMI      0x1f80 ; _printf_core + 1616
        0x00001f72:    4621        !F      MOV      r1,r4
        0x00001f74:    9b1a        ..      LDR      r3,[sp,#0x68]
        0x00001f76:    9a19        ..      LDR      r2,[sp,#0x64]
        0x00001f78:    9804        ..      LDR      r0,[sp,#0x10]
        0x00001f7a:    f000f85f    .._.    BL       _printf_pre_padding ; 0x203c
        0x00001f7e:    1945        E.      ADDS     r5,r0,r5
        0x00001f80:    9810        ..      LDR      r0,[sp,#0x40]
        0x00001f82:    7800        .x      LDRB     r0,[r0,#0]
        0x00001f84:    2800        .(      CMP      r0,#0
        0x00001f86:    d003        ..      BEQ      0x1f90 ; _printf_core + 1632
        0x00001f88:    9a1a        ..      LDR      r2,[sp,#0x68]
        0x00001f8a:    9919        ..      LDR      r1,[sp,#0x64]
        0x00001f8c:    4790        .G      BLX      r2
        0x00001f8e:    1c6d        m.      ADDS     r5,r5,#1
        0x00001f90:    03e0        ..      LSLS     r0,r4,#15
        0x00001f92:    d524        $.      BPL      0x1fde ; _printf_core + 1710
        0x00001f94:    4621        !F      MOV      r1,r4
        0x00001f96:    9b1a        ..      LDR      r3,[sp,#0x68]
        0x00001f98:    9a19        ..      LDR      r2,[sp,#0x64]
        0x00001f9a:    9804        ..      LDR      r0,[sp,#0x10]
        0x00001f9c:    f000f84e    ..N.    BL       _printf_pre_padding ; 0x203c
        0x00001fa0:    1945        E.      ADDS     r5,r0,r5
        0x00001fa2:    e01c        ..      B        0x1fde ; _printf_core + 1710
        0x00001fa4:    9800        ..      LDR      r0,[sp,#0]
        0x00001fa6:    2800        .(      CMP      r0,#0
        0x00001fa8:    db07        ..      BLT      0x1fba ; _printf_core + 1674
        0x00001faa:    9900        ..      LDR      r1,[sp,#0]
        0x00001fac:    9805        ..      LDR      r0,[sp,#0x14]
        0x00001fae:    4288        .B      CMP      r0,r1
        0x00001fb0:    dd03        ..      BLE      0x1fba ; _printf_core + 1674
        0x00001fb2:    9815        ..      LDR      r0,[sp,#0x54]
        0x00001fb4:    5c40        @\      LDRB     r0,[r0,r1]
        0x00001fb6:    9919        ..      LDR      r1,[sp,#0x64]
        0x00001fb8:    e001        ..      B        0x1fbe ; _printf_core + 1678
        0x00001fba:    9919        ..      LDR      r1,[sp,#0x64]
        0x00001fbc:    2030        0       MOVS     r0,#0x30
        0x00001fbe:    9a1a        ..      LDR      r2,[sp,#0x68]
        0x00001fc0:    4790        .G      BLX      r2
        0x00001fc2:    9800        ..      LDR      r0,[sp,#0]
        0x00001fc4:    1c6d        m.      ADDS     r5,r5,#1
        0x00001fc6:    1c40        @.      ADDS     r0,r0,#1
        0x00001fc8:    9000        ..      STR      r0,[sp,#0]
        0x00001fca:    9802        ..      LDR      r0,[sp,#8]
        0x00001fcc:    1e40        @.      SUBS     r0,r0,#1
        0x00001fce:    9002        ..      STR      r0,[sp,#8]
        0x00001fd0:    2800        .(      CMP      r0,#0
        0x00001fd2:    d104        ..      BNE      0x1fde ; _printf_core + 1710
        0x00001fd4:    9a1a        ..      LDR      r2,[sp,#0x68]
        0x00001fd6:    202e        .       MOVS     r0,#0x2e
        0x00001fd8:    9919        ..      LDR      r1,[sp,#0x64]
        0x00001fda:    4790        .G      BLX      r2
        0x00001fdc:    1c6d        m.      ADDS     r5,r5,#1
        0x00001fde:    9901        ..      LDR      r1,[sp,#4]
        0x00001fe0:    1e48        H.      SUBS     r0,r1,#1
        0x00001fe2:    9001        ..      STR      r0,[sp,#4]
        0x00001fe4:    2900        .)      CMP      r1,#0
        0x00001fe6:    dcdd        ..      BGT      0x1fa4 ; _printf_core + 1652
        0x00001fe8:    e005        ..      B        0x1ff6 ; _printf_core + 1734
        0x00001fea:    7838        8x      LDRB     r0,[r7,#0]
        0x00001fec:    9a1a        ..      LDR      r2,[sp,#0x68]
        0x00001fee:    1c7f        ..      ADDS     r7,r7,#1
        0x00001ff0:    9919        ..      LDR      r1,[sp,#0x64]
        0x00001ff2:    4790        .G      BLX      r2
        0x00001ff4:    1c6d        m.      ADDS     r5,r5,#1
        0x00001ff6:    9903        ..      LDR      r1,[sp,#0xc]
        0x00001ff8:    1e48        H.      SUBS     r0,r1,#1
        0x00001ffa:    9003        ..      STR      r0,[sp,#0xc]
        0x00001ffc:    2900        .)      CMP      r1,#0
        0x00001ffe:    dcf4        ..      BGT      0x1fea ; _printf_core + 1722
        0x00002000:    4621        !F      MOV      r1,r4
        0x00002002:    9b1a        ..      LDR      r3,[sp,#0x68]
        0x00002004:    9a19        ..      LDR      r2,[sp,#0x64]
        0x00002006:    9804        ..      LDR      r0,[sp,#0x10]
        0x00002008:    e6ac        ..      B        0x1d64 ; _printf_core + 1076
    $d
        0x0000200a:    0000        ..      DCW    0
        0x0000200c:    0000002d    -...    DCD    45
        0x00002010:    0000002b    +...    DCD    43
        0x00002014:    00000020     ...    DCD    32
        0x00002018:    00000000    ....    DCD    0
    $t
    i._printf_post_padding
    _printf_post_padding
        0x0000201c:    b5f8        ..      PUSH     {r3-r7,lr}
        0x0000201e:    4604        .F      MOV      r4,r0
        0x00002020:    2500        .%      MOVS     r5,#0
        0x00002022:    461e        .F      MOV      r6,r3
        0x00002024:    4617        .F      MOV      r7,r2
        0x00002026:    0488        ..      LSLS     r0,r1,#18
        0x00002028:    d404        ..      BMI      0x2034 ; _printf_post_padding + 24
        0x0000202a:    e005        ..      B        0x2038 ; _printf_post_padding + 28
        0x0000202c:    4639        9F      MOV      r1,r7
        0x0000202e:    2020                MOVS     r0,#0x20
        0x00002030:    47b0        .G      BLX      r6
        0x00002032:    1c6d        m.      ADDS     r5,r5,#1
        0x00002034:    1e64        d.      SUBS     r4,r4,#1
        0x00002036:    d5f9        ..      BPL      0x202c ; _printf_post_padding + 16
        0x00002038:    4628        (F      MOV      r0,r5
        0x0000203a:    bdf8        ..      POP      {r3-r7,pc}
    i._printf_pre_padding
    _printf_pre_padding
        0x0000203c:    b5ff        ..      PUSH     {r0-r7,lr}
        0x0000203e:    4604        .F      MOV      r4,r0
        0x00002040:    2500        .%      MOVS     r5,#0
        0x00002042:    b081        ..      SUB      sp,sp,#4
        0x00002044:    461e        .F      MOV      r6,r3
        0x00002046:    03c8        ..      LSLS     r0,r1,#15
        0x00002048:    d501        ..      BPL      0x204e ; _printf_pre_padding + 18
        0x0000204a:    2730        0'      MOVS     r7,#0x30
        0x0000204c:    e000        ..      B        0x2050 ; _printf_pre_padding + 20
        0x0000204e:    2720         '      MOVS     r7,#0x20
        0x00002050:    0488        ..      LSLS     r0,r1,#18
        0x00002052:    d504        ..      BPL      0x205e ; _printf_pre_padding + 34
        0x00002054:    e005        ..      B        0x2062 ; _printf_pre_padding + 38
        0x00002056:    4638        8F      MOV      r0,r7
        0x00002058:    9903        ..      LDR      r1,[sp,#0xc]
        0x0000205a:    47b0        .G      BLX      r6
        0x0000205c:    1c6d        m.      ADDS     r5,r5,#1
        0x0000205e:    1e64        d.      SUBS     r4,r4,#1
        0x00002060:    d5f9        ..      BPL      0x2056 ; _printf_pre_padding + 26
        0x00002062:    4628        (F      MOV      r0,r5
        0x00002064:    b005        ..      ADD      sp,sp,#0x14
        0x00002066:    bdf0        ..      POP      {r4-r7,pc}
    i._sputc
    _sputc
        0x00002068:    680a        .h      LDR      r2,[r1,#0]
        0x0000206a:    1c53        S.      ADDS     r3,r2,#1
        0x0000206c:    600b        .`      STR      r3,[r1,#0]
        0x0000206e:    7010        .p      STRB     r0,[r2,#0]
        0x00002070:    4770        pG      BX       lr
        0x00002072:    0000        ..      MOVS     r0,r0
    i.apPWM_Check_CMD_Busy
    apPWM_Check_CMD_Busy
        0x00002074:    4601        .F      MOV      r1,r0
        0x00002076:    4a07        .J      LDR      r2,[pc,#28] ; [0x2094] = 0x2710
        0x00002078:    e005        ..      B        0x2086 ; apPWM_Check_CMD_Busy + 18
        0x0000207a:    69c8        .i      LDR      r0,[r1,#0x1c]
        0x0000207c:    07c0        ..      LSLS     r0,r0,#31
        0x0000207e:    0fc0        ..      LSRS     r0,r0,#31
        0x00002080:    2800        .(      CMP      r0,#0
        0x00002082:    d100        ..      BNE      0x2086 ; apPWM_Check_CMD_Busy + 18
        0x00002084:    4770        pG      BX       lr
        0x00002086:    4610        .F      MOV      r0,r2
        0x00002088:    1e52        R.      SUBS     r2,r2,#1
        0x0000208a:    2800        .(      CMP      r0,#0
        0x0000208c:    d1f5        ..      BNE      0x207a ; apPWM_Check_CMD_Busy + 6
        0x0000208e:    1e40        @.      SUBS     r0,r0,#1
        0x00002090:    e7f8        ..      B        0x2084 ; apPWM_Check_CMD_Busy + 16
    $d
        0x00002092:    0000        ..      DCW    0
        0x00002094:    00002710    .'..    DCD    10000
    $t
    i.apPWM_Config
    apPWM_Config
        0x00002098:    b570        p.      PUSH     {r4-r6,lr}
        0x0000209a:    4605        .F      MOV      r5,r0
        0x0000209c:    460c        .F      MOV      r4,r1
        0x0000209e:    2600        .&      MOVS     r6,#0
        0x000020a0:    43f6        .C      MVNS     r6,r6
        0x000020a2:    4628        (F      MOV      r0,r5
        0x000020a4:    f7ffffe6    ....    BL       apPWM_Check_CMD_Busy ; 0x2074
        0x000020a8:    4606        .F      MOV      r6,r0
        0x000020aa:    2e00        ..      CMP      r6,#0
        0x000020ac:    da02        ..      BGE      0x20b4 ; apPWM_Config + 28
        0x000020ae:    2000        .       MOVS     r0,#0
        0x000020b0:    43c0        .C      MVNS     r0,r0
        0x000020b2:    bd70        p.      POP      {r4-r6,pc}
        0x000020b4:    68e1        .h      LDR      r1,[r4,#0xc]
        0x000020b6:    68a0        .h      LDR      r0,[r4,#8]
        0x000020b8:    4288        .B      CMP      r0,r1
        0x000020ba:    d904        ..      BLS      0x20c6 ; apPWM_Config + 46
        0x000020bc:    68a0        .h      LDR      r0,[r4,#8]
        0x000020be:    68e1        .h      LDR      r1,[r4,#0xc]
        0x000020c0:    60a1        .`      STR      r1,[r4,#8]
        0x000020c2:    60e0        .`      STR      r0,[r4,#0xc]
        0x000020c4:    bf00        ..      NOP      
        0x000020c6:    69a1        .i      LDR      r1,[r4,#0x18]
        0x000020c8:    69e0        .i      LDR      r0,[r4,#0x1c]
        0x000020ca:    4281        .B      CMP      r1,r0
        0x000020cc:    d904        ..      BLS      0x20d8 ; apPWM_Config + 64
        0x000020ce:    69a0        .i      LDR      r0,[r4,#0x18]
        0x000020d0:    69e2        .i      LDR      r2,[r4,#0x1c]
        0x000020d2:    61a2        .a      STR      r2,[r4,#0x18]
        0x000020d4:    61e0        .a      STR      r0,[r4,#0x1c]
        0x000020d6:    bf00        ..      NOP      
        0x000020d8:    7920         y      LDRB     r0,[r4,#4]
        0x000020da:    01c0        ..      LSLS     r0,r0,#7
        0x000020dc:    78e1        .x      LDRB     r1,[r4,#3]
        0x000020de:    0189        ..      LSLS     r1,r1,#6
        0x000020e0:    4308        .C      ORRS     r0,r0,r1
        0x000020e2:    78a1        .x      LDRB     r1,[r4,#2]
        0x000020e4:    0149        I.      LSLS     r1,r1,#5
        0x000020e6:    4308        .C      ORRS     r0,r0,r1
        0x000020e8:    7861        ax      LDRB     r1,[r4,#1]
        0x000020ea:    0109        ..      LSLS     r1,r1,#4
        0x000020ec:    4308        .C      ORRS     r0,r0,r1
        0x000020ee:    7821        !x      LDRB     r1,[r4,#0]
        0x000020f0:    4308        .C      ORRS     r0,r0,r1
        0x000020f2:    6068        h`      STR      r0,[r5,#4]
        0x000020f4:    8920         .      LDRH     r0,[r4,#8]
        0x000020f6:    0400        ..      LSLS     r0,r0,#16
        0x000020f8:    68e1        .h      LDR      r1,[r4,#0xc]
        0x000020fa:    4308        .C      ORRS     r0,r0,r1
        0x000020fc:    60e8        .`      STR      r0,[r5,#0xc]
        0x000020fe:    7d20         }      LDRB     r0,[r4,#0x14]
        0x00002100:    01c0        ..      LSLS     r0,r0,#7
        0x00002102:    7ce1        .|      LDRB     r1,[r4,#0x13]
        0x00002104:    0189        ..      LSLS     r1,r1,#6
        0x00002106:    4308        .C      ORRS     r0,r0,r1
        0x00002108:    7ca1        .|      LDRB     r1,[r4,#0x12]
        0x0000210a:    0149        I.      LSLS     r1,r1,#5
        0x0000210c:    4308        .C      ORRS     r0,r0,r1
        0x0000210e:    7c61        a|      LDRB     r1,[r4,#0x11]
        0x00002110:    0109        ..      LSLS     r1,r1,#4
        0x00002112:    4308        .C      ORRS     r0,r0,r1
        0x00002114:    7c21        !|      LDRB     r1,[r4,#0x10]
        0x00002116:    4308        .C      ORRS     r0,r0,r1
        0x00002118:    60a8        .`      STR      r0,[r5,#8]
        0x0000211a:    8b20         .      LDRH     r0,[r4,#0x18]
        0x0000211c:    0400        ..      LSLS     r0,r0,#16
        0x0000211e:    69e1        .i      LDR      r1,[r4,#0x1c]
        0x00002120:    4308        .C      ORRS     r0,r0,r1
        0x00002122:    6128        (a      STR      r0,[r5,#0x10]
        0x00002124:    2028        (       MOVS     r0,#0x28
        0x00002126:    5d00        .]      LDRB     r0,[r0,r4]
        0x00002128:    2800        .(      CMP      r0,#0
        0x0000212a:    d002        ..      BEQ      0x2132 ; apPWM_Config + 154
        0x0000212c:    4628        (F      MOV      r0,r5
        0x0000212e:    f000f810    ....    BL       apPWM_Int_Enable ; 0x2152
        0x00002132:    4628        (F      MOV      r0,r5
        0x00002134:    f000f808    ....    BL       apPWM_Enable ; 0x2148
        0x00002138:    8c20         .      LDRH     r0,[r4,#0x20]
        0x0000213a:    0580        ..      LSLS     r0,r0,#22
        0x0000213c:    0980        ..      LSRS     r0,r0,#6
        0x0000213e:    6a61        aj      LDR      r1,[r4,#0x24]
        0x00002140:    4308        .C      ORRS     r0,r0,r1
        0x00002142:    6168        ha      STR      r0,[r5,#0x14]
        0x00002144:    2000        .       MOVS     r0,#0
        0x00002146:    e7b4        ..      B        0x20b2 ; apPWM_Config + 26
    i.apPWM_Enable
    apPWM_Enable
        0x00002148:    6801        .h      LDR      r1,[r0,#0]
        0x0000214a:    2201        ."      MOVS     r2,#1
        0x0000214c:    4311        .C      ORRS     r1,r1,r2
        0x0000214e:    6001        .`      STR      r1,[r0,#0]
        0x00002150:    4770        pG      BX       lr
    i.apPWM_Int_Enable
    apPWM_Int_Enable
        0x00002152:    6981        .i      LDR      r1,[r0,#0x18]
        0x00002154:    2201        ."      MOVS     r2,#1
        0x00002156:    4311        .C      ORRS     r1,r1,r2
        0x00002158:    6181        .a      STR      r1,[r0,#0x18]
        0x0000215a:    4770        pG      BX       lr
    i.apSSP_DeviceBusyGet
    apSSP_DeviceBusyGet
        0x0000215c:    4601        .F      MOV      r1,r0
        0x0000215e:    68c8        .h      LDR      r0,[r1,#0xc]
        0x00002160:    06c0        ..      LSLS     r0,r0,#27
        0x00002162:    0fc0        ..      LSRS     r0,r0,#31
        0x00002164:    4770        pG      BX       lr
    i.apSSP_DeviceDisable
    apSSP_DeviceDisable
        0x00002166:    6841        Ah      LDR      r1,[r0,#4]
        0x00002168:    2202        ."      MOVS     r2,#2
        0x0000216a:    4391        .C      BICS     r1,r1,r2
        0x0000216c:    6041        A`      STR      r1,[r0,#4]
        0x0000216e:    4770        pG      BX       lr
    i.apSSP_DeviceEnable
    apSSP_DeviceEnable
        0x00002170:    6841        Ah      LDR      r1,[r0,#4]
        0x00002172:    2202        ."      MOVS     r2,#2
        0x00002174:    4311        .C      ORRS     r1,r1,r2
        0x00002176:    6041        A`      STR      r1,[r0,#4]
        0x00002178:    4770        pG      BX       lr
    i.apSSP_DeviceParametersSet
    apSSP_DeviceParametersSet
        0x0000217a:    798a        .y      LDRB     r2,[r1,#6]
        0x0000217c:    79cb        .y      LDRB     r3,[r1,#7]
        0x0000217e:    009b        ..      LSLS     r3,r3,#2
        0x00002180:    431a        .C      ORRS     r2,r2,r3
        0x00002182:    7a0b        .z      LDRB     r3,[r1,#8]
        0x00002184:    00db        ..      LSLS     r3,r3,#3
        0x00002186:    431a        .C      ORRS     r2,r2,r3
        0x00002188:    6042        B`      STR      r2,[r0,#4]
        0x0000218a:    794a        Jy      LDRB     r2,[r1,#5]
        0x0000218c:    790b        .y      LDRB     r3,[r1,#4]
        0x0000218e:    011b        ..      LSLS     r3,r3,#4
        0x00002190:    431a        .C      ORRS     r2,r2,r3
        0x00002192:    78cb        .x      LDRB     r3,[r1,#3]
        0x00002194:    019b        ..      LSLS     r3,r3,#6
        0x00002196:    431a        .C      ORRS     r2,r2,r3
        0x00002198:    788b        .x      LDRB     r3,[r1,#2]
        0x0000219a:    01db        ..      LSLS     r3,r3,#7
        0x0000219c:    431a        .C      ORRS     r2,r2,r3
        0x0000219e:    784b        Kx      LDRB     r3,[r1,#1]
        0x000021a0:    021b        ..      LSLS     r3,r3,#8
        0x000021a2:    431a        .C      ORRS     r2,r2,r3
        0x000021a4:    6002        .`      STR      r2,[r0,#0]
        0x000021a6:    780a        .x      LDRB     r2,[r1,#0]
        0x000021a8:    6102        .a      STR      r2,[r0,#0x10]
        0x000021aa:    4770        pG      BX       lr
    i.apSSP_Initialize
    apSSP_Initialize
        0x000021ac:    2100        .!      MOVS     r1,#0
        0x000021ae:    6101        .a      STR      r1,[r0,#0x10]
        0x000021b0:    6001        .`      STR      r1,[r0,#0]
        0x000021b2:    6041        A`      STR      r1,[r0,#4]
        0x000021b4:    6141        Aa      STR      r1,[r0,#0x14]
        0x000021b6:    4770        pG      BX       lr
    i.apSSP_ReadFIFO
    apSSP_ReadFIFO
        0x000021b8:    4601        .F      MOV      r1,r0
        0x000021ba:    688a        .h      LDR      r2,[r1,#8]
        0x000021bc:    b290        ..      UXTH     r0,r2
        0x000021be:    4770        pG      BX       lr
    i.apUART_BaudRateSet
    apUART_BaudRateSet
        0x000021c0:    b5f7        ..      PUSH     {r0-r2,r4-r7,lr}
        0x000021c2:    b082        ..      SUB      sp,sp,#8
        0x000021c4:    4604        .F      MOV      r4,r0
        0x000021c6:    460f        .F      MOV      r7,r1
        0x000021c8:    00f8        ..      LSLS     r0,r7,#3
        0x000021ca:    9904        ..      LDR      r1,[sp,#0x10]
        0x000021cc:    f7fdff7e    ..~.    BL       __aeabi_uidiv ; 0xcc
        0x000021d0:    4605        .F      MOV      r5,r0
        0x000021d2:    09ee        ..      LSRS     r6,r5,#7
        0x000021d4:    01f0        ..      LSLS     r0,r6,#7
        0x000021d6:    1a2d        -.      SUBS     r5,r5,r0
        0x000021d8:    1c68        h.      ADDS     r0,r5,#1
        0x000021da:    0840        @.      LSRS     r0,r0,#1
        0x000021dc:    9001        ..      STR      r0,[sp,#4]
        0x000021de:    6266        fb      STR      r6,[r4,#0x24]
        0x000021e0:    4806        .H      LDR      r0,[pc,#24] ; [0x21fc] = 0xffff
        0x000021e2:    4286        .B      CMP      r6,r0
        0x000021e4:    d102        ..      BNE      0x21ec ; apUART_BaudRateSet + 44
        0x000021e6:    2000        .       MOVS     r0,#0
        0x000021e8:    62a0        .b      STR      r0,[r4,#0x28]
        0x000021ea:    e002        ..      B        0x21f2 ; apUART_BaudRateSet + 50
        0x000021ec:    1bad        ..      SUBS     r5,r5,r6
        0x000021ee:    9801        ..      LDR      r0,[sp,#4]
        0x000021f0:    62a0        .b      STR      r0,[r4,#0x28]
        0x000021f2:    6ae0        .j      LDR      r0,[r4,#0x2c]
        0x000021f4:    62e0        .b      STR      r0,[r4,#0x2c]
        0x000021f6:    b005        ..      ADD      sp,sp,#0x14
        0x000021f8:    bdf0        ..      POP      {r4-r7,pc}
    $d
        0x000021fa:    0000        ..      DCW    0
        0x000021fc:    0000ffff    ....    DCD    65535
    $t
    i.apUART_Check_BUSY
    apUART_Check_BUSY
        0x00002200:    4601        .F      MOV      r1,r0
        0x00002202:    6988        .i      LDR      r0,[r1,#0x18]
        0x00002204:    0700        ..      LSLS     r0,r0,#28
        0x00002206:    0fc0        ..      LSRS     r0,r0,#31
        0x00002208:    4770        pG      BX       lr
    i.apUART_Check_RXFIFO_EMPTY
    apUART_Check_RXFIFO_EMPTY
        0x0000220a:    4601        .F      MOV      r1,r0
        0x0000220c:    6988        .i      LDR      r0,[r1,#0x18]
        0x0000220e:    06c0        ..      LSLS     r0,r0,#27
        0x00002210:    0fc0        ..      LSRS     r0,r0,#31
        0x00002212:    4770        pG      BX       lr
    i.apUART_Check_TXFIFO_FULL
    apUART_Check_TXFIFO_FULL
        0x00002214:    4601        .F      MOV      r1,r0
        0x00002216:    6988        .i      LDR      r0,[r1,#0x18]
        0x00002218:    0680        ..      LSLS     r0,r0,#26
        0x0000221a:    0fc0        ..      LSRS     r0,r0,#31
        0x0000221c:    4770        pG      BX       lr
    i.apUART_Initialize
    apUART_Initialize
        0x0000221e:    b570        p.      PUSH     {r4-r6,lr}
        0x00002220:    4604        .F      MOV      r4,r0
        0x00002222:    460d        .F      MOV      r5,r1
        0x00002224:    2000        .       MOVS     r0,#0
        0x00002226:    6320         c      STR      r0,[r4,#0x30]
        0x00002228:    6460        `d      STR      r0,[r4,#0x44]
        0x0000222a:    63a0        .c      STR      r0,[r4,#0x38]
        0x0000222c:    6060        ``      STR      r0,[r4,#4]
        0x0000222e:    6260        `b      STR      r0,[r4,#0x24]
        0x00002230:    62a0        .b      STR      r0,[r4,#0x28]
        0x00002232:    62e0        .b      STR      r0,[r4,#0x2c]
        0x00002234:    4620         F      MOV      r0,r4
        0x00002236:    692a        *i      LDR      r2,[r5,#0x10]
        0x00002238:    68e9        .h      LDR      r1,[r5,#0xc]
        0x0000223a:    f7ffffc1    ....    BL       apUART_BaudRateSet ; 0x21c0
        0x0000223e:    7868        hx      LDRB     r0,[r5,#1]
        0x00002240:    0740        @.      LSLS     r0,r0,#29
        0x00002242:    0fc0        ..      LSRS     r0,r0,#31
        0x00002244:    01c0        ..      LSLS     r0,r0,#7
        0x00002246:    7829        )x      LDRB     r1,[r5,#0]
        0x00002248:    0149        I.      LSLS     r1,r1,#5
        0x0000224a:    4308        .C      ORRS     r0,r0,r1
        0x0000224c:    78a9        .x      LDRB     r1,[r5,#2]
        0x0000224e:    0109        ..      LSLS     r1,r1,#4
        0x00002250:    4308        .C      ORRS     r0,r0,r1
        0x00002252:    78e9        .x      LDRB     r1,[r5,#3]
        0x00002254:    00c9        ..      LSLS     r1,r1,#3
        0x00002256:    4308        .C      ORRS     r0,r0,r1
        0x00002258:    7869        ix      LDRB     r1,[r5,#1]
        0x0000225a:    0789        ..      LSLS     r1,r1,#30
        0x0000225c:    0f49        I.      LSRS     r1,r1,#29
        0x0000225e:    4308        .C      ORRS     r0,r0,r1
        0x00002260:    62e0        .b      STR      r0,[r4,#0x2c]
        0x00002262:    7a28        (z      LDRB     r0,[r5,#8]
        0x00002264:    79e9        .y      LDRB     r1,[r5,#7]
        0x00002266:    00c9        ..      LSLS     r1,r1,#3
        0x00002268:    4308        .C      ORRS     r0,r0,r1
        0x0000226a:    6360        `c      STR      r0,[r4,#0x34]
        0x0000226c:    e000        ..      B        0x2270 ; apUART_Initialize + 82
        0x0000226e:    6826        &h      LDR      r6,[r4,#0]
        0x00002270:    4620         F      MOV      r0,r4
        0x00002272:    f7ffffca    ....    BL       apUART_Check_RXFIFO_EMPTY ; 0x220a
        0x00002276:    2801        .(      CMP      r0,#1
        0x00002278:    d1f9        ..      BNE      0x226e ; apUART_Initialize + 80
        0x0000227a:    1c76        v.      ADDS     r6,r6,#1
        0x0000227c:    2000        .       MOVS     r0,#0
        0x0000227e:    63a0        .c      STR      r0,[r4,#0x38]
        0x00002280:    7928        (y      LDRB     r0,[r5,#4]
        0x00002282:    0240        @.      LSLS     r0,r0,#9
        0x00002284:    7969        iy      LDRB     r1,[r5,#5]
        0x00002286:    0209        ..      LSLS     r1,r1,#8
        0x00002288:    4308        .C      ORRS     r0,r0,r1
        0x0000228a:    79a9        .y      LDRB     r1,[r5,#6]
        0x0000228c:    4308        .C      ORRS     r0,r0,r1
        0x0000228e:    6320         c      STR      r0,[r4,#0x30]
        0x00002290:    bd70        p.      POP      {r4-r6,pc}
        0x00002292:    0000        ..      MOVS     r0,r0
    i.clearDisplay
    clearDisplay
        0x00002294:    b5f8        ..      PUSH     {r3-r7,lr}
        0x00002296:    4604        .F      MOV      r4,r0
        0x00002298:    2c00        .,      CMP      r4,#0
        0x0000229a:    db03        ..      BLT      0x22a4 ; clearDisplay + 16
        0x0000229c:    480c        .H      LDR      r0,[pc,#48] ; [0x22d0] = 0x20000064
        0x0000229e:    7800        .x      LDRB     r0,[r0,#0]
        0x000022a0:    4284        .B      CMP      r4,r0
        0x000022a2:    db00        ..      BLT      0x22a6 ; clearDisplay + 18
        0x000022a4:    bdf8        ..      POP      {r3-r7,pc}
        0x000022a6:    06e0        ..      LSLS     r0,r4,#27
        0x000022a8:    0e06        ..      LSRS     r6,r0,#24
        0x000022aa:    2500        .%      MOVS     r5,#0
        0x000022ac:    e00c        ..      B        0x22c8 ; clearDisplay + 52
        0x000022ae:    2000        .       MOVS     r0,#0
        0x000022b0:    1971        q.      ADDS     r1,r6,r5
        0x000022b2:    4a08        .J      LDR      r2,[pc,#32] ; [0x22d4] = 0x20000204
        0x000022b4:    5450        PT      STRB     r0,[r2,r1]
        0x000022b6:    1973        s.      ADDS     r3,r6,r5
        0x000022b8:    4617        .F      MOV      r7,r2
        0x000022ba:    5cfa        .\      LDRB     r2,[r7,r3]
        0x000022bc:    1c6b        k.      ADDS     r3,r5,#1
        0x000022be:    b2d9        ..      UXTB     r1,r3
        0x000022c0:    b2e0        ..      UXTB     r0,r4
        0x000022c2:    f001fb03    ....    BL       spiTransfer ; 0x38cc
        0x000022c6:    1c6d        m.      ADDS     r5,r5,#1
        0x000022c8:    2d08        .-      CMP      r5,#8
        0x000022ca:    dbf0        ..      BLT      0x22ae ; clearDisplay + 26
        0x000022cc:    bf00        ..      NOP      
        0x000022ce:    e7e9        ..      B        0x22a4 ; clearDisplay + 16
    $d
        0x000022d0:    20000064    d..     DCD    536871012
        0x000022d4:    20000204    ...     DCD    536871428
    $t
    i.clearScreen
    clearScreen
        0x000022d8:    b510        ..      PUSH     {r4,lr}
        0x000022da:    2400        .$      MOVS     r4,#0
        0x000022dc:    e00a        ..      B        0x22f4 ; clearScreen + 28
        0x000022de:    4620         F      MOV      r0,r4
        0x000022e0:    f7ffffd8    ....    BL       clearDisplay ; 0x2294
        0x000022e4:    2101        .!      MOVS     r1,#1
        0x000022e6:    0788        ..      LSLS     r0,r1,#30
        0x000022e8:    6141        Aa      STR      r1,[r0,#0x14]
        0x000022ea:    bf00        ..      NOP      
        0x000022ec:    bf00        ..      NOP      
        0x000022ee:    bf00        ..      NOP      
        0x000022f0:    bf00        ..      NOP      
        0x000022f2:    1c64        d.      ADDS     r4,r4,#1
        0x000022f4:    2c11        .,      CMP      r4,#0x11
        0x000022f6:    dbf2        ..      BLT      0x22de ; clearScreen + 6
        0x000022f8:    2000        .       MOVS     r0,#0
        0x000022fa:    e004        ..      B        0x2306 ; clearScreen + 46
        0x000022fc:    2100        .!      MOVS     r1,#0
        0x000022fe:    0082        ..      LSLS     r2,r0,#2
        0x00002300:    4b02        .K      LDR      r3,[pc,#8] ; [0x230c] = 0x20000074
        0x00002302:    5099        .P      STR      r1,[r3,r2]
        0x00002304:    1c40        @.      ADDS     r0,r0,#1
        0x00002306:    2823        #(      CMP      r0,#0x23
        0x00002308:    dbf8        ..      BLT      0x22fc ; clearScreen + 36
        0x0000230a:    bd10        ..      POP      {r4,pc}
    $d
        0x0000230c:    20000074    t..     DCD    536871028
    $t
    i.config_uart0
    config_uart0
        0x00002310:    b570        p.      PUSH     {r4-r6,lr}
        0x00002312:    b088        ..      SUB      sp,sp,#0x20
        0x00002314:    4604        .F      MOV      r4,r0
        0x00002316:    460d        .F      MOV      r5,r1
        0x00002318:    4616        .F      MOV      r6,r2
        0x0000231a:    f7fff91b    ....    BL       SYSCTRL_ClrReset_APB_SCI0 ; 0x1554
        0x0000231e:    f7fff913    ....    BL       SYSCTRL_ClrReset_APB_PinCtrl ; 0x1548
        0x00002322:    2e00        ..      CMP      r6,#0
        0x00002324:    d006        ..      BEQ      0x2334 ; config_uart0 + 36
        0x00002326:    2e01        ..      CMP      r6,#1
        0x00002328:    d00f        ..      BEQ      0x234a ; config_uart0 + 58
        0x0000232a:    2e02        ..      CMP      r6,#2
        0x0000232c:    d018        ..      BEQ      0x2360 ; config_uart0 + 80
        0x0000232e:    2e03        ..      CMP      r6,#3
        0x00002330:    d12c        ,.      BNE      0x238c ; config_uart0 + 124
        0x00002332:    e020         .      B        0x2376 ; config_uart0 + 102
        0x00002334:    21d0        .!      MOVS     r1,#0xd0
        0x00002336:    4668        hF      MOV      r0,sp
        0x00002338:    7101        .q      STRB     r1,[r0,#4]
        0x0000233a:    2141        A!      MOVS     r1,#0x41
        0x0000233c:    7201        .r      STRB     r1,[r0,#8]
        0x0000233e:    aa01        ..      ADD      r2,sp,#4
        0x00002340:    2130        0!      MOVS     r1,#0x30
        0x00002342:    2000        .       MOVS     r0,#0
        0x00002344:    f7fff8ca    ....    BL       PinCtrl_GIOSet ; 0x14dc
        0x00002348:    e02b        +.      B        0x23a2 ; config_uart0 + 146
        0x0000234a:    21d0        .!      MOVS     r1,#0xd0
        0x0000234c:    4668        hF      MOV      r0,sp
        0x0000234e:    7101        .q      STRB     r1,[r0,#4]
        0x00002350:    2141        A!      MOVS     r1,#0x41
        0x00002352:    7201        .r      STRB     r1,[r0,#8]
        0x00002354:    aa01        ..      ADD      r2,sp,#4
        0x00002356:    21c0        .!      MOVS     r1,#0xc0
        0x00002358:    2001        .       MOVS     r0,#1
        0x0000235a:    f7fff8bf    ....    BL       PinCtrl_GIOSet ; 0x14dc
        0x0000235e:    e020         .      B        0x23a2 ; config_uart0 + 146
        0x00002360:    21e0        .!      MOVS     r1,#0xe0
        0x00002362:    4668        hF      MOV      r0,sp
        0x00002364:    7101        .q      STRB     r1,[r0,#4]
        0x00002366:    2141        A!      MOVS     r1,#0x41
        0x00002368:    7201        .r      STRB     r1,[r0,#8]
        0x0000236a:    aa01        ..      ADD      r2,sp,#4
        0x0000236c:    2103        .!      MOVS     r1,#3
        0x0000236e:    2001        .       MOVS     r0,#1
        0x00002370:    f7fff8b4    ....    BL       PinCtrl_GIOSet ; 0x14dc
        0x00002374:    e015        ..      B        0x23a2 ; config_uart0 + 146
        0x00002376:    21e0        .!      MOVS     r1,#0xe0
        0x00002378:    4668        hF      MOV      r0,sp
        0x0000237a:    7101        .q      STRB     r1,[r0,#4]
        0x0000237c:    2141        A!      MOVS     r1,#0x41
        0x0000237e:    7201        .r      STRB     r1,[r0,#8]
        0x00002380:    aa01        ..      ADD      r2,sp,#4
        0x00002382:    210c        .!      MOVS     r1,#0xc
        0x00002384:    2003        .       MOVS     r0,#3
        0x00002386:    f7fff8a9    ....    BL       PinCtrl_GIOSet ; 0x14dc
        0x0000238a:    e00a        ..      B        0x23a2 ; config_uart0 + 146
        0x0000238c:    21d0        .!      MOVS     r1,#0xd0
        0x0000238e:    4668        hF      MOV      r0,sp
        0x00002390:    7101        .q      STRB     r1,[r0,#4]
        0x00002392:    2141        A!      MOVS     r1,#0x41
        0x00002394:    7201        .r      STRB     r1,[r0,#8]
        0x00002396:    aa01        ..      ADD      r2,sp,#4
        0x00002398:    2130        0!      MOVS     r1,#0x30
        0x0000239a:    2000        .       MOVS     r0,#0
        0x0000239c:    f7fff89e    ....    BL       PinCtrl_GIOSet ; 0x14dc
        0x000023a0:    bf00        ..      NOP      
        0x000023a2:    bf00        ..      NOP      
        0x000023a4:    2103        .!      MOVS     r1,#3
        0x000023a6:    4668        hF      MOV      r0,sp
        0x000023a8:    7301        .s      STRB     r1,[r0,#0xc]
        0x000023aa:    2100        .!      MOVS     r1,#0
        0x000023ac:    7341        As      STRB     r1,[r0,#0xd]
        0x000023ae:    2101        .!      MOVS     r1,#1
        0x000023b0:    7381        .s      STRB     r1,[r0,#0xe]
        0x000023b2:    2100        .!      MOVS     r1,#0
        0x000023b4:    73c1        .s      STRB     r1,[r0,#0xf]
        0x000023b6:    2101        .!      MOVS     r1,#1
        0x000023b8:    7401        .t      STRB     r1,[r0,#0x10]
        0x000023ba:    7441        At      STRB     r1,[r0,#0x11]
        0x000023bc:    7481        .t      STRB     r1,[r0,#0x12]
        0x000023be:    2100        .!      MOVS     r1,#0
        0x000023c0:    74c1        .t      STRB     r1,[r0,#0x13]
        0x000023c2:    2102        .!      MOVS     r1,#2
        0x000023c4:    7501        .u      STRB     r1,[r0,#0x14]
        0x000023c6:    9406        ..      STR      r4,[sp,#0x18]
        0x000023c8:    9507        ..      STR      r5,[sp,#0x1c]
        0x000023ca:    a903        ..      ADD      r1,sp,#0xc
        0x000023cc:    4802        .H      LDR      r0,[pc,#8] ; [0x23d8] = 0x40010000
        0x000023ce:    f7ffff26    ..&.    BL       apUART_Initialize ; 0x221e
        0x000023d2:    b008        ..      ADD      sp,sp,#0x20
        0x000023d4:    bd70        p.      POP      {r4-r6,pc}
    $d
        0x000023d6:    0000        ..      DCW    0
        0x000023d8:    40010000    ...@    DCD    1073807360
    $t
    i.delay
    delay
        0x000023dc:    e000        ..      B        0x23e0 ; delay + 4
        0x000023de:    1e40        @.      SUBS     r0,r0,#1
        0x000023e0:    2800        .(      CMP      r0,#0
        0x000023e2:    d1fc        ..      BNE      0x23de ; delay + 2
        0x000023e4:    4770        pG      BX       lr
    i.delay_ms
    delay_ms
        0x000023e6:    b500        ..      PUSH     {lr}
        0x000023e8:    4602        .F      MOV      r2,r0
        0x000023ea:    217d        }!      MOVS     r1,#0x7d
        0x000023ec:    0149        I.      LSLS     r1,r1,#5
        0x000023ee:    4351        QC      MULS     r1,r2,r1
        0x000023f0:    4608        .F      MOV      r0,r1
        0x000023f2:    f7fffff3    ....    BL       delay ; 0x23dc
        0x000023f6:    bd00        ..      POP      {pc}
    i.delay_s
    delay_s
        0x000023f8:    b500        ..      PUSH     {lr}
        0x000023fa:    4602        .F      MOV      r2,r0
        0x000023fc:    4902        .I      LDR      r1,[pc,#8] ; [0x2408] = 0x3d0900
        0x000023fe:    4351        QC      MULS     r1,r2,r1
        0x00002400:    4608        .F      MOV      r0,r1
        0x00002402:    f7ffffeb    ....    BL       delay ; 0x23dc
        0x00002406:    bd00        ..      POP      {pc}
    $d
        0x00002408:    003d0900    ..=.    DCD    4000000
    $t
    i.fputc
    fputc
        0x0000240c:    b570        p.      PUSH     {r4-r6,lr}
        0x0000240e:    4604        .F      MOV      r4,r0
        0x00002410:    460d        .F      MOV      r5,r1
        0x00002412:    2c0a        .,      CMP      r4,#0xa
        0x00002414:    d102        ..      BNE      0x241c ; fputc + 16
        0x00002416:    200d        .       MOVS     r0,#0xd
        0x00002418:    f7fff88c    ....    BL       SER_PutChar ; 0x1534
        0x0000241c:    4620         F      MOV      r0,r4
        0x0000241e:    f7fff889    ....    BL       SER_PutChar ; 0x1534
        0x00002422:    bd70        p.      POP      {r4-r6,pc}
    i.hardfault_handler_c
    hardfault_handler_c
    __tagsym$$used
        0x00002424:    b570        p.      PUSH     {r4-r6,lr}
        0x00002426:    4604        .F      MOV      r4,r0
        0x00002428:    460d        .F      MOV      r5,r1
        0x0000242a:    a019        ..      ADR      r0,{pc}+0x66 ; 0x2490
        0x0000242c:    f7fff8d0    ....    BL       __0printf ; 0x15d0
        0x00002430:    a027        '.      ADR      r0,{pc}+0xa0 ; 0x24d0
        0x00002432:    6821        !h      LDR      r1,[r4,#0]
        0x00002434:    f7fff8cc    ....    BL       __0printf ; 0x15d0
        0x00002438:    a028        (.      ADR      r0,{pc}+0xa4 ; 0x24dc
        0x0000243a:    6861        ah      LDR      r1,[r4,#4]
        0x0000243c:    f7fff8c8    ....    BL       __0printf ; 0x15d0
        0x00002440:    a029        ).      ADR      r0,{pc}+0xa8 ; 0x24e8
        0x00002442:    68a1        .h      LDR      r1,[r4,#8]
        0x00002444:    f7fff8c4    ....    BL       __0printf ; 0x15d0
        0x00002448:    a02a        *.      ADR      r0,{pc}+0xac ; 0x24f4
        0x0000244a:    68e1        .h      LDR      r1,[r4,#0xc]
        0x0000244c:    f7fff8c0    ....    BL       __0printf ; 0x15d0
        0x00002450:    a02b        +.      ADR      r0,{pc}+0xb0 ; 0x2500
        0x00002452:    6921        !i      LDR      r1,[r4,#0x10]
        0x00002454:    f7fff8bc    ....    BL       __0printf ; 0x15d0
        0x00002458:    a02d        -.      ADR      r0,{pc}+0xb8 ; 0x2510
        0x0000245a:    6961        ai      LDR      r1,[r4,#0x14]
        0x0000245c:    f7fff8b8    ....    BL       __0printf ; 0x15d0
        0x00002460:    a02e        ..      ADR      r0,{pc}+0xbc ; 0x251c
        0x00002462:    69a1        .i      LDR      r1,[r4,#0x18]
        0x00002464:    f7fff8b4    ....    BL       __0printf ; 0x15d0
        0x00002468:    a02f        /.      ADR      r0,{pc}+0xc0 ; 0x2528
        0x0000246a:    69e1        .i      LDR      r1,[r4,#0x1c]
        0x0000246c:    f7fff8b0    ....    BL       __0printf ; 0x15d0
        0x00002470:    4629        )F      MOV      r1,r5
        0x00002472:    a031        1.      ADR      r0,{pc}+0xc6 ; 0x2538
        0x00002474:    f7fff8ac    ....    BL       __0printf ; 0x15d0
        0x00002478:    a034        4.      ADR      r0,{pc}+0xd4 ; 0x254c
        0x0000247a:    f7fff8a9    ....    BL       __0printf ; 0x15d0
        0x0000247e:    2000        .       MOVS     r0,#0
        0x00002480:    4942        BI      LDR      r1,[pc,#264] ; [0x258c] = 0x20000014
        0x00002482:    6008        .`      STR      r0,[r1,#0]
        0x00002484:    bf00        ..      NOP      
        0x00002486:    4841        AH      LDR      r0,[pc,#260] ; [0x258c] = 0x20000014
        0x00002488:    6800        .h      LDR      r0,[r0,#0]
        0x0000248a:    2800        .(      CMP      r0,#0
        0x0000248c:    d0fb        ..      BEQ      0x2486 ; hardfault_handler_c + 98
        0x0000248e:    bd70        p.      POP      {r4-r6,pc}
    $d
        0x00002490:    2a2a2a0a    .***    DCD    707406346
        0x00002494:    2a2a2a2a    ****    DCD    707406378
        0x00002498:    68542a2a    **Th    DCD    1750346282
        0x0000249c:    61732065    e sa    DCD    1634934885
        0x000024a0:    20646576    ved     DCD    543450486
        0x000024a4:    69676572    regi    DCD    1768383858
        0x000024a8:    72657473    ster    DCD    1919251571
        0x000024ac:    72662073    s fr    DCD    1919295603
        0x000024b0:    74206d6f    om t    DCD    1948282223
        0x000024b4:    73206568    he s    DCD    1931502952
        0x000024b8:    6b636174    tack    DCD    1801675124
        0x000024bc:    2a2a2a2a    ****    DCD    707406378
        0x000024c0:    2a2a2a2a    ****    DCD    707406378
        0x000024c4:    2a2a2a2a    ****    DCD    707406378
        0x000024c8:    2a2a2a2a    ****    DCD    707406378
        0x000024cc:    0000000a    ....    DCD    10
        0x000024d0:    69203072    r0 i    DCD    1763717234
        0x000024d4:    78302073    s 0x    DCD    2016419955
        0x000024d8:    000a7825    %x..    DCD    686117
        0x000024dc:    69203172    r1 i    DCD    1763717490
        0x000024e0:    78302073    s 0x    DCD    2016419955
        0x000024e4:    000a7825    %x..    DCD    686117
        0x000024e8:    69203272    r2 i    DCD    1763717746
        0x000024ec:    78302073    s 0x    DCD    2016419955
        0x000024f0:    000a7825    %x..    DCD    686117
        0x000024f4:    69203372    r3 i    DCD    1763718002
        0x000024f8:    78302073    s 0x    DCD    2016419955
        0x000024fc:    000a7825    %x..    DCD    686117
        0x00002500:    20323172    r12     DCD    540160370
        0x00002504:    30207369    is 0    DCD    807433065
        0x00002508:    0a782578    x%x.    DCD    175646072
        0x0000250c:    00000000    ....    DCD    0
        0x00002510:    6920726c    lr i    DCD    1763734124
        0x00002514:    78302073    s 0x    DCD    2016419955
        0x00002518:    000a7825    %x..    DCD    686117
        0x0000251c:    69206370    pc i    DCD    1763730288
        0x00002520:    78302073    s 0x    DCD    2016419955
        0x00002524:    000a7825    %x..    DCD    686117
        0x00002528:    20727370    psr     DCD    544371568
        0x0000252c:    30207369    is 0    DCD    807433065
        0x00002530:    0a782578    x%x.    DCD    175646072
        0x00002534:    00000000    ....    DCD    0
        0x00002538:    72727563    curr    DCD    1920103779
        0x0000253c:    5f746e65    ent_    DCD    1601465957
        0x00002540:    6920726c    lr i    DCD    1763734124
        0x00002544:    78302073    s 0x    DCD    2016419955
        0x00002548:    000a7825    %x..    DCD    686117
        0x0000254c:    2a2a2a2a    ****    DCD    707406378
        0x00002550:    2a2a2a2a    ****    DCD    707406378
        0x00002554:    2a2a2a2a    ****    DCD    707406378
        0x00002558:    2a2a2a2a    ****    DCD    707406378
        0x0000255c:    2a2a2a2a    ****    DCD    707406378
        0x00002560:    2a2a2a2a    ****    DCD    707406378
        0x00002564:    2a2a2a2a    ****    DCD    707406378
        0x00002568:    2a2a2a2a    ****    DCD    707406378
        0x0000256c:    2a2a2a2a    ****    DCD    707406378
        0x00002570:    2a2a2a2a    ****    DCD    707406378
        0x00002574:    2a2a2a2a    ****    DCD    707406378
        0x00002578:    2a2a2a2a    ****    DCD    707406378
        0x0000257c:    2a2a2a2a    ****    DCD    707406378
        0x00002580:    2a2a2a2a    ****    DCD    707406378
        0x00002584:    2a2a2a2a    ****    DCD    707406378
        0x00002588:    00000a2a    *...    DCD    2602
        0x0000258c:    20000014    ...     DCD    536870932
    $t
    i.init_I2C_BMP180
    init_I2C_BMP180
        0x00002590:    b570        p.      PUSH     {r4-r6,lr}
        0x00002592:    b086        ..      SUB      sp,sp,#0x18
        0x00002594:    4604        .F      MOV      r4,r0
        0x00002596:    460d        .F      MOV      r5,r1
        0x00002598:    4616        .F      MOV      r6,r2
        0x0000259a:    2e00        ..      CMP      r6,#0
        0x0000259c:    d006        ..      BEQ      0x25ac ; init_I2C_BMP180 + 28
        0x0000259e:    2e01        ..      CMP      r6,#1
        0x000025a0:    d00f        ..      BEQ      0x25c2 ; init_I2C_BMP180 + 50
        0x000025a2:    2e02        ..      CMP      r6,#2
        0x000025a4:    d018        ..      BEQ      0x25d8 ; init_I2C_BMP180 + 72
        0x000025a6:    2e03        ..      CMP      r6,#3
        0x000025a8:    d12c        ,.      BNE      0x2604 ; init_I2C_BMP180 + 116
        0x000025aa:    e020         .      B        0x25ee ; init_I2C_BMP180 + 94
        0x000025ac:    21d0        .!      MOVS     r1,#0xd0
        0x000025ae:    4668        hF      MOV      r0,sp
        0x000025b0:    7401        .t      STRB     r1,[r0,#0x10]
        0x000025b2:    2141        A!      MOVS     r1,#0x41
        0x000025b4:    7501        .u      STRB     r1,[r0,#0x14]
        0x000025b6:    aa04        ..      ADD      r2,sp,#0x10
        0x000025b8:    2130        0!      MOVS     r1,#0x30
        0x000025ba:    2001        .       MOVS     r0,#1
        0x000025bc:    f7feff8e    ....    BL       PinCtrl_GIOSet ; 0x14dc
        0x000025c0:    e020         .      B        0x2604 ; init_I2C_BMP180 + 116
        0x000025c2:    21f0        .!      MOVS     r1,#0xf0
        0x000025c4:    4668        hF      MOV      r0,sp
        0x000025c6:    7401        .t      STRB     r1,[r0,#0x10]
        0x000025c8:    2141        A!      MOVS     r1,#0x41
        0x000025ca:    7501        .u      STRB     r1,[r0,#0x14]
        0x000025cc:    aa04        ..      ADD      r2,sp,#0x10
        0x000025ce:    2103        .!      MOVS     r1,#3
        0x000025d0:    2002        .       MOVS     r0,#2
        0x000025d2:    f7feff83    ....    BL       PinCtrl_GIOSet ; 0x14dc
        0x000025d6:    e015        ..      B        0x2604 ; init_I2C_BMP180 + 116
        0x000025d8:    21d0        .!      MOVS     r1,#0xd0
        0x000025da:    4668        hF      MOV      r0,sp
        0x000025dc:    7401        .t      STRB     r1,[r0,#0x10]
        0x000025de:    2141        A!      MOVS     r1,#0x41
        0x000025e0:    7501        .u      STRB     r1,[r0,#0x14]
        0x000025e2:    aa04        ..      ADD      r2,sp,#0x10
        0x000025e4:    21c0        .!      MOVS     r1,#0xc0
        0x000025e6:    2002        .       MOVS     r0,#2
        0x000025e8:    f7feff78    ..x.    BL       PinCtrl_GIOSet ; 0x14dc
        0x000025ec:    e00a        ..      B        0x2604 ; init_I2C_BMP180 + 116
        0x000025ee:    21f0        .!      MOVS     r1,#0xf0
        0x000025f0:    4668        hF      MOV      r0,sp
        0x000025f2:    7401        .t      STRB     r1,[r0,#0x10]
        0x000025f4:    2141        A!      MOVS     r1,#0x41
        0x000025f6:    7501        .u      STRB     r1,[r0,#0x14]
        0x000025f8:    aa04        ..      ADD      r2,sp,#0x10
        0x000025fa:    210c        .!      MOVS     r1,#0xc
        0x000025fc:    2003        .       MOVS     r0,#3
        0x000025fe:    f7feff6d    ..m.    BL       PinCtrl_GIOSet ; 0x14dc
        0x00002602:    bf00        ..      NOP      
        0x00002604:    bf00        ..      NOP      
        0x00002606:    2000        .       MOVS     r0,#0
        0x00002608:    2108        .!      MOVS     r1,#8
        0x0000260a:    2301        .#      MOVS     r3,#1
        0x0000260c:    9101        ..      STR      r1,[sp,#4]
        0x0000260e:    9300        ..      STR      r3,[sp,#0]
        0x00002610:    9102        ..      STR      r1,[sp,#8]
        0x00002612:    9003        ..      STR      r0,[sp,#0xc]
        0x00002614:    462b        +F      MOV      r3,r5
        0x00002616:    2201        ."      MOVS     r2,#1
        0x00002618:    4621        !F      MOV      r1,r4
        0x0000261a:    4802        .H      LDR      r0,[pc,#8] ; [0x2624] = 0x40020000
        0x0000261c:    f7fefdfc    ....    BL       I2C_MasterConfig ; 0x1218
        0x00002620:    b006        ..      ADD      sp,sp,#0x18
        0x00002622:    bd70        p.      POP      {r4-r6,pc}
    $d
        0x00002624:    40020000    ...@    DCD    1073872896
    $t
    i.init_beep
    init_beep
        0x00002628:    b510        ..      PUSH     {r4,lr}
        0x0000262a:    b08c        ..      SUB      sp,sp,#0x30
        0x0000262c:    2100        .!      MOVS     r1,#0
        0x0000262e:    a808        ..      ADD      r0,sp,#0x20
        0x00002630:    7301        .s      STRB     r1,[r0,#0xc]
        0x00002632:    2002        .       MOVS     r0,#2
        0x00002634:    9009        ..      STR      r0,[sp,#0x24]
        0x00002636:    480d        .H      LDR      r0,[pc,#52] ; [0x266c] = 0xbb8
        0x00002638:    900a        ..      STR      r0,[sp,#0x28]
        0x0000263a:    217d        }!      MOVS     r1,#0x7d
        0x0000263c:    0109        ..      LSLS     r1,r1,#4
        0x0000263e:    9108        ..      STR      r1,[sp,#0x20]
        0x00002640:    2100        .!      MOVS     r1,#0
        0x00002642:    9107        ..      STR      r1,[sp,#0x1c]
        0x00002644:    2101        .!      MOVS     r1,#1
        0x00002646:    4668        hF      MOV      r0,sp
        0x00002648:    7501        .u      STRB     r1,[r0,#0x14]
        0x0000264a:    a801        ..      ADD      r0,sp,#4
        0x0000264c:    7501        .u      STRB     r1,[r0,#0x14]
        0x0000264e:    74c1        .t      STRB     r1,[r0,#0x13]
        0x00002650:    7481        .t      STRB     r1,[r0,#0x12]
        0x00002652:    2100        .!      MOVS     r1,#0
        0x00002654:    7441        At      STRB     r1,[r0,#0x11]
        0x00002656:    a901        ..      ADD      r1,sp,#4
        0x00002658:    4805        .H      LDR      r0,[pc,#20] ; [0x2670] = 0x4003b000
        0x0000265a:    f7fffd1d    ....    BL       apPWM_Config ; 0x2098
        0x0000265e:    4604        .F      MOV      r4,r0
        0x00002660:    21f0        .!      MOVS     r1,#0xf0
        0x00002662:    4804        .H      LDR      r0,[pc,#16] ; [0x2674] = 0x40040038
        0x00002664:    7041        Ap      STRB     r1,[r0,#1]
        0x00002666:    4620         F      MOV      r0,r4
        0x00002668:    b00c        ..      ADD      sp,sp,#0x30
        0x0000266a:    bd10        ..      POP      {r4,pc}
    $d
        0x0000266c:    00000bb8    ....    DCD    3000
        0x00002670:    4003b000    ...@    DCD    1073983488
        0x00002674:    40040038    8..@    DCD    1074004024
    $t
    i.ledControl_init
    ledControl_init
        0x00002678:    b5ff        ..      PUSH     {r0-r7,lr}
        0x0000267a:    b081        ..      SUB      sp,sp,#4
        0x0000267c:    4606        .F      MOV      r6,r0
        0x0000267e:    460f        .F      MOV      r7,r1
        0x00002680:    461d        .F      MOV      r5,r3
        0x00002682:    481d        .H      LDR      r0,[pc,#116] ; [0x26f8] = 0x20000058
        0x00002684:    6006        .`      STR      r6,[r0,#0]
        0x00002686:    481d        .H      LDR      r0,[pc,#116] ; [0x26fc] = 0x2000005c
        0x00002688:    6007        .`      STR      r7,[r0,#0]
        0x0000268a:    491d        .I      LDR      r1,[pc,#116] ; [0x2700] = 0x20000060
        0x0000268c:    9803        ..      LDR      r0,[sp,#0xc]
        0x0000268e:    6008        .`      STR      r0,[r1,#0]
        0x00002690:    2d00        .-      CMP      r5,#0
        0x00002692:    dd01        ..      BLE      0x2698 ; ledControl_init + 32
        0x00002694:    2d10        .-      CMP      r5,#0x10
        0x00002696:    dd00        ..      BLE      0x269a ; ledControl_init + 34
        0x00002698:    2510        .%      MOVS     r5,#0x10
        0x0000269a:    481a        .H      LDR      r0,[pc,#104] ; [0x2704] = 0x20000064
        0x0000269c:    7005        .p      STRB     r5,[r0,#0]
        0x0000269e:    4818        .H      LDR      r0,[pc,#96] ; [0x2700] = 0x20000060
        0x000026a0:    6801        .h      LDR      r1,[r0,#0]
        0x000026a2:    2001        .       MOVS     r0,#1
        0x000026a4:    0780        ..      LSLS     r0,r0,#30
        0x000026a6:    6141        Aa      STR      r1,[r0,#0x14]
        0x000026a8:    4813        .H      LDR      r0,[pc,#76] ; [0x26f8] = 0x20000058
        0x000026aa:    6006        .`      STR      r6,[r0,#0]
        0x000026ac:    2000        .       MOVS     r0,#0
        0x000026ae:    e003        ..      B        0x26b8 ; ledControl_init + 64
        0x000026b0:    2100        .!      MOVS     r1,#0
        0x000026b2:    4a15        .J      LDR      r2,[pc,#84] ; [0x2708] = 0x20000204
        0x000026b4:    5411        .T      STRB     r1,[r2,r0]
        0x000026b6:    1c40        @.      ADDS     r0,r0,#1
        0x000026b8:    2840        @(      CMP      r0,#0x40
        0x000026ba:    dbf9        ..      BLT      0x26b0 ; ledControl_init + 56
        0x000026bc:    2400        .$      MOVS     r4,#0
        0x000026be:    e015        ..      B        0x26ec ; ledControl_init + 116
        0x000026c0:    b2e0        ..      UXTB     r0,r4
        0x000026c2:    2200        ."      MOVS     r2,#0
        0x000026c4:    210f        .!      MOVS     r1,#0xf
        0x000026c6:    f001f901    ....    BL       spiTransfer ; 0x38cc
        0x000026ca:    2107        .!      MOVS     r1,#7
        0x000026cc:    4620         F      MOV      r0,r4
        0x000026ce:    f001f8c9    ....    BL       setScanLimit ; 0x3864
        0x000026d2:    b2e0        ..      UXTB     r0,r4
        0x000026d4:    2200        ."      MOVS     r2,#0
        0x000026d6:    2109        .!      MOVS     r1,#9
        0x000026d8:    f001f8f8    ....    BL       spiTransfer ; 0x38cc
        0x000026dc:    4620         F      MOV      r0,r4
        0x000026de:    f7fffdd9    ....    BL       clearDisplay ; 0x2294
        0x000026e2:    2100        .!      MOVS     r1,#0
        0x000026e4:    4620         F      MOV      r0,r4
        0x000026e6:    f001f8d5    ....    BL       shutdown ; 0x3894
        0x000026ea:    1c64        d.      ADDS     r4,r4,#1
        0x000026ec:    4805        .H      LDR      r0,[pc,#20] ; [0x2704] = 0x20000064
        0x000026ee:    7800        .x      LDRB     r0,[r0,#0]
        0x000026f0:    4284        .B      CMP      r4,r0
        0x000026f2:    dbe5        ..      BLT      0x26c0 ; ledControl_init + 72
        0x000026f4:    b005        ..      ADD      sp,sp,#0x14
        0x000026f6:    bdf0        ..      POP      {r4-r7,pc}
    $d
        0x000026f8:    20000058    X..     DCD    536871000
        0x000026fc:    2000005c    \..     DCD    536871004
        0x00002700:    20000060    `..     DCD    536871008
        0x00002704:    20000064    d..     DCD    536871012
        0x00002708:    20000204    ...     DCD    536871428
    $t
    i.ledSetup
    ledSetup
        0x0000270c:    b510        ..      PUSH     {r4,lr}
        0x0000270e:    2400        .$      MOVS     r4,#0
        0x00002710:    e00b        ..      B        0x272a ; ledSetup + 30
        0x00002712:    2100        .!      MOVS     r1,#0
        0x00002714:    4620         F      MOV      r0,r4
        0x00002716:    f001f8bd    ....    BL       shutdown ; 0x3894
        0x0000271a:    2102        .!      MOVS     r1,#2
        0x0000271c:    4620         F      MOV      r0,r4
        0x0000271e:    f001f865    ..e.    BL       setIntensity ; 0x37ec
        0x00002722:    4620         F      MOV      r0,r4
        0x00002724:    f7fffdb6    ....    BL       clearDisplay ; 0x2294
        0x00002728:    1c64        d.      ADDS     r4,r4,#1
        0x0000272a:    2c11        .,      CMP      r4,#0x11
        0x0000272c:    dbf1        ..      BLT      0x2712 ; ledSetup + 6
        0x0000272e:    bd10        ..      POP      {r4,pc}
    i.loadBufferLong
    loadBufferLong
        0x00002730:    b5f8        ..      PUSH     {r3-r7,lr}
        0x00002732:    4604        .F      MOV      r4,r0
        0x00002734:    460d        .F      MOV      r5,r1
        0x00002736:    2c20         ,      CMP      r4,#0x20
        0x00002738:    db33        3.      BLT      0x27a2 ; loadBufferLong + 114
        0x0000273a:    2c7f        .,      CMP      r4,#0x7f
        0x0000273c:    dc31        1.      BGT      0x27a2 ; loadBufferLong + 114
        0x0000273e:    2000        .       MOVS     r0,#0
        0x00002740:    e012        ..      B        0x2768 ; loadBufferLong + 56
        0x00002742:    4623        #F      MOV      r3,r4
        0x00002744:    3b20         ;      SUBS     r3,r3,#0x20
        0x00002746:    00db        ..      LSLS     r3,r3,#3
        0x00002748:    4f16        .O      LDR      r7,[pc,#88] ; [0x27a4] = 0x3a69
        0x0000274a:    19db        ..      ADDS     r3,r3,r7
        0x0000274c:    5c1a        .\      LDRB     r2,[r3,r0]
        0x0000274e:    0083        ..      LSLS     r3,r0,#2
        0x00002750:    18c3        ..      ADDS     r3,r0,r3
        0x00002752:    009b        ..      LSLS     r3,r3,#2
        0x00002754:    4f14        .O      LDR      r7,[pc,#80] ; [0x27a8] = 0x20000074
        0x00002756:    58f9        .X      LDR      r1,[r7,r3]
        0x00002758:    460b        .F      MOV      r3,r1
        0x0000275a:    4313        .C      ORRS     r3,r3,r2
        0x0000275c:    4619        .F      MOV      r1,r3
        0x0000275e:    0083        ..      LSLS     r3,r0,#2
        0x00002760:    18c3        ..      ADDS     r3,r0,r3
        0x00002762:    009b        ..      LSLS     r3,r3,#2
        0x00002764:    50f9        .P      STR      r1,[r7,r3]
        0x00002766:    1c40        @.      ADDS     r0,r0,#1
        0x00002768:    2807        .(      CMP      r0,#7
        0x0000276a:    dbea        ..      BLT      0x2742 ; loadBufferLong + 18
        0x0000276c:    4620         F      MOV      r0,r4
        0x0000276e:    3820         8      SUBS     r0,r0,#0x20
        0x00002770:    00c0        ..      LSLS     r0,r0,#3
        0x00002772:    490c        .I      LDR      r1,[pc,#48] ; [0x27a4] = 0x3a69
        0x00002774:    1840        @.      ADDS     r0,r0,r1
        0x00002776:    79c6        .y      LDRB     r6,[r0,#7]
        0x00002778:    2700        .'      MOVS     r7,#0
        0x0000277a:    e00f        ..      B        0x279c ; loadBufferLong + 108
        0x0000277c:    2d00        .-      CMP      r5,#0
        0x0000277e:    d102        ..      BNE      0x2786 ; loadBufferLong + 86
        0x00002780:    f000ff36    ..6.    BL       rotateBufferLongLeft ; 0x35f0
        0x00002784:    e003        ..      B        0x278e ; loadBufferLong + 94
        0x00002786:    2d01        .-      CMP      r5,#1
        0x00002788:    d101        ..      BNE      0x278e ; loadBufferLong + 94
        0x0000278a:    f000ff95    ....    BL       rotateBufferLongRight ; 0x36b8
        0x0000278e:    f000fea1    ....    BL       printBufferLong ; 0x34d4
        0x00002792:    2002        .       MOVS     r0,#2
        0x00002794:    f7fffe27    ..'.    BL       delay_ms ; 0x23e6
        0x00002798:    1c78        x.      ADDS     r0,r7,#1
        0x0000279a:    b2c7        ..      UXTB     r7,r0
        0x0000279c:    42b7        .B      CMP      r7,r6
        0x0000279e:    dbed        ..      BLT      0x277c ; loadBufferLong + 76
        0x000027a0:    bf00        ..      NOP      
        0x000027a2:    bdf8        ..      POP      {r3-r7,pc}
    $d
        0x000027a4:    00003a69    i:..    DCD    14953
        0x000027a8:    20000074    t..     DCD    536871028
    $t
    i.main
    main
        0x000027ac:    b090        ..      SUB      sp,sp,#0x40
        0x000027ae:    2001        .       MOVS     r0,#1
        0x000027b0:    a908        ..      ADD      r1,sp,#0x20
        0x000027b2:    7608        .v      STRB     r0,[r1,#0x18]
        0x000027b4:    900d        ..      STR      r0,[sp,#0x34]
        0x000027b6:    a90d        ..      ADD      r1,sp,#0x34
        0x000027b8:    2000        .       MOVS     r0,#0
        0x000027ba:    f7fefc81    ....    BL       GPIO_Init ; 0x10c0
        0x000027be:    2101        .!      MOVS     r1,#1
        0x000027c0:    0788        ..      LSLS     r0,r1,#30
        0x000027c2:    6141        Aa      STR      r1,[r0,#0x14]
        0x000027c4:    2203        ."      MOVS     r2,#3
        0x000027c6:    21e1        .!      MOVS     r1,#0xe1
        0x000027c8:    0249        I.      LSLS     r1,r1,#9
        0x000027ca:    488c        .H      LDR      r0,[pc,#560] ; [0x29fc] = 0x16e3600
        0x000027cc:    f7fffda0    ....    BL       config_uart0 ; 0x2310
        0x000027d0:    a08b        ..      ADR      r0,{pc}+0x230 ; 0x2a00
        0x000027d2:    f7fefefd    ....    BL       __0printf ; 0x15d0
        0x000027d6:    a08a        ..      ADR      r0,{pc}+0x22a ; 0x2a00
        0x000027d8:    f7fefefa    ....    BL       __0printf ; 0x15d0
        0x000027dc:    a08a        ..      ADR      r0,{pc}+0x22c ; 0x2a08
        0x000027de:    f7fefef7    ....    BL       __0printf ; 0x15d0
        0x000027e2:    a087        ..      ADR      r0,{pc}+0x21e ; 0x2a00
        0x000027e4:    f7fefef4    ....    BL       __0printf ; 0x15d0
        0x000027e8:    a085        ..      ADR      r0,{pc}+0x218 ; 0x2a00
        0x000027ea:    f7fefef1    ....    BL       __0printf ; 0x15d0
        0x000027ee:    bf00        ..      NOP      
        0x000027f0:    4891        .H      LDR      r0,[pc,#580] ; [0x2a38] = 0x40010000
        0x000027f2:    f7fffd05    ....    BL       apUART_Check_BUSY ; 0x2200
        0x000027f6:    2801        .(      CMP      r0,#1
        0x000027f8:    d0fa        ..      BEQ      0x27f0 ; main + 68
        0x000027fa:    f7ffff15    ....    BL       init_beep ; 0x2628
        0x000027fe:    f7fefeb1    ....    BL       Spi_init ; 0x1564
        0x00002802:    2310        .#      MOVS     r3,#0x10
        0x00002804:    011a        ..      LSLS     r2,r3,#4
        0x00002806:    0051        Q.      LSLS     r1,r2,#1
        0x00002808:    0088        ..      LSLS     r0,r1,#2
        0x0000280a:    f7ffff35    ..5.    BL       ledControl_init ; 0x2678
        0x0000280e:    f7ffff7d    ..}.    BL       ledSetup ; 0x270c
        0x00002812:    f7fffd61    ..a.    BL       clearScreen ; 0x22d8
        0x00002816:    20ff        .       MOVS     r0,#0xff
        0x00002818:    302d        -0      ADDS     r0,r0,#0x2d
        0x0000281a:    f7fffde4    ....    BL       delay_ms ; 0x23e6
        0x0000281e:    2200        ."      MOVS     r2,#0
        0x00002820:    2101        .!      MOVS     r1,#1
        0x00002822:    2077        w       MOVS     r0,#0x77
        0x00002824:    f7fffeb4    ....    BL       init_I2C_BMP180 ; 0x2590
        0x00002828:    f7fefbd6    ....    BL       BMP180_read_calibration ; 0xfd8
        0x0000282c:    2100        .!      MOVS     r1,#0
        0x0000282e:    2037        7       MOVS     r0,#0x37
        0x00002830:    f7ffff7e    ..~.    BL       loadBufferLong ; 0x2730
        0x00002834:    2001        .       MOVS     r0,#1
        0x00002836:    f7fffddf    ....    BL       delay_s ; 0x23f8
        0x0000283a:    f000fe4b    ..K.    BL       printBufferLong ; 0x34d4
        0x0000283e:    e0dc        ..      B        0x29fa ; main + 590
        0x00002840:    bf00        ..      NOP      
        0x00002842:    487d        }H      LDR      r0,[pc,#500] ; [0x2a38] = 0x40010000
        0x00002844:    f7fffce1    ....    BL       apUART_Check_RXFIFO_EMPTY ; 0x220a
        0x00002848:    2801        .(      CMP      r0,#1
        0x0000284a:    d0fa        ..      BEQ      0x2842 ; main + 150
        0x0000284c:    f7fefe6a    ..j.    BL       SER_GetChar ; 0x1524
        0x00002850:    b287        ..      UXTH     r7,r0
        0x00002852:    2f35        5/      CMP      r7,#0x35
        0x00002854:    d020         .      BEQ      0x2898 ; main + 236
        0x00002856:    dc08        ..      BGT      0x286a ; main + 190
        0x00002858:    2f31        1/      CMP      r7,#0x31
        0x0000285a:    d00f        ..      BEQ      0x287c ; main + 208
        0x0000285c:    2f32        2/      CMP      r7,#0x32
        0x0000285e:    d012        ..      BEQ      0x2886 ; main + 218
        0x00002860:    2f33        3/      CMP      r7,#0x33
        0x00002862:    d026        &.      BEQ      0x28b2 ; main + 262
        0x00002864:    2f34        4/      CMP      r7,#0x34
        0x00002866:    d172        r.      BNE      0x294e ; main + 418
        0x00002868:    e012        ..      B        0x2890 ; main + 228
        0x0000286a:    2f37        7/      CMP      r7,#0x37
        0x0000286c:    d026        &.      BEQ      0x28bc ; main + 272
        0x0000286e:    2f38        8/      CMP      r7,#0x38
        0x00002870:    d028        (.      BEQ      0x28c4 ; main + 280
        0x00002872:    2f39        9/      CMP      r7,#0x39
        0x00002874:    d029        ).      BEQ      0x28ca ; main + 286
        0x00002876:    2f61        a/      CMP      r7,#0x61
        0x00002878:    d1f5        ..      BNE      0x2866 ; main + 186
        0x0000287a:    e069        i.      B        0x2950 ; main + 420
        0x0000287c:    f000feb8    ....    BL       rotateBufferLongLeft ; 0x35f0
        0x00002880:    f000fe28    ..(.    BL       printBufferLong ; 0x34d4
        0x00002884:    e0b8        ..      B        0x29f8 ; main + 588
        0x00002886:    2100        .!      MOVS     r1,#0
        0x00002888:    2037        7       MOVS     r0,#0x37
        0x0000288a:    f7ffff51    ..Q.    BL       loadBufferLong ; 0x2730
        0x0000288e:    e0b3        ..      B        0x29f8 ; main + 588
        0x00002890:    486a        jH      LDR      r0,[pc,#424] ; [0x2a3c] = 0x39f5
        0x00002892:    f000ff8b    ....    BL       scrollMessage ; 0x37ac
        0x00002896:    e0af        ..      B        0x29f8 ; main + 588
        0x00002898:    2100        .!      MOVS     r1,#0
        0x0000289a:    2041        A       MOVS     r0,#0x41
        0x0000289c:    f7ffff48    ..H.    BL       loadBufferLong ; 0x2730
        0x000028a0:    2100        .!      MOVS     r1,#0
        0x000028a2:    2042        B       MOVS     r0,#0x42
        0x000028a4:    f7ffff44    ..D.    BL       loadBufferLong ; 0x2730
        0x000028a8:    2100        .!      MOVS     r1,#0
        0x000028aa:    2043        C       MOVS     r0,#0x43
        0x000028ac:    f7ffff40    ..@.    BL       loadBufferLong ; 0x2730
        0x000028b0:    e0a2        ..      B        0x29f8 ; main + 588
        0x000028b2:    f000ff01    ....    BL       rotateBufferLongRight ; 0x36b8
        0x000028b6:    f000fe0d    ....    BL       printBufferLong ; 0x34d4
        0x000028ba:    e09d        ..      B        0x29f8 ; main + 588
        0x000028bc:    4860        `H      LDR      r0,[pc,#384] ; [0x2a40] = 0x3a0f
        0x000028be:    f000ff75    ..u.    BL       scrollMessage ; 0x37ac
        0x000028c2:    e099        ..      B        0x29f8 ; main + 588
        0x000028c4:    f000fe06    ....    BL       printBufferLong ; 0x34d4
        0x000028c8:    e096        ..      B        0x29f8 ; main + 588
        0x000028ca:    e03f        ?.      B        0x294c ; main + 416
        0x000028cc:    f7fffd04    ....    BL       clearScreen ; 0x22d8
        0x000028d0:    2001        .       MOVS     r0,#1
        0x000028d2:    f7fffd91    ....    BL       delay_s ; 0x23f8
        0x000028d6:    4859        YH      LDR      r0,[pc,#356] ; [0x2a3c] = 0x39f5
        0x000028d8:    f000ff68    ..h.    BL       scrollMessage ; 0x37ac
        0x000028dc:    2002        .       MOVS     r0,#2
        0x000028de:    f7fffd8b    ....    BL       delay_s ; 0x23f8
        0x000028e2:    2400        .$      MOVS     r4,#0
        0x000028e4:    e005        ..      B        0x28f2 ; main + 326
        0x000028e6:    f000fee7    ....    BL       rotateBufferLongRight ; 0x36b8
        0x000028ea:    f000fdf3    ....    BL       printBufferLong ; 0x34d4
        0x000028ee:    1c60        `.      ADDS     r0,r4,#1
        0x000028f0:    b284        ..      UXTH     r4,r0
        0x000028f2:    2c96        .,      CMP      r4,#0x96
        0x000028f4:    dbf7        ..      BLT      0x28e6 ; main + 314
        0x000028f6:    2002        .       MOVS     r0,#2
        0x000028f8:    f7fffd7e    ..~.    BL       delay_s ; 0x23f8
        0x000028fc:    4850        PH      LDR      r0,[pc,#320] ; [0x2a40] = 0x3a0f
        0x000028fe:    f000ff55    ..U.    BL       scrollMessage ; 0x37ac
        0x00002902:    2002        .       MOVS     r0,#2
        0x00002904:    f7fffd78    ..x.    BL       delay_s ; 0x23f8
        0x00002908:    2400        .$      MOVS     r4,#0
        0x0000290a:    e005        ..      B        0x2918 ; main + 364
        0x0000290c:    f000fed4    ....    BL       rotateBufferLongRight ; 0x36b8
        0x00002910:    f000fde0    ....    BL       printBufferLong ; 0x34d4
        0x00002914:    1c60        `.      ADDS     r0,r4,#1
        0x00002916:    b284        ..      UXTH     r4,r0
        0x00002918:    2c96        .,      CMP      r4,#0x96
        0x0000291a:    dbf7        ..      BLT      0x290c ; main + 352
        0x0000291c:    207d        }       MOVS     r0,#0x7d
        0x0000291e:    0100        ..      LSLS     r0,r0,#4
        0x00002920:    f7fffd61    ..a.    BL       delay_ms ; 0x23e6
        0x00002924:    4847        GH      LDR      r0,[pc,#284] ; [0x2a44] = 0x3a44
        0x00002926:    f000ff41    ..A.    BL       scrollMessage ; 0x37ac
        0x0000292a:    2002        .       MOVS     r0,#2
        0x0000292c:    f7fffd64    ..d.    BL       delay_s ; 0x23f8
        0x00002930:    2400        .$      MOVS     r4,#0
        0x00002932:    e005        ..      B        0x2940 ; main + 404
        0x00002934:    f000fe5c    ..\.    BL       rotateBufferLongLeft ; 0x35f0
        0x00002938:    f000fdcc    ....    BL       printBufferLong ; 0x34d4
        0x0000293c:    1c60        `.      ADDS     r0,r4,#1
        0x0000293e:    b284        ..      UXTH     r4,r0
        0x00002940:    2c96        .,      CMP      r4,#0x96
        0x00002942:    dbf7        ..      BLT      0x2934 ; main + 392
        0x00002944:    207d        }       MOVS     r0,#0x7d
        0x00002946:    0100        ..      LSLS     r0,r0,#4
        0x00002948:    f7fffd4d    ..M.    BL       delay_ms ; 0x23e6
        0x0000294c:    e7be        ..      B        0x28cc ; main + 288
        0x0000294e:    e052        R.      B        0x29f6 ; main + 586
        0x00002950:    a03d        =.      ADR      r0,{pc}+0xf8 ; 0x2a48
        0x00002952:    f7fefe3d    ..=.    BL       __0printf ; 0x15d0
        0x00002956:    f7fefa31    ..1.    BL       BMP180_getTemperature ; 0xdbc
        0x0000295a:    900c        ..      STR      r0,[sp,#0x30]
        0x0000295c:    980c        ..      LDR      r0,[sp,#0x30]
        0x0000295e:    f7fdfe7e    ..~.    BL       __aeabi_f2d ; 0x65e
        0x00002962:    4605        .F      MOV      r5,r0
        0x00002964:    462a        *F      MOV      r2,r5
        0x00002966:    460b        .F      MOV      r3,r1
        0x00002968:    a040        @.      ADR      r0,{pc}+0x104 ; 0x2a6c
        0x0000296a:    f7fefe31    ..1.    BL       __0printf ; 0x15d0
        0x0000296e:    2000        .       MOVS     r0,#0
        0x00002970:    f7fef8c4    ....    BL       BMP180_calpressure ; 0xafc
        0x00002974:    900b        ..      STR      r0,[sp,#0x2c]
        0x00002976:    4941        AI      LDR      r1,[pc,#260] ; [0x2a7c] = 0x42c80000
        0x00002978:    980b        ..      LDR      r0,[sp,#0x2c]
        0x0000297a:    f7fdfc53    ..S.    BL       __aeabi_fdiv ; 0x224
        0x0000297e:    900b        ..      STR      r0,[sp,#0x2c]
        0x00002980:    980b        ..      LDR      r0,[sp,#0x2c]
        0x00002982:    f7fdfe6c    ..l.    BL       __aeabi_f2d ; 0x65e
        0x00002986:    4605        .F      MOV      r5,r0
        0x00002988:    462a        *F      MOV      r2,r5
        0x0000298a:    460b        .F      MOV      r3,r1
        0x0000298c:    a03c        <.      ADR      r0,{pc}+0xf4 ; 0x2a80
        0x0000298e:    f7fefe1f    ....    BL       __0printf ; 0x15d0
        0x00002992:    493f        ?I      LDR      r1,[pc,#252] ; [0x2a90] = 0x447c0ccd
        0x00002994:    980b        ..      LDR      r0,[sp,#0x2c]
        0x00002996:    f7fef857    ..W.    BL       BMP100_altitude ; 0xa48
        0x0000299a:    900a        ..      STR      r0,[sp,#0x28]
        0x0000299c:    990a        ..      LDR      r1,[sp,#0x28]
        0x0000299e:    980b        ..      LDR      r0,[sp,#0x2c]
        0x000029a0:    f7fef87a    ..z.    BL       BMP100_sealevel ; 0xa98
        0x000029a4:    9009        ..      STR      r0,[sp,#0x24]
        0x000029a6:    980a        ..      LDR      r0,[sp,#0x28]
        0x000029a8:    f7fdfe59    ..Y.    BL       __aeabi_f2d ; 0x65e
        0x000029ac:    4605        .F      MOV      r5,r0
        0x000029ae:    462a        *F      MOV      r2,r5
        0x000029b0:    460b        .F      MOV      r3,r1
        0x000029b2:    a038        8.      ADR      r0,{pc}+0xe2 ; 0x2a94
        0x000029b4:    f7fefe0c    ....    BL       __0printf ; 0x15d0
        0x000029b8:    9809        ..      LDR      r0,[sp,#0x24]
        0x000029ba:    f7fdfe50    ..P.    BL       __aeabi_f2d ; 0x65e
        0x000029be:    4605        .F      MOV      r5,r0
        0x000029c0:    462a        *F      MOV      r2,r5
        0x000029c2:    460b        .F      MOV      r3,r1
        0x000029c4:    a038        8.      ADR      r0,{pc}+0xe4 ; 0x2aa8
        0x000029c6:    f7fefe03    ....    BL       __0printf ; 0x15d0
        0x000029ca:    980b        ..      LDR      r0,[sp,#0x2c]
        0x000029cc:    f7fdfe47    ..G.    BL       __aeabi_f2d ; 0x65e
        0x000029d0:    4605        .F      MOV      r5,r0
        0x000029d2:    460e        .F      MOV      r6,r1
        0x000029d4:    980c        ..      LDR      r0,[sp,#0x30]
        0x000029d6:    f7fdfe42    ..B.    BL       __aeabi_f2d ; 0x65e
        0x000029da:    4602        .F      MOV      r2,r0
        0x000029dc:    460b        .F      MOV      r3,r1
        0x000029de:    9601        ..      STR      r6,[sp,#4]
        0x000029e0:    9500        ..      STR      r5,[sp,#0]
        0x000029e2:    9103        ..      STR      r1,[sp,#0xc]
        0x000029e4:    9002        ..      STR      r0,[sp,#8]
        0x000029e6:    a135        5.      ADR      r1,{pc}+0xd6 ; 0x2abc
        0x000029e8:    a804        ..      ADD      r0,sp,#0x10
        0x000029ea:    f7fefe01    ....    BL       __0sprintf ; 0x15f0
        0x000029ee:    a804        ..      ADD      r0,sp,#0x10
        0x000029f0:    f000fedc    ....    BL       scrollMessage ; 0x37ac
        0x000029f4:    e000        ..      B        0x29f8 ; main + 588
        0x000029f6:    bf00        ..      NOP      
        0x000029f8:    bf00        ..      NOP      
        0x000029fa:    e721        !.      B        0x2840 ; main + 148
    $d
        0x000029fc:    016e3600    .6n.    DCD    24000000
        0x00002a00:    203e3d3d    ==>     DCD    540949821
        0x00002a04:    0000000a    ....    DCD    10
        0x00002a08:    203e3d3d    ==>     DCD    540949821
        0x00002a0c:    30504d42    BMP0    DCD    810569026
        0x00002a10:    312f3538    85/1    DCD    825177400
        0x00002a14:    2b203038    80 +    DCD    723529784
        0x00002a18:    58414d20     MAX    DCD    1480674592
        0x00002a1c:    39313237    7219    DCD    959525431
        0x00002a20:    6e6f6320     con    DCD    1852793632
        0x00002a24:    6c6f7274    trol    DCD    1819243124
        0x00002a28:    44454c20     LED    DCD    1145392160
        0x00002a2c:    74614d20     Mat    DCD    1952533792
        0x00002a30:    20786972    rix     DCD    544762226
        0x00002a34:    0000000a    ....    DCD    10
        0x00002a38:    40010000    ...@    DCD    1073807360
        0x00002a3c:    000039f5    .9..    DCD    14837
        0x00002a40:    00003a0f    .:..    DCD    14863
        0x00002a44:    00003a44    D:..    DCD    14916
        0x00002a48:    31504d42    BMP1    DCD    827346242
        0x00002a4c:    74203038    80 t    DCD    1948266552
        0x00002a50:    65706d65    empe    DCD    1701866853
        0x00002a54:    75746172    ratu    DCD    1970561394
        0x00002a58:    70206572    re p    DCD    1881171314
        0x00002a5c:    73736572    ress    DCD    1936942450
        0x00002a60:    20657275    ure     DCD    543519349
        0x00002a64:    736e6573    sens    DCD    1936614771
        0x00002a68:    000a726f    or..    DCD    684655
        0x00002a6c:    0909540a    .T..    DCD    151606282
        0x00002a70:    2e25093a    :.%.    DCD    774179130
        0x00002a74:    43206631    1f C    DCD    1126196785
        0x00002a78:    0000000a    ....    DCD    10
        0x00002a7c:    42c80000    ...B    DCD    1120403456
        0x00002a80:    3a090970    p..:    DCD    973670768
        0x00002a84:    312e2509    .%.1    DCD    825107721
        0x00002a88:    50682066    f hP    DCD    1349001318
        0x00002a8c:    00000a61    a...    DCD    2657
        0x00002a90:    447c0ccd    ..|D    DCD    1148980429
        0x00002a94:    69746c41    Alti    DCD    1769237569
        0x00002a98:    65647574    tude    DCD    1701082484
        0x00002a9c:    25093a09    .:.%    DCD    621361673
        0x00002aa0:    0a6d2066    f m.    DCD    174923878
        0x00002aa4:    00000000    ....    DCD    0
        0x00002aa8:    6c616553    Seal    DCD    1818322259
        0x00002aac:    6c657665    evel    DCD    1818588773
        0x00002ab0:    25093a09    .:.%    DCD    621361673
        0x00002ab4:    0a6d2066    f m.    DCD    174923878
        0x00002ab8:    0000000a    ....    DCD    10
        0x00002abc:    2e252020      %.    DCD    774184992
        0x00002ac0:    43206631    1f C    DCD    1126196785
        0x00002ac4:    20202020            DCD    538976288
        0x00002ac8:    20202020            DCD    538976288
        0x00002acc:    66312e25    %.1f    DCD    1714499109
        0x00002ad0:    20615020     Pa     DCD    543248416
        0x00002ad4:    00000020     ...    DCD    32
    $t
    i.pow
    pow
        0x00002ad8:    b5f0        ..      PUSH     {r4-r7,lr}
        0x00002ada:    b41f        ..      PUSH     {r0-r4}
        0x00002adc:    b096        ..      SUB      sp,sp,#0x58
        0x00002ade:    4684        .F      MOV      r12,r0
        0x00002ae0:    460c        .F      MOV      r4,r1
        0x00002ae2:    4602        .F      MOV      r2,r0
        0x00002ae4:    9d19        ..      LDR      r5,[sp,#0x64]
        0x00002ae6:    9818        ..      LDR      r0,[sp,#0x60]
        0x00002ae8:    9003        ..      STR      r0,[sp,#0xc]
        0x00002aea:    0049        I.      LSLS     r1,r1,#1
        0x00002aec:    0068        h.      LSLS     r0,r5,#1
        0x00002aee:    0063        c.      LSLS     r3,r4,#1
        0x00002af0:    0849        I.      LSRS     r1,r1,#1
        0x00002af2:    0840        @.      LSRS     r0,r0,#1
        0x00002af4:    9301        ..      STR      r3,[sp,#4]
        0x00002af6:    2a00        .*      CMP      r2,#0
        0x00002af8:    d001        ..      BEQ      0x2afe ; pow + 38
        0x00002afa:    2601        .&      MOVS     r6,#1
        0x00002afc:    e000        ..      B        0x2b00 ; pow + 40
        0x00002afe:    2600        .&      MOVS     r6,#0
        0x00002b00:    199e        ..      ADDS     r6,r3,r6
        0x00002b02:    4bfe        .K      LDR      r3,[pc,#1016] ; [0x2efc] = 0x1fffff
        0x00002b04:    18f6        ..      ADDS     r6,r6,r3
        0x00002b06:    105b        [.      ASRS     r3,r3,#1
        0x00002b08:    429e        .B      CMP      r6,r3
        0x00002b0a:    d32b        +.      BCC      0x2b64 ; pow + 140
        0x00002b0c:    006e        n.      LSLS     r6,r5,#1
        0x00002b0e:    9f03        ..      LDR      r7,[sp,#0xc]
        0x00002b10:    9602        ..      STR      r6,[sp,#8]
        0x00002b12:    2f00        ./      CMP      r7,#0
        0x00002b14:    d000        ..      BEQ      0x2b18 ; pow + 64
        0x00002b16:    2701        .'      MOVS     r7,#1
        0x00002b18:    19f7        ..      ADDS     r7,r6,r7
        0x00002b1a:    4ef8        .N      LDR      r6,[pc,#992] ; [0x2efc] = 0x1fffff
        0x00002b1c:    4bf8        .K      LDR      r3,[pc,#992] ; [0x2f00] = 0xfffff
        0x00002b1e:    19be        ..      ADDS     r6,r7,r6
        0x00002b20:    429e        .B      CMP      r6,r3
        0x00002b22:    d31f        ..      BCC      0x2b64 ; pow + 140
        0x00002b24:    9e03        ..      LDR      r6,[sp,#0xc]
        0x00002b26:    4603        .F      MOV      r3,r0
        0x00002b28:    4ff6        .O      LDR      r7,[pc,#984] ; [0x2f04] = 0x3ff00000
        0x00002b2a:    4333        3C      ORRS     r3,r3,r6
        0x00002b2c:    d009        ..      BEQ      0x2b42 ; pow + 106
        0x00002b2e:    463b        ;F      MOV      r3,r7
        0x00002b30:    429c        .B      CMP      r4,r3
        0x00002b32:    d101        ..      BNE      0x2b38 ; pow + 96
        0x00002b34:    2a00        .*      CMP      r2,#0
        0x00002b36:    d004        ..      BEQ      0x2b42 ; pow + 106
        0x00002b38:    9b01        ..      LDR      r3,[sp,#4]
        0x00002b3a:    2a00        .*      CMP      r2,#0
        0x00002b3c:    d005        ..      BEQ      0x2b4a ; pow + 114
        0x00002b3e:    2601        .&      MOVS     r6,#1
        0x00002b40:    e004        ..      B        0x2b4c ; pow + 116
        0x00002b42:    2000        .       MOVS     r0,#0
        0x00002b44:    4639        9F      MOV      r1,r7
        0x00002b46:    b01b        ..      ADD      sp,sp,#0x6c
        0x00002b48:    bdf0        ..      POP      {r4-r7,pc}
        0x00002b4a:    2600        .&      MOVS     r6,#0
        0x00002b4c:    199e        ..      ADDS     r6,r3,r6
        0x00002b4e:    4bee        .K      LDR      r3,[pc,#952] ; [0x2f08] = 0xffe00000
        0x00002b50:    429e        .B      CMP      r6,r3
        0x00002b52:    d807        ..      BHI      0x2b64 ; pow + 140
        0x00002b54:    9f03        ..      LDR      r7,[sp,#0xc]
        0x00002b56:    9e02        ..      LDR      r6,[sp,#8]
        0x00002b58:    2f00        ./      CMP      r7,#0
        0x00002b5a:    d000        ..      BEQ      0x2b5e ; pow + 134
        0x00002b5c:    2701        .'      MOVS     r7,#1
        0x00002b5e:    19f6        ..      ADDS     r6,r6,r7
        0x00002b60:    429e        .B      CMP      r6,r3
        0x00002b62:    d907        ..      BLS      0x2b74 ; pow + 156
        0x00002b64:    462b        +F      MOV      r3,r5
        0x00002b66:    4660        `F      MOV      r0,r12
        0x00002b68:    4621        !F      MOV      r1,r4
        0x00002b6a:    9a18        ..      LDR      r2,[sp,#0x60]
        0x00002b6c:    f7fefdf0    ....    BL       __mathlib_dbl_infnan2 ; 0x1750
        0x00002b70:    b01b        ..      ADD      sp,sp,#0x6c
        0x00002b72:    bdf0        ..      POP      {r4-r7,pc}
        0x00002b74:    2300        .#      MOVS     r3,#0
        0x00002b76:    2c00        .,      CMP      r4,#0
        0x00002b78:    da29        ).      BGE      0x2bce ; pow + 246
        0x00002b7a:    4ee4        .N      LDR      r6,[pc,#912] ; [0x2f0c] = 0x7ff00000
        0x00002b7c:    42b0        .B      CMP      r0,r6
        0x00002b7e:    da26        &.      BGE      0x2bce ; pow + 246
        0x00002b80:    4ee3        .N      LDR      r6,[pc,#908] ; [0x2f10] = 0x43400000
        0x00002b82:    42b0        .B      CMP      r0,r6
        0x00002b84:    db01        ..      BLT      0x2b8a ; pow + 178
        0x00002b86:    2302        .#      MOVS     r3,#2
        0x00002b88:    e021        !.      B        0x2bce ; pow + 246
        0x00002b8a:    4ede        .N      LDR      r6,[pc,#888] ; [0x2f04] = 0x3ff00000
        0x00002b8c:    42b0        .B      CMP      r0,r6
        0x00002b8e:    db1e        ..      BLT      0x2bce ; pow + 246
        0x00002b90:    4ee0        .N      LDR      r6,[pc,#896] ; [0x2f14] = 0xfffffc01
        0x00002b92:    0d07        ..      LSRS     r7,r0,#20
        0x00002b94:    19be        ..      ADDS     r6,r7,r6
        0x00002b96:    2e14        ..      CMP      r6,#0x14
        0x00002b98:    dd09        ..      BLE      0x2bae ; pow + 214
        0x00002b9a:    2734        4'      MOVS     r7,#0x34
        0x00002b9c:    1bbf        ..      SUBS     r7,r7,r6
        0x00002b9e:    9e03        ..      LDR      r6,[sp,#0xc]
        0x00002ba0:    40fe        .@      LSRS     r6,r6,r7
        0x00002ba2:    9601        ..      STR      r6,[sp,#4]
        0x00002ba4:    40be        .@      LSLS     r6,r6,r7
        0x00002ba6:    9f03        ..      LDR      r7,[sp,#0xc]
        0x00002ba8:    42be        .B      CMP      r6,r7
        0x00002baa:    d00b        ..      BEQ      0x2bc4 ; pow + 236
        0x00002bac:    e00f        ..      B        0x2bce ; pow + 246
        0x00002bae:    9f03        ..      LDR      r7,[sp,#0xc]
        0x00002bb0:    2f00        ./      CMP      r7,#0
        0x00002bb2:    d10c        ..      BNE      0x2bce ; pow + 246
        0x00002bb4:    2714        .'      MOVS     r7,#0x14
        0x00002bb6:    1bbf        ..      SUBS     r7,r7,r6
        0x00002bb8:    4606        .F      MOV      r6,r0
        0x00002bba:    40fe        .@      LSRS     r6,r6,r7
        0x00002bbc:    9601        ..      STR      r6,[sp,#4]
        0x00002bbe:    40be        .@      LSLS     r6,r6,r7
        0x00002bc0:    4286        .B      CMP      r6,r0
        0x00002bc2:    d104        ..      BNE      0x2bce ; pow + 246
        0x00002bc4:    9b01        ..      LDR      r3,[sp,#4]
        0x00002bc6:    07de        ..      LSLS     r6,r3,#31
        0x00002bc8:    0ff6        ..      LSRS     r6,r6,#31
        0x00002bca:    2302        .#      MOVS     r3,#2
        0x00002bcc:    1b9b        ..      SUBS     r3,r3,r6
        0x00002bce:    460e        .F      MOV      r6,r1
        0x00002bd0:    4316        .C      ORRS     r6,r6,r2
        0x00002bd2:    d118        ..      BNE      0x2c06 ; pow + 302
        0x00002bd4:    2d00        .-      CMP      r5,#0
        0x00002bd6:    da16        ..      BGE      0x2c06 ; pow + 302
        0x00002bd8:    2c00        .,      CMP      r4,#0
        0x00002bda:    d003        ..      BEQ      0x2be4 ; pow + 268
        0x00002bdc:    2b02        .+      CMP      r3,#2
        0x00002bde:    d001        ..      BEQ      0x2be4 ; pow + 268
        0x00002be0:    2b01        .+      CMP      r3,#1
        0x00002be2:    d006        ..      BEQ      0x2bf2 ; pow + 282
        0x00002be4:    2002        .       MOVS     r0,#2
        0x00002be6:    f7fefde3    ....    BL       __set_errno ; 0x17b0
        0x00002bea:    f7fefda7    ....    BL       __mathlib_dbl_divzero ; 0x173c
        0x00002bee:    b01b        ..      ADD      sp,sp,#0x6c
        0x00002bf0:    bdf0        ..      POP      {r4-r7,pc}
        0x00002bf2:    2002        .       MOVS     r0,#2
        0x00002bf4:    f7fefddc    ....    BL       __set_errno ; 0x17b0
        0x00002bf8:    f7fefda0    ....    BL       __mathlib_dbl_divzero ; 0x173c
        0x00002bfc:    2201        ."      MOVS     r2,#1
        0x00002bfe:    07d2        ..      LSLS     r2,r2,#31
        0x00002c00:    4051        Q@      EORS     r1,r1,r2
        0x00002c02:    b01b        ..      ADD      sp,sp,#0x6c
        0x00002c04:    bdf0        ..      POP      {r4-r7,pc}
        0x00002c06:    9e03        ..      LDR      r6,[sp,#0xc]
        0x00002c08:    2e00        ..      CMP      r6,#0
        0x00002c0a:    d161        a.      BNE      0x2cd0 ; pow + 504
        0x00002c0c:    4ebf        .N      LDR      r6,[pc,#764] ; [0x2f0c] = 0x7ff00000
        0x00002c0e:    42b0        .B      CMP      r0,r6
        0x00002c10:    d120         .      BNE      0x2c54 ; pow + 380
        0x00002c12:    48c1        .H      LDR      r0,[pc,#772] ; [0x2f18] = 0xbff00000
        0x00002c14:    4284        .B      CMP      r4,r0
        0x00002c16:    d101        ..      BNE      0x2c1c ; pow + 324
        0x00002c18:    2a00        .*      CMP      r2,#0
        0x00002c1a:    d008        ..      BEQ      0x2c2e ; pow + 342
        0x00002c1c:    48b9        .H      LDR      r0,[pc,#740] ; [0x2f04] = 0x3ff00000
        0x00002c1e:    4281        .B      CMP      r1,r0
        0x00002c20:    db09        ..      BLT      0x2c36 ; pow + 350
        0x00002c22:    2d00        .-      CMP      r5,#0
        0x00002c24:    db10        ..      BLT      0x2c48 ; pow + 368
        0x00002c26:    9818        ..      LDR      r0,[sp,#0x60]
        0x00002c28:    4629        )F      MOV      r1,r5
        0x00002c2a:    b01b        ..      ADD      sp,sp,#0x6c
        0x00002c2c:    bdf0        ..      POP      {r4-r7,pc}
        0x00002c2e:    2000        .       MOVS     r0,#0
        0x00002c30:    49b4        .I      LDR      r1,[pc,#720] ; [0x2f04] = 0x3ff00000
        0x00002c32:    b01b        ..      ADD      sp,sp,#0x6c
        0x00002c34:    bdf0        ..      POP      {r4-r7,pc}
        0x00002c36:    2d00        .-      CMP      r5,#0
        0x00002c38:    da06        ..      BGE      0x2c48 ; pow + 368
        0x00002c3a:    2201        ."      MOVS     r2,#1
        0x00002c3c:    4629        )F      MOV      r1,r5
        0x00002c3e:    07d2        ..      LSLS     r2,r2,#31
        0x00002c40:    9818        ..      LDR      r0,[sp,#0x60]
        0x00002c42:    4051        Q@      EORS     r1,r1,r2
        0x00002c44:    b01b        ..      ADD      sp,sp,#0x6c
        0x00002c46:    bdf0        ..      POP      {r4-r7,pc}
        0x00002c48:    49b4        .I      LDR      r1,[pc,#720] ; [0x2f1c] = 0x11b2
        0x00002c4a:    4479        yD      ADD      r1,r1,pc
        0x00002c4c:    6808        .h      LDR      r0,[r1,#0]
        0x00002c4e:    6849        Ih      LDR      r1,[r1,#4]
        0x00002c50:    b01b        ..      ADD      sp,sp,#0x6c
        0x00002c52:    bdf0        ..      POP      {r4-r7,pc}
        0x00002c54:    4fab        .O      LDR      r7,[pc,#684] ; [0x2f04] = 0x3ff00000
        0x00002c56:    42b8        .B      CMP      r0,r7
        0x00002c58:    d125        %.      BNE      0x2ca6 ; pow + 462
        0x00002c5a:    2d00        .-      CMP      r5,#0
        0x00002c5c:    da1f        ..      BGE      0x2c9e ; pow + 454
        0x00002c5e:    2900        .)      CMP      r1,#0
        0x00002c60:    d004        ..      BEQ      0x2c6c ; pow + 404
        0x00002c62:    42b1        .B      CMP      r1,r6
        0x00002c64:    d112        ..      BNE      0x2c8c ; pow + 436
        0x00002c66:    2a00        .*      CMP      r2,#0
        0x00002c68:    d009        ..      BEQ      0x2c7e ; pow + 422
        0x00002c6a:    e018        ..      B        0x2c9e ; pow + 454
        0x00002c6c:    2a00        .*      CMP      r2,#0
        0x00002c6e:    d172        r.      BNE      0x2d56 ; pow + 638
        0x00002c70:    49a6        .I      LDR      r1,[pc,#664] ; [0x2f0c] = 0x7ff00000
        0x00002c72:    0fe2        ..      LSRS     r2,r4,#31
        0x00002c74:    2000        .       MOVS     r0,#0
        0x00002c76:    07d2        ..      LSLS     r2,r2,#31
        0x00002c78:    4311        .C      ORRS     r1,r1,r2
        0x00002c7a:    b01b        ..      ADD      sp,sp,#0x6c
        0x00002c7c:    bdf0        ..      POP      {r4-r7,pc}
        0x00002c7e:    2000        .       MOVS     r0,#0
        0x00002c80:    0fe2        ..      LSRS     r2,r4,#31
        0x00002c82:    4601        .F      MOV      r1,r0
        0x00002c84:    07d2        ..      LSLS     r2,r2,#31
        0x00002c86:    4311        .C      ORRS     r1,r1,r2
        0x00002c88:    b01b        ..      ADD      sp,sp,#0x6c
        0x00002c8a:    bdf0        ..      POP      {r4-r7,pc}
        0x00002c8c:    42b1        .B      CMP      r1,r6
        0x00002c8e:    da06        ..      BGE      0x2c9e ; pow + 454
        0x00002c90:    4623        #F      MOV      r3,r4
        0x00002c92:    2000        .       MOVS     r0,#0
        0x00002c94:    4639        9F      MOV      r1,r7
        0x00002c96:    f7fdfc1d    ....    BL       __aeabi_ddiv ; 0x4d4
        0x00002c9a:    b01b        ..      ADD      sp,sp,#0x6c
        0x00002c9c:    bdf0        ..      POP      {r4-r7,pc}
        0x00002c9e:    4610        .F      MOV      r0,r2
        0x00002ca0:    4621        !F      MOV      r1,r4
        0x00002ca2:    b01b        ..      ADD      sp,sp,#0x6c
        0x00002ca4:    bdf0        ..      POP      {r4-r7,pc}
        0x00002ca6:    42b1        .B      CMP      r1,r6
        0x00002ca8:    da12        ..      BGE      0x2cd0 ; pow + 504
        0x00002caa:    2601        .&      MOVS     r6,#1
        0x00002cac:    07b6        ..      LSLS     r6,r6,#30
        0x00002cae:    42b5        .B      CMP      r5,r6
        0x00002cb0:    d103        ..      BNE      0x2cba ; pow + 482
        0x00002cb2:    4623        #F      MOV      r3,r4
        0x00002cb4:    4610        .F      MOV      r0,r2
        0x00002cb6:    4619        .F      MOV      r1,r3
        0x00002cb8:    e3fe        ..      B        0x34b8 ; pow + 2528
        0x00002cba:    4e99        .N      LDR      r6,[pc,#612] ; [0x2f20] = 0x3fe00000
        0x00002cbc:    42b5        .B      CMP      r5,r6
        0x00002cbe:    d107        ..      BNE      0x2cd0 ; pow + 504
        0x00002cc0:    1e26        &.      SUBS     r6,r4,#0
        0x00002cc2:    db05        ..      BLT      0x2cd0 ; pow + 504
        0x00002cc4:    4610        .F      MOV      r0,r2
        0x00002cc6:    4631        1F      MOV      r1,r6
        0x00002cc8:    f000fe44    ..D.    BL       sqrt ; 0x3954
        0x00002ccc:    b01b        ..      ADD      sp,sp,#0x6c
        0x00002cce:    bdf0        ..      POP      {r4-r7,pc}
        0x00002cd0:    0067        g.      LSLS     r7,r4,#1
        0x00002cd2:    087f        ..      LSRS     r7,r7,#1
        0x00002cd4:    4616        .F      MOV      r6,r2
        0x00002cd6:    2a00        .*      CMP      r2,#0
        0x00002cd8:    d140        @.      BNE      0x2d5c ; pow + 644
        0x00002cda:    2900        .)      CMP      r1,#0
        0x00002cdc:    d00a        ..      BEQ      0x2cf4 ; pow + 540
        0x00002cde:    4a8b        .J      LDR      r2,[pc,#556] ; [0x2f0c] = 0x7ff00000
        0x00002ce0:    4291        .B      CMP      r1,r2
        0x00002ce2:    d129        ).      BNE      0x2d38 ; pow + 608
        0x00002ce4:    2c00        .,      CMP      r4,#0
        0x00002ce6:    dd0e        ..      BLE      0x2d06 ; pow + 558
        0x00002ce8:    2d00        .-      CMP      r5,#0
        0x00002cea:    db1c        ..      BLT      0x2d26 ; pow + 590
        0x00002cec:    2000        .       MOVS     r0,#0
        0x00002cee:    4611        .F      MOV      r1,r2
        0x00002cf0:    b01b        ..      ADD      sp,sp,#0x6c
        0x00002cf2:    bdf0        ..      POP      {r4-r7,pc}
        0x00002cf4:    2b02        .+      CMP      r3,#2
        0x00002cf6:    d016        ..      BEQ      0x2d26 ; pow + 590
        0x00002cf8:    2c00        .,      CMP      r4,#0
        0x00002cfa:    d014        ..      BEQ      0x2d26 ; pow + 590
        0x00002cfc:    2b01        .+      CMP      r3,#1
        0x00002cfe:    d112        ..      BNE      0x2d26 ; pow + 590
        0x00002d00:    2c00        .,      CMP      r4,#0
        0x00002d02:    db14        ..      BLT      0x2d2e ; pow + 598
        0x00002d04:    e00f        ..      B        0x2d26 ; pow + 590
        0x00002d06:    2c00        .,      CMP      r4,#0
        0x00002d08:    da28        (.      BGE      0x2d5c ; pow + 644
        0x00002d0a:    2d00        .-      CMP      r5,#0
        0x00002d0c:    db09        ..      BLT      0x2d22 ; pow + 586
        0x00002d0e:    2b01        .+      CMP      r3,#1
        0x00002d10:    d003        ..      BEQ      0x2d1a ; pow + 578
        0x00002d12:    2000        .       MOVS     r0,#0
        0x00002d14:    497d        }I      LDR      r1,[pc,#500] ; [0x2f0c] = 0x7ff00000
        0x00002d16:    b01b        ..      ADD      sp,sp,#0x6c
        0x00002d18:    bdf0        ..      POP      {r4-r7,pc}
        0x00002d1a:    2000        .       MOVS     r0,#0
        0x00002d1c:    4981        .I      LDR      r1,[pc,#516] ; [0x2f24] = 0xfff00000
        0x00002d1e:    b01b        ..      ADD      sp,sp,#0x6c
        0x00002d20:    bdf0        ..      POP      {r4-r7,pc}
        0x00002d22:    2b01        .+      CMP      r3,#1
        0x00002d24:    d003        ..      BEQ      0x2d2e ; pow + 598
        0x00002d26:    2000        .       MOVS     r0,#0
        0x00002d28:    4601        .F      MOV      r1,r0
        0x00002d2a:    b01b        ..      ADD      sp,sp,#0x6c
        0x00002d2c:    bdf0        ..      POP      {r4-r7,pc}
        0x00002d2e:    2000        .       MOVS     r0,#0
        0x00002d30:    2101        .!      MOVS     r1,#1
        0x00002d32:    07c9        ..      LSLS     r1,r1,#31
        0x00002d34:    b01b        ..      ADD      sp,sp,#0x6c
        0x00002d36:    bdf0        ..      POP      {r4-r7,pc}
        0x00002d38:    4a72        rJ      LDR      r2,[pc,#456] ; [0x2f04] = 0x3ff00000
        0x00002d3a:    4291        .B      CMP      r1,r2
        0x00002d3c:    d10e        ..      BNE      0x2d5c ; pow + 644
        0x00002d3e:    2c00        .,      CMP      r4,#0
        0x00002d40:    da01        ..      BGE      0x2d46 ; pow + 622
        0x00002d42:    2b00        .+      CMP      r3,#0
        0x00002d44:    d017        ..      BEQ      0x2d76 ; pow + 670
        0x00002d46:    2b02        .+      CMP      r3,#2
        0x00002d48:    d006        ..      BEQ      0x2d58 ; pow + 640
        0x00002d4a:    2000        .       MOVS     r0,#0
        0x00002d4c:    43c0        .C      MVNS     r0,r0
        0x00002d4e:    f7fdfdbf    ....    BL       __aeabi_i2d ; 0x8d0
        0x00002d52:    b01b        ..      ADD      sp,sp,#0x6c
        0x00002d54:    bdf0        ..      POP      {r4-r7,pc}
        0x00002d56:    e290        ..      B        0x327a ; pow + 1954
        0x00002d58:    2001        .       MOVS     r0,#1
        0x00002d5a:    e7f8        ..      B        0x2d4e ; pow + 630
        0x00002d5c:    17e2        ..      ASRS     r2,r4,#31
        0x00002d5e:    1c52        R.      ADDS     r2,r2,#1
        0x00002d60:    4694        .F      MOV      r12,r2
        0x00002d62:    431a        .C      ORRS     r2,r2,r3
        0x00002d64:    d007        ..      BEQ      0x2d76 ; pow + 670
        0x00002d66:    2200        ."      MOVS     r2,#0
        0x00002d68:    9208        ..      STR      r2,[sp,#0x20]
        0x00002d6a:    4c66        fL      LDR      r4,[pc,#408] ; [0x2f04] = 0x3ff00000
        0x00002d6c:    4662        bF      MOV      r2,r12
        0x00002d6e:    1e5b        [.      SUBS     r3,r3,#1
        0x00002d70:    431a        .C      ORRS     r2,r2,r3
        0x00002d72:    d007        ..      BEQ      0x2d84 ; pow + 684
        0x00002d74:    e009        ..      B        0x2d8a ; pow + 690
        0x00002d76:    2001        .       MOVS     r0,#1
        0x00002d78:    f7fefd1a    ....    BL       __set_errno ; 0x17b0
        0x00002d7c:    f7fefcec    ....    BL       __mathlib_dbl_invalid ; 0x1758
        0x00002d80:    b01b        ..      ADD      sp,sp,#0x6c
        0x00002d82:    bdf0        ..      POP      {r4-r7,pc}
        0x00002d84:    2200        ."      MOVS     r2,#0
        0x00002d86:    4c64        dL      LDR      r4,[pc,#400] ; [0x2f18] = 0xbff00000
        0x00002d88:    9208        ..      STR      r2,[sp,#0x20]
        0x00002d8a:    4a67        gJ      LDR      r2,[pc,#412] ; [0x2f28] = 0x41e00000
        0x00002d8c:    4290        .B      CMP      r0,r2
        0x00002d8e:    dd7d        }.      BLE      0x2e8c ; pow + 948
        0x00002d90:    4b66        fK      LDR      r3,[pc,#408] ; [0x2f2c] = 0x43f00000
        0x00002d92:    4a67        gJ      LDR      r2,[pc,#412] ; [0x2f30] = 0x3fefffff
        0x00002d94:    4298        .B      CMP      r0,r3
        0x00002d96:    dd1f        ..      BLE      0x2dd8 ; pow + 768
        0x00002d98:    4291        .B      CMP      r1,r2
        0x00002d9a:    dc02        ..      BGT      0x2da2 ; pow + 714
        0x00002d9c:    2d00        .-      CMP      r5,#0
        0x00002d9e:    db05        ..      BLT      0x2dac ; pow + 724
        0x00002da0:    e04d        M.      B        0x2e3e ; pow + 870
        0x00002da2:    4858        XH      LDR      r0,[pc,#352] ; [0x2f04] = 0x3ff00000
        0x00002da4:    4281        .B      CMP      r1,r0
        0x00002da6:    db17        ..      BLT      0x2dd8 ; pow + 768
        0x00002da8:    2d00        .-      CMP      r5,#0
        0x00002daa:    dd48        H.      BLE      0x2e3e ; pow + 870
        0x00002dac:    2002        .       MOVS     r0,#2
        0x00002dae:    f7fefcff    ....    BL       __set_errno ; 0x17b0
        0x00002db2:    f7fefcd9    ....    BL       __mathlib_dbl_overflow ; 0x1768
        0x00002db6:    4605        .F      MOV      r5,r0
        0x00002db8:    460e        .F      MOV      r6,r1
        0x00002dba:    2200        ."      MOVS     r2,#0
        0x00002dbc:    4b53        SK      LDR      r3,[pc,#332] ; [0x2f0c] = 0x7ff00000
        0x00002dbe:    4621        !F      MOV      r1,r4
        0x00002dc0:    9808        ..      LDR      r0,[sp,#0x20]
        0x00002dc2:    f7fdfb1f    ....    BL       __aeabi_dmul ; 0x404
        0x00002dc6:    4608        .F      MOV      r0,r1
        0x00002dc8:    0071        q.      LSLS     r1,r6,#1
        0x00002dca:    0849        I.      LSRS     r1,r1,#1
        0x00002dcc:    0fc0        ..      LSRS     r0,r0,#31
        0x00002dce:    07c0        ..      LSLS     r0,r0,#31
        0x00002dd0:    4301        .C      ORRS     r1,r1,r0
        0x00002dd2:    4628        (F      MOV      r0,r5
        0x00002dd4:    b01b        ..      ADD      sp,sp,#0x6c
        0x00002dd6:    bdf0        ..      POP      {r4-r7,pc}
        0x00002dd8:    4291        .B      CMP      r1,r2
        0x00002dda:    da15        ..      BGE      0x2e08 ; pow + 816
        0x00002ddc:    2d00        .-      CMP      r5,#0
        0x00002dde:    da2e        ..      BGE      0x2e3e ; pow + 870
        0x00002de0:    2002        .       MOVS     r0,#2
        0x00002de2:    f7fefce5    ....    BL       __set_errno ; 0x17b0
        0x00002de6:    f7fefcbf    ....    BL       __mathlib_dbl_overflow ; 0x1768
        0x00002dea:    4605        .F      MOV      r5,r0
        0x00002dec:    460e        .F      MOV      r6,r1
        0x00002dee:    2200        ."      MOVS     r2,#0
        0x00002df0:    4b46        FK      LDR      r3,[pc,#280] ; [0x2f0c] = 0x7ff00000
        0x00002df2:    4621        !F      MOV      r1,r4
        0x00002df4:    9808        ..      LDR      r0,[sp,#0x20]
        0x00002df6:    f7fdfb05    ....    BL       __aeabi_dmul ; 0x404
        0x00002dfa:    0072        r.      LSLS     r2,r6,#1
        0x00002dfc:    0852        R.      LSRS     r2,r2,#1
        0x00002dfe:    0fc8        ..      LSRS     r0,r1,#31
        0x00002e00:    07c0        ..      LSLS     r0,r0,#31
        0x00002e02:    4302        .C      ORRS     r2,r2,r0
        0x00002e04:    4611        .F      MOV      r1,r2
        0x00002e06:    e017        ..      B        0x2e38 ; pow + 864
        0x00002e08:    4b3e        >K      LDR      r3,[pc,#248] ; [0x2f04] = 0x3ff00000
        0x00002e0a:    4299        .B      CMP      r1,r3
        0x00002e0c:    dd23        #.      BLE      0x2e56 ; pow + 894
        0x00002e0e:    2d00        .-      CMP      r5,#0
        0x00002e10:    dd15        ..      BLE      0x2e3e ; pow + 870
        0x00002e12:    2002        .       MOVS     r0,#2
        0x00002e14:    f7fefccc    ....    BL       __set_errno ; 0x17b0
        0x00002e18:    f7fefca6    ....    BL       __mathlib_dbl_overflow ; 0x1768
        0x00002e1c:    4605        .F      MOV      r5,r0
        0x00002e1e:    460e        .F      MOV      r6,r1
        0x00002e20:    2200        ."      MOVS     r2,#0
        0x00002e22:    4b3a        :K      LDR      r3,[pc,#232] ; [0x2f0c] = 0x7ff00000
        0x00002e24:    4621        !F      MOV      r1,r4
        0x00002e26:    9808        ..      LDR      r0,[sp,#0x20]
        0x00002e28:    f7fdfaec    ....    BL       __aeabi_dmul ; 0x404
        0x00002e2c:    4608        .F      MOV      r0,r1
        0x00002e2e:    0071        q.      LSLS     r1,r6,#1
        0x00002e30:    0849        I.      LSRS     r1,r1,#1
        0x00002e32:    0fc0        ..      LSRS     r0,r0,#31
        0x00002e34:    07c0        ..      LSLS     r0,r0,#31
        0x00002e36:    4301        .C      ORRS     r1,r1,r0
        0x00002e38:    4628        (F      MOV      r0,r5
        0x00002e3a:    b01b        ..      ADD      sp,sp,#0x6c
        0x00002e3c:    bdf0        ..      POP      {r4-r7,pc}
        0x00002e3e:    2002        .       MOVS     r0,#2
        0x00002e40:    f7fefcb6    ....    BL       __set_errno ; 0x17b0
        0x00002e44:    f7fefc9a    ....    BL       __mathlib_dbl_underflow ; 0x177c
        0x00002e48:    0049        I.      LSLS     r1,r1,#1
        0x00002e4a:    0849        I.      LSRS     r1,r1,#1
        0x00002e4c:    0fe2        ..      LSRS     r2,r4,#31
        0x00002e4e:    07d2        ..      LSLS     r2,r2,#31
        0x00002e50:    4311        .C      ORRS     r1,r1,r2
        0x00002e52:    b01b        ..      ADD      sp,sp,#0x6c
        0x00002e54:    bdf0        ..      POP      {r4-r7,pc}
        0x00002e56:    2200        ."      MOVS     r2,#0
        0x00002e58:    4630        0F      MOV      r0,r6
        0x00002e5a:    4639        9F      MOV      r1,r7
        0x00002e5c:    f7fdfac4    ....    BL       __aeabi_dsub ; 0x3e8
        0x00002e60:    2201        ."      MOVS     r2,#1
        0x00002e62:    4605        .F      MOV      r5,r0
        0x00002e64:    460e        .F      MOV      r6,r1
        0x00002e66:    43d2        .C      MVNS     r2,r2
        0x00002e68:    f7fdfd1c    ....    BL       __ARM_scalbn ; 0x8a4
        0x00002e6c:    4a31        1J      LDR      r2,[pc,#196] ; [0x2f34] = 0x55555555
        0x00002e6e:    4b32        2K      LDR      r3,[pc,#200] ; [0x2f38] = 0x3fd55555
        0x00002e70:    f7fdfac0    ....    BL       __aeabi_drsub ; 0x3f4
        0x00002e74:    462a        *F      MOV      r2,r5
        0x00002e76:    4633        3F      MOV      r3,r6
        0x00002e78:    f7fdfac4    ....    BL       __aeabi_dmul ; 0x404
        0x00002e7c:    2200        ."      MOVS     r2,#0
        0x00002e7e:    4b28        (K      LDR      r3,[pc,#160] ; [0x2f20] = 0x3fe00000
        0x00002e80:    f7fdfab8    ....    BL       __aeabi_drsub ; 0x3f4
        0x00002e84:    4607        .F      MOV      r7,r0
        0x00002e86:    462a        *F      MOV      r2,r5
        0x00002e88:    4633        3F      MOV      r3,r6
        0x00002e8a:    e000        ..      B        0x2e8e ; pow + 950
        0x00002e8c:    e064        d.      B        0x2f58 ; pow + 1152
        0x00002e8e:    9103        ..      STR      r1,[sp,#0xc]
        0x00002e90:    4610        .F      MOV      r0,r2
        0x00002e92:    4619        .F      MOV      r1,r3
        0x00002e94:    f7fdfab6    ....    BL       __aeabi_dmul ; 0x404
        0x00002e98:    463a        :F      MOV      r2,r7
        0x00002e9a:    9b03        ..      LDR      r3,[sp,#0xc]
        0x00002e9c:    f7fdfab2    ....    BL       __aeabi_dmul ; 0x404
        0x00002ea0:    4607        .F      MOV      r7,r0
        0x00002ea2:    2203        ."      MOVS     r2,#3
        0x00002ea4:    9109        ..      STR      r1,[sp,#0x24]
        0x00002ea6:    0752        R.      LSLS     r2,r2,#29
        0x00002ea8:    4b24        $K      LDR      r3,[pc,#144] ; [0x2f3c] = 0x3ff71547
        0x00002eaa:    4628        (F      MOV      r0,r5
        0x00002eac:    4631        1F      MOV      r1,r6
        0x00002eae:    f7fdfaa9    ....    BL       __aeabi_dmul ; 0x404
        0x00002eb2:    9107        ..      STR      r1,[sp,#0x1c]
        0x00002eb4:    900c        ..      STR      r0,[sp,#0x30]
        0x00002eb6:    4a22        "J      LDR      r2,[pc,#136] ; [0x2f40] = 0x652b82fe
        0x00002eb8:    4b20         K      LDR      r3,[pc,#128] ; [0x2f3c] = 0x3ff71547
        0x00002eba:    4638        8F      MOV      r0,r7
        0x00002ebc:    9909        ..      LDR      r1,[sp,#0x24]
        0x00002ebe:    f7fdfaa1    ....    BL       __aeabi_dmul ; 0x404
        0x00002ec2:    4607        .F      MOV      r7,r0
        0x00002ec4:    9101        ..      STR      r1,[sp,#4]
        0x00002ec6:    4a1f        .J      LDR      r2,[pc,#124] ; [0x2f44] = 0xf85ddf44
        0x00002ec8:    4b1f        .K      LDR      r3,[pc,#124] ; [0x2f48] = 0x3e54ae0b
        0x00002eca:    4628        (F      MOV      r0,r5
        0x00002ecc:    4631        1F      MOV      r1,r6
        0x00002ece:    f7fdfa99    ....    BL       __aeabi_dmul ; 0x404
        0x00002ed2:    463a        :F      MOV      r2,r7
        0x00002ed4:    9b01        ..      LDR      r3,[sp,#4]
        0x00002ed6:    f7fdfa87    ....    BL       __aeabi_dsub ; 0x3e8
        0x00002eda:    4607        .F      MOV      r7,r0
        0x00002edc:    460b        .F      MOV      r3,r1
        0x00002ede:    4602        .F      MOV      r2,r0
        0x00002ee0:    9109        ..      STR      r1,[sp,#0x24]
        0x00002ee2:    9907        ..      LDR      r1,[sp,#0x1c]
        0x00002ee4:    980c        ..      LDR      r0,[sp,#0x30]
        0x00002ee6:    f7fdf9db    ....    BL       __aeabi_dadd ; 0x2a0
        0x00002eea:    2500        .%      MOVS     r5,#0
        0x00002eec:    460e        .F      MOV      r6,r1
        0x00002eee:    4628        (F      MOV      r0,r5
        0x00002ef0:    9b07        ..      LDR      r3,[sp,#0x1c]
        0x00002ef2:    9a0c        ..      LDR      r2,[sp,#0x30]
        0x00002ef4:    f7fdfa78    ..x.    BL       __aeabi_dsub ; 0x3e8
        0x00002ef8:    463a        :F      MOV      r2,r7
        0x00002efa:    e027        '.      B        0x2f4c ; pow + 1140
    $d
        0x00002efc:    001fffff    ....    DCD    2097151
        0x00002f00:    000fffff    ....    DCD    1048575
        0x00002f04:    3ff00000    ...?    DCD    1072693248
        0x00002f08:    ffe00000    ....    DCD    4292870144
        0x00002f0c:    7ff00000    ....    DCD    2146435072
        0x00002f10:    43400000    ..@C    DCD    1128267776
        0x00002f14:    fffffc01    ....    DCD    4294966273
        0x00002f18:    bff00000    ....    DCD    3220176896
        0x00002f1c:    000011b2    ....    DCD    4530
        0x00002f20:    3fe00000    ...?    DCD    1071644672
        0x00002f24:    fff00000    ....    DCD    4293918720
        0x00002f28:    41e00000    ...A    DCD    1105199104
        0x00002f2c:    43f00000    ...C    DCD    1139802112
        0x00002f30:    3fefffff    ...?    DCD    1072693247
        0x00002f34:    55555555    UUUU    DCD    1431655765
        0x00002f38:    3fd55555    UU.?    DCD    1070945621
        0x00002f3c:    3ff71547    G..?    DCD    1073157447
        0x00002f40:    652b82fe    ..+e    DCD    1697350398
        0x00002f44:    f85ddf44    D.].    DCD    4166901572
        0x00002f48:    3e54ae0b    ..T>    DCD    1045736971
    $t
        0x00002f4c:    9b09        ..      LDR      r3,[sp,#0x24]
        0x00002f4e:    f7fdfa51    ..Q.    BL       __aeabi_drsub ; 0x3f4
        0x00002f52:    4602        .F      MOV      r2,r0
        0x00002f54:    460b        .F      MOV      r3,r1
        0x00002f56:    e152        R.      B        0x31fe ; pow + 1830
        0x00002f58:    2501        .%      MOVS     r5,#1
        0x00002f5a:    2000        .       MOVS     r0,#0
        0x00002f5c:    052d        -.      LSLS     r5,r5,#20
        0x00002f5e:    42a9        .B      CMP      r1,r5
        0x00002f60:    da07        ..      BGE      0x2f72 ; pow + 1178
        0x00002f62:    2235        5"      MOVS     r2,#0x35
        0x00002f64:    4630        0F      MOV      r0,r6
        0x00002f66:    4639        9F      MOV      r1,r7
        0x00002f68:    f7fdfc9c    ....    BL       __ARM_scalbn ; 0x8a4
        0x00002f6c:    4606        .F      MOV      r6,r0
        0x00002f6e:    2034        4       MOVS     r0,#0x34
        0x00002f70:    43c0        .C      MVNS     r0,r0
        0x00002f72:    150a        ..      ASRS     r2,r1,#20
        0x00002f74:    1812        ..      ADDS     r2,r2,r0
        0x00002f76:    48fe        .H      LDR      r0,[pc,#1016] ; [0x3370] = 0xfffffc01
        0x00002f78:    1810        ..      ADDS     r0,r2,r0
        0x00002f7a:    9003        ..      STR      r0,[sp,#0xc]
        0x00002f7c:    0308        ..      LSLS     r0,r1,#12
        0x00002f7e:    49fd        .I      LDR      r1,[pc,#1012] ; [0x3374] = 0x3ff00000
        0x00002f80:    0b00        ..      LSRS     r0,r0,#12
        0x00002f82:    4301        .C      ORRS     r1,r1,r0
        0x00002f84:    460f        .F      MOV      r7,r1
        0x00002f86:    49fc        .I      LDR      r1,[pc,#1008] ; [0x3378] = 0x3988e
        0x00002f88:    4288        .B      CMP      r0,r1
        0x00002f8a:    dc01        ..      BGT      0x2f90 ; pow + 1208
        0x00002f8c:    2000        .       MOVS     r0,#0
        0x00002f8e:    e003        ..      B        0x2f98 ; pow + 1216
        0x00002f90:    49fa        .I      LDR      r1,[pc,#1000] ; [0x337c] = 0xbb67a
        0x00002f92:    4288        .B      CMP      r0,r1
        0x00002f94:    da02        ..      BGE      0x2f9c ; pow + 1220
        0x00002f96:    2001        .       MOVS     r0,#1
        0x00002f98:    9011        ..      STR      r0,[sp,#0x44]
        0x00002f9a:    e005        ..      B        0x2fa8 ; pow + 1232
        0x00002f9c:    2000        .       MOVS     r0,#0
        0x00002f9e:    9011        ..      STR      r0,[sp,#0x44]
        0x00002fa0:    9803        ..      LDR      r0,[sp,#0xc]
        0x00002fa2:    1c40        @.      ADDS     r0,r0,#1
        0x00002fa4:    1b7f        ..      SUBS     r7,r7,r5
        0x00002fa6:    9003        ..      STR      r0,[sp,#0xc]
        0x00002fa8:    9811        ..      LDR      r0,[sp,#0x44]
        0x00002faa:    9705        ..      STR      r7,[sp,#0x14]
        0x00002fac:    00c2        ..      LSLS     r2,r0,#3
        0x00002fae:    48f4        .H      LDR      r0,[pc,#976] ; [0x3380] = 0xdc2
        0x00002fb0:    920f        ..      STR      r2,[sp,#0x3c]
        0x00002fb2:    4478        xD      ADD      r0,r0,pc
        0x00002fb4:    1880        ..      ADDS     r0,r0,r2
        0x00002fb6:    6843        Ch      LDR      r3,[r0,#4]
        0x00002fb8:    6802        .h      LDR      r2,[r0,#0]
        0x00002fba:    4639        9F      MOV      r1,r7
        0x00002fbc:    4630        0F      MOV      r0,r6
        0x00002fbe:    930d        ..      STR      r3,[sp,#0x34]
        0x00002fc0:    9202        ..      STR      r2,[sp,#8]
        0x00002fc2:    f7fdfa11    ....    BL       __aeabi_dsub ; 0x3e8
        0x00002fc6:    9107        ..      STR      r1,[sp,#0x1c]
        0x00002fc8:    900c        ..      STR      r0,[sp,#0x30]
        0x00002fca:    4630        0F      MOV      r0,r6
        0x00002fcc:    9b0d        ..      LDR      r3,[sp,#0x34]
        0x00002fce:    9a02        ..      LDR      r2,[sp,#8]
        0x00002fd0:    9905        ..      LDR      r1,[sp,#0x14]
        0x00002fd2:    f7fdf965    ..e.    BL       __aeabi_dadd ; 0x2a0
        0x00002fd6:    4602        .F      MOV      r2,r0
        0x00002fd8:    460b        .F      MOV      r3,r1
        0x00002fda:    2000        .       MOVS     r0,#0
        0x00002fdc:    49e5        .I      LDR      r1,[pc,#916] ; [0x3374] = 0x3ff00000
        0x00002fde:    f7fdfa79    ..y.    BL       __aeabi_ddiv ; 0x4d4
        0x00002fe2:    9109        ..      STR      r1,[sp,#0x24]
        0x00002fe4:    9004        ..      STR      r0,[sp,#0x10]
        0x00002fe6:    9b07        ..      LDR      r3,[sp,#0x1c]
        0x00002fe8:    9a0c        ..      LDR      r2,[sp,#0x30]
        0x00002fea:    f7fdfa0b    ....    BL       __aeabi_dmul ; 0x404
        0x00002fee:    9012        ..      STR      r0,[sp,#0x48]
        0x00002ff0:    2000        .       MOVS     r0,#0
        0x00002ff2:    9010        ..      STR      r0,[sp,#0x40]
        0x00002ff4:    48e3        .H      LDR      r0,[pc,#908] ; [0x3384] = 0xe04
        0x00002ff6:    460d        .F      MOV      r5,r1
        0x00002ff8:    4478        xD      ADD      r0,r0,pc
        0x00002ffa:    6800        .h      LDR      r0,[r0,#0]
        0x00002ffc:    900e        ..      STR      r0,[sp,#0x38]
        0x00002ffe:    2101        .!      MOVS     r1,#1
        0x00003000:    1078        x.      ASRS     r0,r7,#1
        0x00003002:    0749        I.      LSLS     r1,r1,#29
        0x00003004:    4308        .C      ORRS     r0,r0,r1
        0x00003006:    9911        ..      LDR      r1,[sp,#0x44]
        0x00003008:    9b0d        ..      LDR      r3,[sp,#0x34]
        0x0000300a:    0489        ..      LSLS     r1,r1,#18
        0x0000300c:    1840        @.      ADDS     r0,r0,r1
        0x0000300e:    2101        .!      MOVS     r1,#1
        0x00003010:    04c9        ..      LSLS     r1,r1,#19
        0x00003012:    1847        G.      ADDS     r7,r0,r1
        0x00003014:    4639        9F      MOV      r1,r7
        0x00003016:    9a02        ..      LDR      r2,[sp,#8]
        0x00003018:    980e        ..      LDR      r0,[sp,#0x38]
        0x0000301a:    f7fdf9e5    ....    BL       __aeabi_dsub ; 0x3e8
        0x0000301e:    4632        2F      MOV      r2,r6
        0x00003020:    9b05        ..      LDR      r3,[sp,#0x14]
        0x00003022:    f7fdf9e7    ....    BL       __aeabi_drsub ; 0x3f4
        0x00003026:    4602        .F      MOV      r2,r0
        0x00003028:    460b        .F      MOV      r3,r1
        0x0000302a:    4629        )F      MOV      r1,r5
        0x0000302c:    9810        ..      LDR      r0,[sp,#0x40]
        0x0000302e:    f7fdf9e9    ....    BL       __aeabi_dmul ; 0x404
        0x00003032:    4606        .F      MOV      r6,r0
        0x00003034:    9102        ..      STR      r1,[sp,#8]
        0x00003036:    463b        ;F      MOV      r3,r7
        0x00003038:    4629        )F      MOV      r1,r5
        0x0000303a:    9a0e        ..      LDR      r2,[sp,#0x38]
        0x0000303c:    9810        ..      LDR      r0,[sp,#0x40]
        0x0000303e:    f7fdf9e1    ....    BL       __aeabi_dmul ; 0x404
        0x00003042:    9b07        ..      LDR      r3,[sp,#0x1c]
        0x00003044:    9a0c        ..      LDR      r2,[sp,#0x30]
        0x00003046:    f7fdf9d5    ....    BL       __aeabi_drsub ; 0x3f4
        0x0000304a:    4632        2F      MOV      r2,r6
        0x0000304c:    9b02        ..      LDR      r3,[sp,#8]
        0x0000304e:    f7fdf9cb    ....    BL       __aeabi_dsub ; 0x3e8
        0x00003052:    9b09        ..      LDR      r3,[sp,#0x24]
        0x00003054:    9a04        ..      LDR      r2,[sp,#0x10]
        0x00003056:    f7fdf9d5    ....    BL       __aeabi_dmul ; 0x404
        0x0000305a:    9105        ..      STR      r1,[sp,#0x14]
        0x0000305c:    9a12        ..      LDR      r2,[sp,#0x48]
        0x0000305e:    900a        ..      STR      r0,[sp,#0x28]
        0x00003060:    462b        +F      MOV      r3,r5
        0x00003062:    4610        .F      MOV      r0,r2
        0x00003064:    4619        .F      MOV      r1,r3
        0x00003066:    f7fdf9cd    ....    BL       __aeabi_dmul ; 0x404
        0x0000306a:    4606        .F      MOV      r6,r0
        0x0000306c:    4602        .F      MOV      r2,r0
        0x0000306e:    48c6        .H      LDR      r0,[pc,#792] ; [0x3388] = 0xd2e
        0x00003070:    460f        .F      MOV      r7,r1
        0x00003072:    460b        .F      MOV      r3,r1
        0x00003074:    2106        .!      MOVS     r1,#6
        0x00003076:    4478        xD      ADD      r0,r0,pc
        0x00003078:    f7fefb0a    ....    BL       __kernel_poly ; 0x1690
        0x0000307c:    4632        2F      MOV      r2,r6
        0x0000307e:    463b        ;F      MOV      r3,r7
        0x00003080:    9100        ..      STR      r1,[sp,#0]
        0x00003082:    9004        ..      STR      r0,[sp,#0x10]
        0x00003084:    4610        .F      MOV      r0,r2
        0x00003086:    4619        .F      MOV      r1,r3
        0x00003088:    f7fdf9bc    ....    BL       __aeabi_dmul ; 0x404
        0x0000308c:    9b00        ..      LDR      r3,[sp,#0]
        0x0000308e:    9a04        ..      LDR      r2,[sp,#0x10]
        0x00003090:    f7fdf9b8    ....    BL       __aeabi_dmul ; 0x404
        0x00003094:    4606        .F      MOV      r6,r0
        0x00003096:    460f        .F      MOV      r7,r1
        0x00003098:    462b        +F      MOV      r3,r5
        0x0000309a:    4619        .F      MOV      r1,r3
        0x0000309c:    9a12        ..      LDR      r2,[sp,#0x48]
        0x0000309e:    9810        ..      LDR      r0,[sp,#0x40]
        0x000030a0:    f7fdf8fe    ....    BL       __aeabi_dadd ; 0x2a0
        0x000030a4:    9b05        ..      LDR      r3,[sp,#0x14]
        0x000030a6:    9a0a        ..      LDR      r2,[sp,#0x28]
        0x000030a8:    f7fdf9ac    ....    BL       __aeabi_dmul ; 0x404
        0x000030ac:    4632        2F      MOV      r2,r6
        0x000030ae:    463b        ;F      MOV      r3,r7
        0x000030b0:    f7fdf8f6    ....    BL       __aeabi_dadd ; 0x2a0
        0x000030b4:    9a10        ..      LDR      r2,[sp,#0x40]
        0x000030b6:    9107        ..      STR      r1,[sp,#0x1c]
        0x000030b8:    9004        ..      STR      r0,[sp,#0x10]
        0x000030ba:    462b        +F      MOV      r3,r5
        0x000030bc:    4610        .F      MOV      r0,r2
        0x000030be:    4619        .F      MOV      r1,r3
        0x000030c0:    f7fdf9a0    ....    BL       __aeabi_dmul ; 0x404
        0x000030c4:    4eb1        .N      LDR      r6,[pc,#708] ; [0x338c] = 0x40080000
        0x000030c6:    2200        ."      MOVS     r2,#0
        0x000030c8:    4633        3F      MOV      r3,r6
        0x000030ca:    9109        ..      STR      r1,[sp,#0x24]
        0x000030cc:    9002        ..      STR      r0,[sp,#8]
        0x000030ce:    f7fdf8e7    ....    BL       __aeabi_dadd ; 0x2a0
        0x000030d2:    9b07        ..      LDR      r3,[sp,#0x1c]
        0x000030d4:    9a04        ..      LDR      r2,[sp,#0x10]
        0x000030d6:    f7fdf8e3    ....    BL       __aeabi_dadd ; 0x2a0
        0x000030da:    2000        .       MOVS     r0,#0
        0x000030dc:    4607        .F      MOV      r7,r0
        0x000030de:    4602        .F      MOV      r2,r0
        0x000030e0:    4633        3F      MOV      r3,r6
        0x000030e2:    9100        ..      STR      r1,[sp,#0]
        0x000030e4:    f7fdf980    ....    BL       __aeabi_dsub ; 0x3e8
        0x000030e8:    9b09        ..      LDR      r3,[sp,#0x24]
        0x000030ea:    9a02        ..      LDR      r2,[sp,#8]
        0x000030ec:    f7fdf97c    ..|.    BL       __aeabi_dsub ; 0x3e8
        0x000030f0:    9b07        ..      LDR      r3,[sp,#0x1c]
        0x000030f2:    9a04        ..      LDR      r2,[sp,#0x10]
        0x000030f4:    f7fdf97e    ..~.    BL       __aeabi_drsub ; 0x3f4
        0x000030f8:    4606        .F      MOV      r6,r0
        0x000030fa:    910d        ..      STR      r1,[sp,#0x34]
        0x000030fc:    463a        :F      MOV      r2,r7
        0x000030fe:    4629        )F      MOV      r1,r5
        0x00003100:    9b00        ..      LDR      r3,[sp,#0]
        0x00003102:    9810        ..      LDR      r0,[sp,#0x40]
        0x00003104:    f7fdf97e    ..~.    BL       __aeabi_dmul ; 0x404
        0x00003108:    9107        ..      STR      r1,[sp,#0x1c]
        0x0000310a:    900c        ..      STR      r0,[sp,#0x30]
        0x0000310c:    462b        +F      MOV      r3,r5
        0x0000310e:    4630        0F      MOV      r0,r6
        0x00003110:    9a12        ..      LDR      r2,[sp,#0x48]
        0x00003112:    990d        ..      LDR      r1,[sp,#0x34]
        0x00003114:    f7fdf976    ..v.    BL       __aeabi_dmul ; 0x404
        0x00003118:    4605        .F      MOV      r5,r0
        0x0000311a:    460e        .F      MOV      r6,r1
        0x0000311c:    463a        :F      MOV      r2,r7
        0x0000311e:    9b00        ..      LDR      r3,[sp,#0]
        0x00003120:    9905        ..      LDR      r1,[sp,#0x14]
        0x00003122:    980a        ..      LDR      r0,[sp,#0x28]
        0x00003124:    f7fdf96e    ..n.    BL       __aeabi_dmul ; 0x404
        0x00003128:    4633        3F      MOV      r3,r6
        0x0000312a:    462a        *F      MOV      r2,r5
        0x0000312c:    f7fdf8b8    ....    BL       __aeabi_dadd ; 0x2a0
        0x00003130:    4602        .F      MOV      r2,r0
        0x00003132:    460b        .F      MOV      r3,r1
        0x00003134:    4607        .F      MOV      r7,r0
        0x00003136:    9109        ..      STR      r1,[sp,#0x24]
        0x00003138:    9907        ..      LDR      r1,[sp,#0x1c]
        0x0000313a:    980c        ..      LDR      r0,[sp,#0x30]
        0x0000313c:    f7fdf8b0    ....    BL       __aeabi_dadd ; 0x2a0
        0x00003140:    2500        .%      MOVS     r5,#0
        0x00003142:    460e        .F      MOV      r6,r1
        0x00003144:    4628        (F      MOV      r0,r5
        0x00003146:    9b07        ..      LDR      r3,[sp,#0x1c]
        0x00003148:    9a0c        ..      LDR      r2,[sp,#0x30]
        0x0000314a:    f7fdf94d    ..M.    BL       __aeabi_dsub ; 0x3e8
        0x0000314e:    463a        :F      MOV      r2,r7
        0x00003150:    9b09        ..      LDR      r3,[sp,#0x24]
        0x00003152:    f7fdf94f    ..O.    BL       __aeabi_drsub ; 0x3f4
        0x00003156:    4607        .F      MOV      r7,r0
        0x00003158:    2207        ."      MOVS     r2,#7
        0x0000315a:    9109        ..      STR      r1,[sp,#0x24]
        0x0000315c:    0752        R.      LSLS     r2,r2,#29
        0x0000315e:    4b8c        .K      LDR      r3,[pc,#560] ; [0x3390] = 0x3feec709
        0x00003160:    4631        1F      MOV      r1,r6
        0x00003162:    4628        (F      MOV      r0,r5
        0x00003164:    f7fdf94e    ..N.    BL       __aeabi_dmul ; 0x404
        0x00003168:    9107        ..      STR      r1,[sp,#0x1c]
        0x0000316a:    9000        ..      STR      r0,[sp,#0]
        0x0000316c:    4a89        .J      LDR      r2,[pc,#548] ; [0x3394] = 0xdc3a03fd
        0x0000316e:    4b88        .K      LDR      r3,[pc,#544] ; [0x3390] = 0x3feec709
        0x00003170:    4638        8F      MOV      r0,r7
        0x00003172:    9909        ..      LDR      r1,[sp,#0x24]
        0x00003174:    f7fdf946    ..F.    BL       __aeabi_dmul ; 0x404
        0x00003178:    4607        .F      MOV      r7,r0
        0x0000317a:    9101        ..      STR      r1,[sp,#4]
        0x0000317c:    4a86        .J      LDR      r2,[pc,#536] ; [0x3398] = 0x145b01f5
        0x0000317e:    4b87        .K      LDR      r3,[pc,#540] ; [0x339c] = 0xbe3e2fe0
        0x00003180:    4631        1F      MOV      r1,r6
        0x00003182:    4628        (F      MOV      r0,r5
        0x00003184:    f7fdf93e    ..>.    BL       __aeabi_dmul ; 0x404
        0x00003188:    463a        :F      MOV      r2,r7
        0x0000318a:    9b01        ..      LDR      r3,[sp,#4]
        0x0000318c:    f7fdf888    ....    BL       __aeabi_dadd ; 0x2a0
        0x00003190:    4b83        .K      LDR      r3,[pc,#524] ; [0x33a0] = 0xc02
        0x00003192:    447b        {D      ADD      r3,r3,pc
        0x00003194:    9a0f        ..      LDR      r2,[sp,#0x3c]
        0x00003196:    189b        ..      ADDS     r3,r3,r2
        0x00003198:    681a        .h      LDR      r2,[r3,#0]
        0x0000319a:    685b        [h      LDR      r3,[r3,#4]
        0x0000319c:    f7fdf880    ....    BL       __aeabi_dadd ; 0x2a0
        0x000031a0:    9002        ..      STR      r0,[sp,#8]
        0x000031a2:    9109        ..      STR      r1,[sp,#0x24]
        0x000031a4:    9803        ..      LDR      r0,[sp,#0xc]
        0x000031a6:    f7fdfb93    ....    BL       __aeabi_i2d ; 0x8d0
        0x000031aa:    9105        ..      STR      r1,[sp,#0x14]
        0x000031ac:    9004        ..      STR      r0,[sp,#0x10]
        0x000031ae:    9b09        ..      LDR      r3,[sp,#0x24]
        0x000031b0:    9a02        ..      LDR      r2,[sp,#8]
        0x000031b2:    9907        ..      LDR      r1,[sp,#0x1c]
        0x000031b4:    9800        ..      LDR      r0,[sp,#0]
        0x000031b6:    f7fdf873    ..s.    BL       __aeabi_dadd ; 0x2a0
        0x000031ba:    4b7a        zK      LDR      r3,[pc,#488] ; [0x33a4] = 0xbc8
        0x000031bc:    447b        {D      ADD      r3,r3,pc
        0x000031be:    9a0f        ..      LDR      r2,[sp,#0x3c]
        0x000031c0:    189b        ..      ADDS     r3,r3,r2
        0x000031c2:    681a        .h      LDR      r2,[r3,#0]
        0x000031c4:    685b        [h      LDR      r3,[r3,#4]
        0x000031c6:    4617        .F      MOV      r7,r2
        0x000031c8:    9303        ..      STR      r3,[sp,#0xc]
        0x000031ca:    f7fdf869    ..i.    BL       __aeabi_dadd ; 0x2a0
        0x000031ce:    9b05        ..      LDR      r3,[sp,#0x14]
        0x000031d0:    9a04        ..      LDR      r2,[sp,#0x10]
        0x000031d2:    f7fdf865    ..e.    BL       __aeabi_dadd ; 0x2a0
        0x000031d6:    460e        .F      MOV      r6,r1
        0x000031d8:    4628        (F      MOV      r0,r5
        0x000031da:    9b05        ..      LDR      r3,[sp,#0x14]
        0x000031dc:    9a04        ..      LDR      r2,[sp,#0x10]
        0x000031de:    f7fdf903    ....    BL       __aeabi_dsub ; 0x3e8
        0x000031e2:    463a        :F      MOV      r2,r7
        0x000031e4:    9b03        ..      LDR      r3,[sp,#0xc]
        0x000031e6:    f7fdf8ff    ....    BL       __aeabi_dsub ; 0x3e8
        0x000031ea:    9b07        ..      LDR      r3,[sp,#0x1c]
        0x000031ec:    9a00        ..      LDR      r2,[sp,#0]
        0x000031ee:    f7fdf8fb    ....    BL       __aeabi_dsub ; 0x3e8
        0x000031f2:    9b09        ..      LDR      r3,[sp,#0x24]
        0x000031f4:    9a02        ..      LDR      r2,[sp,#8]
        0x000031f6:    f7fdf8fd    ....    BL       __aeabi_drsub ; 0x3f4
        0x000031fa:    4602        .F      MOV      r2,r0
        0x000031fc:    460b        .F      MOV      r3,r1
        0x000031fe:    9919        ..      LDR      r1,[sp,#0x64]
        0x00003200:    2000        .       MOVS     r0,#0
        0x00003202:    900c        ..      STR      r0,[sp,#0x30]
        0x00003204:    460f        .F      MOV      r7,r1
        0x00003206:    9818        ..      LDR      r0,[sp,#0x60]
        0x00003208:    f7fdf8fc    ....    BL       __aeabi_dmul ; 0x404
        0x0000320c:    9102        ..      STR      r1,[sp,#8]
        0x0000320e:    9004        ..      STR      r0,[sp,#0x10]
        0x00003210:    463b        ;F      MOV      r3,r7
        0x00003212:    9a0c        ..      LDR      r2,[sp,#0x30]
        0x00003214:    9919        ..      LDR      r1,[sp,#0x64]
        0x00003216:    9818        ..      LDR      r0,[sp,#0x60]
        0x00003218:    f7fdf8e6    ....    BL       __aeabi_dsub ; 0x3e8
        0x0000321c:    462a        *F      MOV      r2,r5
        0x0000321e:    4633        3F      MOV      r3,r6
        0x00003220:    f7fdf8f0    ....    BL       __aeabi_dmul ; 0x404
        0x00003224:    9b02        ..      LDR      r3,[sp,#8]
        0x00003226:    9a04        ..      LDR      r2,[sp,#0x10]
        0x00003228:    f7fdf83a    ..:.    BL       __aeabi_dadd ; 0x2a0
        0x0000322c:    9109        ..      STR      r1,[sp,#0x24]
        0x0000322e:    900e        ..      STR      r0,[sp,#0x38]
        0x00003230:    462a        *F      MOV      r2,r5
        0x00003232:    4633        3F      MOV      r3,r6
        0x00003234:    4639        9F      MOV      r1,r7
        0x00003236:    980c        ..      LDR      r0,[sp,#0x30]
        0x00003238:    f7fdf8e4    ....    BL       __aeabi_dmul ; 0x404
        0x0000323c:    4606        .F      MOV      r6,r0
        0x0000323e:    460f        .F      MOV      r7,r1
        0x00003240:    9b09        ..      LDR      r3,[sp,#0x24]
        0x00003242:    9a0e        ..      LDR      r2,[sp,#0x38]
        0x00003244:    f7fdf82c    ..,.    BL       __aeabi_dadd ; 0x2a0
        0x00003248:    4a57        WJ      LDR      r2,[pc,#348] ; [0x33a8] = 0x40900000
        0x0000324a:    460d        .F      MOV      r5,r1
        0x0000324c:    4291        .B      CMP      r1,r2
        0x0000324e:    db20         .      BLT      0x3292 ; pow + 1978
        0x00003250:    4252        RB      RSBS     r2,r2,#0
        0x00003252:    18aa        ..      ADDS     r2,r5,r2
        0x00003254:    4302        .C      ORRS     r2,r2,r0
        0x00003256:    d110        ..      BNE      0x327a ; pow + 1954
        0x00003258:    4632        2F      MOV      r2,r6
        0x0000325a:    463b        ;F      MOV      r3,r7
        0x0000325c:    f7fdf8c4    ....    BL       __aeabi_dsub ; 0x3e8
        0x00003260:    9004        ..      STR      r0,[sp,#0x10]
        0x00003262:    9103        ..      STR      r1,[sp,#0xc]
        0x00003264:    4a51        QJ      LDR      r2,[pc,#324] ; [0x33ac] = 0x652b82fe
        0x00003266:    4b52        RK      LDR      r3,[pc,#328] ; [0x33b0] = 0x3c971547
        0x00003268:    9909        ..      LDR      r1,[sp,#0x24]
        0x0000326a:    980e        ..      LDR      r0,[sp,#0x38]
        0x0000326c:    f7fdf818    ....    BL       __aeabi_dadd ; 0x2a0
        0x00003270:    9b03        ..      LDR      r3,[sp,#0xc]
        0x00003272:    9a04        ..      LDR      r2,[sp,#0x10]
        0x00003274:    f7fdfb60    ..`.    BL       __aeabi_cdrcmple ; 0x938
        0x00003278:    d21e        ..      BCS      0x32b8 ; pow + 2016
        0x0000327a:    2002        .       MOVS     r0,#2
        0x0000327c:    f7fefa98    ....    BL       __set_errno ; 0x17b0
        0x00003280:    f7fefa72    ..r.    BL       __mathlib_dbl_overflow ; 0x1768
        0x00003284:    0049        I.      LSLS     r1,r1,#1
        0x00003286:    0849        I.      LSRS     r1,r1,#1
        0x00003288:    0fe2        ..      LSRS     r2,r4,#31
        0x0000328a:    07d2        ..      LSLS     r2,r2,#31
        0x0000328c:    4311        .C      ORRS     r1,r1,r2
        0x0000328e:    b01b        ..      ADD      sp,sp,#0x6c
        0x00003290:    bdf0        ..      POP      {r4-r7,pc}
        0x00003292:    006a        j.      LSLS     r2,r5,#1
        0x00003294:    4b47        GK      LDR      r3,[pc,#284] ; [0x33b4] = 0x4090cc00
        0x00003296:    0852        R.      LSRS     r2,r2,#1
        0x00003298:    429a        .B      CMP      r2,r3
        0x0000329a:    d30d        ..      BCC      0x32b8 ; pow + 2016
        0x0000329c:    4a46        FJ      LDR      r2,[pc,#280] ; [0x33b8] = 0x3f6f3400
        0x0000329e:    18aa        ..      ADDS     r2,r5,r2
        0x000032a0:    4302        .C      ORRS     r2,r2,r0
        0x000032a2:    d000        ..      BEQ      0x32a6 ; pow + 1998
        0x000032a4:    e5cb        ..      B        0x2e3e ; pow + 870
        0x000032a6:    4632        2F      MOV      r2,r6
        0x000032a8:    463b        ;F      MOV      r3,r7
        0x000032aa:    f7fdf89d    ....    BL       __aeabi_dsub ; 0x3e8
        0x000032ae:    9b09        ..      LDR      r3,[sp,#0x24]
        0x000032b0:    9a0e        ..      LDR      r2,[sp,#0x38]
        0x000032b2:    f7fdfb41    ..A.    BL       __aeabi_cdrcmple ; 0x938
        0x000032b6:    d9f5        ..      BLS      0x32a4 ; pow + 1996
        0x000032b8:    0068        h.      LSLS     r0,r5,#1
        0x000032ba:    2300        .#      MOVS     r3,#0
        0x000032bc:    0840        @.      LSRS     r0,r0,#1
        0x000032be:    492c        ,I      LDR      r1,[pc,#176] ; [0x3370] = 0xfffffc01
        0x000032c0:    9303        ..      STR      r3,[sp,#0xc]
        0x000032c2:    0d02        ..      LSRS     r2,r0,#20
        0x000032c4:    4b3d        =K      LDR      r3,[pc,#244] ; [0x33bc] = 0x3fe00000
        0x000032c6:    1852        R.      ADDS     r2,r2,r1
        0x000032c8:    4298        .B      CMP      r0,r3
        0x000032ca:    dd23        #.      BLE      0x3314 ; pow + 2108
        0x000032cc:    2001        .       MOVS     r0,#1
        0x000032ce:    0500        ..      LSLS     r0,r0,#20
        0x000032d0:    1c52        R.      ADDS     r2,r2,#1
        0x000032d2:    40d0        .@      LSRS     r0,r0,r2
        0x000032d4:    1942        B.      ADDS     r2,r0,r5
        0x000032d6:    0050        P.      LSLS     r0,r2,#1
        0x000032d8:    0d40        @.      LSRS     r0,r0,#21
        0x000032da:    1840        @.      ADDS     r0,r0,r1
        0x000032dc:    4938        8I      LDR      r1,[pc,#224] ; [0x33c0] = 0xb1e
        0x000032de:    4479        yD      ADD      r1,r1,pc
        0x000032e0:    6809        .h      LDR      r1,[r1,#0]
        0x000032e2:    4613        .F      MOV      r3,r2
        0x000032e4:    468c        .F      MOV      r12,r1
        0x000032e6:    4937        7I      LDR      r1,[pc,#220] ; [0x33c4] = 0xfffff
        0x000032e8:    40c1        .@      LSRS     r1,r1,r0
        0x000032ea:    438b        .C      BICS     r3,r3,r1
        0x000032ec:    0312        ..      LSLS     r2,r2,#12
        0x000032ee:    2101        .!      MOVS     r1,#1
        0x000032f0:    0b12        ..      LSRS     r2,r2,#12
        0x000032f2:    0509        ..      LSLS     r1,r1,#20
        0x000032f4:    1851        Q.      ADDS     r1,r2,r1
        0x000032f6:    2214        ."      MOVS     r2,#0x14
        0x000032f8:    1a10        ..      SUBS     r0,r2,r0
        0x000032fa:    40c1        .@      LSRS     r1,r1,r0
        0x000032fc:    9103        ..      STR      r1,[sp,#0xc]
        0x000032fe:    2d00        .-      CMP      r5,#0
        0x00003300:    da01        ..      BGE      0x3306 ; pow + 2094
        0x00003302:    4248        HB      RSBS     r0,r1,#0
        0x00003304:    9003        ..      STR      r0,[sp,#0xc]
        0x00003306:    4662        bF      MOV      r2,r12
        0x00003308:    4630        0F      MOV      r0,r6
        0x0000330a:    4639        9F      MOV      r1,r7
        0x0000330c:    f7fdf86c    ..l.    BL       __aeabi_dsub ; 0x3e8
        0x00003310:    4606        .F      MOV      r6,r0
        0x00003312:    460f        .F      MOV      r7,r1
        0x00003314:    4632        2F      MOV      r2,r6
        0x00003316:    463b        ;F      MOV      r3,r7
        0x00003318:    9909        ..      LDR      r1,[sp,#0x24]
        0x0000331a:    980e        ..      LDR      r0,[sp,#0x38]
        0x0000331c:    f7fcffc0    ....    BL       __aeabi_dadd ; 0x2a0
        0x00003320:    2500        .%      MOVS     r5,#0
        0x00003322:    462a        *F      MOV      r2,r5
        0x00003324:    4b28        (K      LDR      r3,[pc,#160] ; [0x33c8] = 0x3fe62e43
        0x00003326:    4628        (F      MOV      r0,r5
        0x00003328:    9105        ..      STR      r1,[sp,#0x14]
        0x0000332a:    f7fdf86b    ..k.    BL       __aeabi_dmul ; 0x404
        0x0000332e:    9107        ..      STR      r1,[sp,#0x1c]
        0x00003330:    900c        ..      STR      r0,[sp,#0x30]
        0x00003332:    4a26        &J      LDR      r2,[pc,#152] ; [0x33cc] = 0xca86c39
        0x00003334:    4b26        &K      LDR      r3,[pc,#152] ; [0x33d0] = 0xbe205c61
        0x00003336:    4628        (F      MOV      r0,r5
        0x00003338:    9905        ..      LDR      r1,[sp,#0x14]
        0x0000333a:    f7fdf863    ..c.    BL       __aeabi_dmul ; 0x404
        0x0000333e:    9100        ..      STR      r1,[sp,#0]
        0x00003340:    9002        ..      STR      r0,[sp,#8]
        0x00003342:    4632        2F      MOV      r2,r6
        0x00003344:    463b        ;F      MOV      r3,r7
        0x00003346:    4628        (F      MOV      r0,r5
        0x00003348:    9905        ..      LDR      r1,[sp,#0x14]
        0x0000334a:    f7fdf84d    ..M.    BL       __aeabi_dsub ; 0x3e8
        0x0000334e:    9b09        ..      LDR      r3,[sp,#0x24]
        0x00003350:    9a0e        ..      LDR      r2,[sp,#0x38]
        0x00003352:    f7fdf84f    ..O.    BL       __aeabi_drsub ; 0x3f4
        0x00003356:    4a1f        .J      LDR      r2,[pc,#124] ; [0x33d4] = 0xfefa39ef
        0x00003358:    4b1f        .K      LDR      r3,[pc,#124] ; [0x33d8] = 0x3fe62e42
        0x0000335a:    f7fdf853    ..S.    BL       __aeabi_dmul ; 0x404
        0x0000335e:    9b00        ..      LDR      r3,[sp,#0]
        0x00003360:    9a02        ..      LDR      r2,[sp,#8]
        0x00003362:    f7fcff9d    ....    BL       __aeabi_dadd ; 0x2a0
        0x00003366:    4607        .F      MOV      r7,r0
        0x00003368:    460b        .F      MOV      r3,r1
        0x0000336a:    4602        .F      MOV      r2,r0
        0x0000336c:    9109        ..      STR      r1,[sp,#0x24]
        0x0000336e:    e035        5.      B        0x33dc ; pow + 2308
    $d
        0x00003370:    fffffc01    ....    DCD    4294966273
        0x00003374:    3ff00000    ...?    DCD    1072693248
        0x00003378:    0003988e    ....    DCD    235662
        0x0000337c:    000bb67a    z...    DCD    767610
        0x00003380:    00000dc2    ....    DCD    3522
        0x00003384:    00000e04    ....    DCD    3588
        0x00003388:    00000d2e    ....    DCD    3374
        0x0000338c:    40080000    ...@    DCD    1074266112
        0x00003390:    3feec709    ...?    DCD    1072613129
        0x00003394:    dc3a03fd    ..:.    DCD    3694789629
        0x00003398:    145b01f5    ..[.    DCD    341508597
        0x0000339c:    be3e2fe0    ./>.    DCD    3191746528
        0x000033a0:    00000c02    ....    DCD    3074
        0x000033a4:    00000bc8    ....    DCD    3016
        0x000033a8:    40900000    ...@    DCD    1083179008
        0x000033ac:    652b82fe    ..+e    DCD    1697350398
        0x000033b0:    3c971547    G..<    DCD    1016534343
        0x000033b4:    4090cc00    ...@    DCD    1083231232
        0x000033b8:    3f6f3400    .4o?    DCD    1064252416
        0x000033bc:    3fe00000    ...?    DCD    1071644672
        0x000033c0:    00000b1e    ....    DCD    2846
        0x000033c4:    000fffff    ....    DCD    1048575
        0x000033c8:    3fe62e43    C..?    DCD    1072049731
        0x000033cc:    0ca86c39    9l..    DCD    212364345
        0x000033d0:    be205c61    a\ .    DCD    3189791841
        0x000033d4:    fefa39ef    .9..    DCD    4277811695
        0x000033d8:    3fe62e42    B..?    DCD    1072049730
    $t
        0x000033dc:    9907        ..      LDR      r1,[sp,#0x1c]
        0x000033de:    980c        ..      LDR      r0,[sp,#0x30]
        0x000033e0:    f7fcff5e    ..^.    BL       __aeabi_dadd ; 0x2a0
        0x000033e4:    4605        .F      MOV      r5,r0
        0x000033e6:    460e        .F      MOV      r6,r1
        0x000033e8:    9b07        ..      LDR      r3,[sp,#0x1c]
        0x000033ea:    9a0c        ..      LDR      r2,[sp,#0x30]
        0x000033ec:    f7fcfffc    ....    BL       __aeabi_dsub ; 0x3e8
        0x000033f0:    463a        :F      MOV      r2,r7
        0x000033f2:    9b09        ..      LDR      r3,[sp,#0x24]
        0x000033f4:    f7fcfffe    ....    BL       __aeabi_drsub ; 0x3f4
        0x000033f8:    9109        ..      STR      r1,[sp,#0x24]
        0x000033fa:    462a        *F      MOV      r2,r5
        0x000033fc:    4633        3F      MOV      r3,r6
        0x000033fe:    900e        ..      STR      r0,[sp,#0x38]
        0x00003400:    4610        .F      MOV      r0,r2
        0x00003402:    4619        .F      MOV      r1,r3
        0x00003404:    f7fcfffe    ....    BL       __aeabi_dmul ; 0x404
        0x00003408:    4607        .F      MOV      r7,r0
        0x0000340a:    4602        .F      MOV      r2,r0
        0x0000340c:    482f        /H      LDR      r0,[pc,#188] ; [0x34cc] = 0x9c0
        0x0000340e:    460b        .F      MOV      r3,r1
        0x00003410:    9105        ..      STR      r1,[sp,#0x14]
        0x00003412:    2105        .!      MOVS     r1,#5
        0x00003414:    4478        xD      ADD      r0,r0,pc
        0x00003416:    f7fef93b    ..;.    BL       __kernel_poly ; 0x1690
        0x0000341a:    463a        :F      MOV      r2,r7
        0x0000341c:    9b05        ..      LDR      r3,[sp,#0x14]
        0x0000341e:    f7fcfff1    ....    BL       __aeabi_dmul ; 0x404
        0x00003422:    462a        *F      MOV      r2,r5
        0x00003424:    4633        3F      MOV      r3,r6
        0x00003426:    f7fcffe5    ....    BL       __aeabi_drsub ; 0x3f4
        0x0000342a:    4607        .F      MOV      r7,r0
        0x0000342c:    9101        ..      STR      r1,[sp,#4]
        0x0000342e:    4628        (F      MOV      r0,r5
        0x00003430:    4631        1F      MOV      r1,r6
        0x00003432:    9b09        ..      LDR      r3,[sp,#0x24]
        0x00003434:    9a0e        ..      LDR      r2,[sp,#0x38]
        0x00003436:    f7fcffe5    ....    BL       __aeabi_dmul ; 0x404
        0x0000343a:    9b09        ..      LDR      r3,[sp,#0x24]
        0x0000343c:    9a0e        ..      LDR      r2,[sp,#0x38]
        0x0000343e:    f7fcff2f    ../.    BL       __aeabi_dadd ; 0x2a0
        0x00003442:    2301        .#      MOVS     r3,#1
        0x00003444:    9104        ..      STR      r1,[sp,#0x10]
        0x00003446:    900c        ..      STR      r0,[sp,#0x30]
        0x00003448:    2200        ."      MOVS     r2,#0
        0x0000344a:    079b        ..      LSLS     r3,r3,#30
        0x0000344c:    4638        8F      MOV      r0,r7
        0x0000344e:    9901        ..      LDR      r1,[sp,#4]
        0x00003450:    f7fcffca    ....    BL       __aeabi_dsub ; 0x3e8
        0x00003454:    9105        ..      STR      r1,[sp,#0x14]
        0x00003456:    900e        ..      STR      r0,[sp,#0x38]
        0x00003458:    463a        :F      MOV      r2,r7
        0x0000345a:    4628        (F      MOV      r0,r5
        0x0000345c:    4631        1F      MOV      r1,r6
        0x0000345e:    9b01        ..      LDR      r3,[sp,#4]
        0x00003460:    f7fcffd0    ....    BL       __aeabi_dmul ; 0x404
        0x00003464:    9b05        ..      LDR      r3,[sp,#0x14]
        0x00003466:    9a0e        ..      LDR      r2,[sp,#0x38]
        0x00003468:    f7fdf834    ..4.    BL       __aeabi_ddiv ; 0x4d4
        0x0000346c:    9b04        ..      LDR      r3,[sp,#0x10]
        0x0000346e:    9a0c        ..      LDR      r2,[sp,#0x30]
        0x00003470:    f7fcffba    ....    BL       __aeabi_dsub ; 0x3e8
        0x00003474:    462a        *F      MOV      r2,r5
        0x00003476:    4633        3F      MOV      r3,r6
        0x00003478:    f7fcffb6    ....    BL       __aeabi_dsub ; 0x3e8
        0x0000347c:    2200        ."      MOVS     r2,#0
        0x0000347e:    4b14        .K      LDR      r3,[pc,#80] ; [0x34d0] = 0x3ff00000
        0x00003480:    f7fcffb8    ....    BL       __aeabi_drsub ; 0x3f4
        0x00003484:    4606        .F      MOV      r6,r0
        0x00003486:    9803        ..      LDR      r0,[sp,#0xc]
        0x00003488:    460d        .F      MOV      r5,r1
        0x0000348a:    0500        ..      LSLS     r0,r0,#20
        0x0000348c:    1941        A.      ADDS     r1,r0,r5
        0x0000348e:    1509        ..      ASRS     r1,r1,#20
        0x00003490:    2900        .)      CMP      r1,#0
        0x00003492:    dc12        ..      BGT      0x34ba ; pow + 2530
        0x00003494:    4630        0F      MOV      r0,r6
        0x00003496:    4629        )F      MOV      r1,r5
        0x00003498:    9a03        ..      LDR      r2,[sp,#0xc]
        0x0000349a:    f7fdfa03    ....    BL       __ARM_scalbn ; 0x8a4
        0x0000349e:    f7fef8e1    ....    BL       __ARM_fpclassify ; 0x1664
        0x000034a2:    2804        .(      CMP      r0,#4
        0x000034a4:    d101        ..      BNE      0x34aa ; pow + 2514
        0x000034a6:    f7fef969    ..i.    BL       __mathlib_dbl_underflow ; 0x177c
        0x000034aa:    4630        0F      MOV      r0,r6
        0x000034ac:    4629        )F      MOV      r1,r5
        0x000034ae:    9a03        ..      LDR      r2,[sp,#0xc]
        0x000034b0:    f7fdf9f8    ....    BL       __ARM_scalbn ; 0x8a4
        0x000034b4:    4606        .F      MOV      r6,r0
        0x000034b6:    e001        ..      B        0x34bc ; pow + 2532
        0x000034b8:    e004        ..      B        0x34c4 ; pow + 2540
        0x000034ba:    1829        ).      ADDS     r1,r5,r0
        0x000034bc:    460b        .F      MOV      r3,r1
        0x000034be:    4632        2F      MOV      r2,r6
        0x000034c0:    4621        !F      MOV      r1,r4
        0x000034c2:    9808        ..      LDR      r0,[sp,#0x20]
        0x000034c4:    f7fcff9e    ....    BL       __aeabi_dmul ; 0x404
        0x000034c8:    b01b        ..      ADD      sp,sp,#0x6c
        0x000034ca:    bdf0        ..      POP      {r4-r7,pc}
    $d
        0x000034cc:    000009c0    ....    DCD    2496
        0x000034d0:    3ff00000    ...?    DCD    1072693248
    $t
    i.printBufferLong
    printBufferLong
        0x000034d4:    b570        p.      PUSH     {r4-r6,lr}
        0x000034d6:    2500        .%      MOVS     r5,#0
        0x000034d8:    e084        ..      B        0x35e4 ; printBufferLong + 272
        0x000034da:    00a8        ..      LSLS     r0,r5,#2
        0x000034dc:    1828        (.      ADDS     r0,r5,r0
        0x000034de:    1d00        ..      ADDS     r0,r0,#4
        0x000034e0:    0080        ..      LSLS     r0,r0,#2
        0x000034e2:    4942        BI      LDR      r1,[pc,#264] ; [0x35ec] = 0x20000074
        0x000034e4:    5c0e        .\      LDRB     r6,[r1,r0]
        0x000034e6:    4632        2F      MOV      r2,r6
        0x000034e8:    4629        )F      MOV      r1,r5
        0x000034ea:    200f        .       MOVS     r0,#0xf
        0x000034ec:    f000f996    ....    BL       setRow ; 0x381c
        0x000034f0:    00a8        ..      LSLS     r0,r5,#2
        0x000034f2:    1828        (.      ADDS     r0,r5,r0
        0x000034f4:    1cc0        ..      ADDS     r0,r0,#3
        0x000034f6:    0080        ..      LSLS     r0,r0,#2
        0x000034f8:    493c        <I      LDR      r1,[pc,#240] ; [0x35ec] = 0x20000074
        0x000034fa:    580c        .X      LDR      r4,[r1,r0]
        0x000034fc:    0e26        &.      LSRS     r6,r4,#24
        0x000034fe:    4632        2F      MOV      r2,r6
        0x00003500:    4629        )F      MOV      r1,r5
        0x00003502:    200e        .       MOVS     r0,#0xe
        0x00003504:    f000f98a    ....    BL       setRow ; 0x381c
        0x00003508:    0220         .      LSLS     r0,r4,#8
        0x0000350a:    0e06        ..      LSRS     r6,r0,#24
        0x0000350c:    4632        2F      MOV      r2,r6
        0x0000350e:    4629        )F      MOV      r1,r5
        0x00003510:    200d        .       MOVS     r0,#0xd
        0x00003512:    f000f983    ....    BL       setRow ; 0x381c
        0x00003516:    0420         .      LSLS     r0,r4,#16
        0x00003518:    0e06        ..      LSRS     r6,r0,#24
        0x0000351a:    4632        2F      MOV      r2,r6
        0x0000351c:    4629        )F      MOV      r1,r5
        0x0000351e:    200c        .       MOVS     r0,#0xc
        0x00003520:    f000f97c    ..|.    BL       setRow ; 0x381c
        0x00003524:    b2e6        ..      UXTB     r6,r4
        0x00003526:    4632        2F      MOV      r2,r6
        0x00003528:    4629        )F      MOV      r1,r5
        0x0000352a:    200b        .       MOVS     r0,#0xb
        0x0000352c:    f000f976    ..v.    BL       setRow ; 0x381c
        0x00003530:    00a8        ..      LSLS     r0,r5,#2
        0x00003532:    1828        (.      ADDS     r0,r5,r0
        0x00003534:    1c80        ..      ADDS     r0,r0,#2
        0x00003536:    0080        ..      LSLS     r0,r0,#2
        0x00003538:    492c        ,I      LDR      r1,[pc,#176] ; [0x35ec] = 0x20000074
        0x0000353a:    580c        .X      LDR      r4,[r1,r0]
        0x0000353c:    0e26        &.      LSRS     r6,r4,#24
        0x0000353e:    4632        2F      MOV      r2,r6
        0x00003540:    4629        )F      MOV      r1,r5
        0x00003542:    200a        .       MOVS     r0,#0xa
        0x00003544:    f000f96a    ..j.    BL       setRow ; 0x381c
        0x00003548:    0220         .      LSLS     r0,r4,#8
        0x0000354a:    0e06        ..      LSRS     r6,r0,#24
        0x0000354c:    4632        2F      MOV      r2,r6
        0x0000354e:    4629        )F      MOV      r1,r5
        0x00003550:    2009        .       MOVS     r0,#9
        0x00003552:    f000f963    ..c.    BL       setRow ; 0x381c
        0x00003556:    0420         .      LSLS     r0,r4,#16
        0x00003558:    0e06        ..      LSRS     r6,r0,#24
        0x0000355a:    4632        2F      MOV      r2,r6
        0x0000355c:    4629        )F      MOV      r1,r5
        0x0000355e:    2008        .       MOVS     r0,#8
        0x00003560:    f000f95c    ..\.    BL       setRow ; 0x381c
        0x00003564:    b2e6        ..      UXTB     r6,r4
        0x00003566:    4632        2F      MOV      r2,r6
        0x00003568:    4629        )F      MOV      r1,r5
        0x0000356a:    2007        .       MOVS     r0,#7
        0x0000356c:    f000f956    ..V.    BL       setRow ; 0x381c
        0x00003570:    00a8        ..      LSLS     r0,r5,#2
        0x00003572:    1828        (.      ADDS     r0,r5,r0
        0x00003574:    1c40        @.      ADDS     r0,r0,#1
        0x00003576:    0080        ..      LSLS     r0,r0,#2
        0x00003578:    491c        .I      LDR      r1,[pc,#112] ; [0x35ec] = 0x20000074
        0x0000357a:    580c        .X      LDR      r4,[r1,r0]
        0x0000357c:    0e26        &.      LSRS     r6,r4,#24
        0x0000357e:    4632        2F      MOV      r2,r6
        0x00003580:    4629        )F      MOV      r1,r5
        0x00003582:    2006        .       MOVS     r0,#6
        0x00003584:    f000f94a    ..J.    BL       setRow ; 0x381c
        0x00003588:    0220         .      LSLS     r0,r4,#8
        0x0000358a:    0e06        ..      LSRS     r6,r0,#24
        0x0000358c:    4632        2F      MOV      r2,r6
        0x0000358e:    4629        )F      MOV      r1,r5
        0x00003590:    2005        .       MOVS     r0,#5
        0x00003592:    f000f943    ..C.    BL       setRow ; 0x381c
        0x00003596:    0420         .      LSLS     r0,r4,#16
        0x00003598:    0e06        ..      LSRS     r6,r0,#24
        0x0000359a:    4632        2F      MOV      r2,r6
        0x0000359c:    4629        )F      MOV      r1,r5
        0x0000359e:    2004        .       MOVS     r0,#4
        0x000035a0:    f000f93c    ..<.    BL       setRow ; 0x381c
        0x000035a4:    b2e6        ..      UXTB     r6,r4
        0x000035a6:    4632        2F      MOV      r2,r6
        0x000035a8:    4629        )F      MOV      r1,r5
        0x000035aa:    2003        .       MOVS     r0,#3
        0x000035ac:    f000f936    ..6.    BL       setRow ; 0x381c
        0x000035b0:    00a8        ..      LSLS     r0,r5,#2
        0x000035b2:    1828        (.      ADDS     r0,r5,r0
        0x000035b4:    0080        ..      LSLS     r0,r0,#2
        0x000035b6:    490d        .I      LDR      r1,[pc,#52] ; [0x35ec] = 0x20000074
        0x000035b8:    580c        .X      LDR      r4,[r1,r0]
        0x000035ba:    0e26        &.      LSRS     r6,r4,#24
        0x000035bc:    4632        2F      MOV      r2,r6
        0x000035be:    4629        )F      MOV      r1,r5
        0x000035c0:    2002        .       MOVS     r0,#2
        0x000035c2:    f000f92b    ..+.    BL       setRow ; 0x381c
        0x000035c6:    0220         .      LSLS     r0,r4,#8
        0x000035c8:    0e06        ..      LSRS     r6,r0,#24
        0x000035ca:    4632        2F      MOV      r2,r6
        0x000035cc:    4629        )F      MOV      r1,r5
        0x000035ce:    2001        .       MOVS     r0,#1
        0x000035d0:    f000f924    ..$.    BL       setRow ; 0x381c
        0x000035d4:    0420         .      LSLS     r0,r4,#16
        0x000035d6:    0e06        ..      LSRS     r6,r0,#24
        0x000035d8:    4632        2F      MOV      r2,r6
        0x000035da:    4629        )F      MOV      r1,r5
        0x000035dc:    2000        .       MOVS     r0,#0
        0x000035de:    f000f91d    ....    BL       setRow ; 0x381c
        0x000035e2:    1c6d        m.      ADDS     r5,r5,#1
        0x000035e4:    2d07        .-      CMP      r5,#7
        0x000035e6:    da00        ..      BGE      0x35ea ; printBufferLong + 278
        0x000035e8:    e777        w.      B        0x34da ; printBufferLong + 6
        0x000035ea:    bd70        p.      POP      {r4-r6,pc}
    $d
        0x000035ec:    20000074    t..     DCD    536871028
    $t
    i.rotateBufferLongLeft
    rotateBufferLongLeft
        0x000035f0:    b510        ..      PUSH     {r4,lr}
        0x000035f2:    2100        .!      MOVS     r1,#0
        0x000035f4:    e05a        Z.      B        0x36ac ; rotateBufferLongLeft + 188
        0x000035f6:    008b        ..      LSLS     r3,r1,#2
        0x000035f8:    18cb        ..      ADDS     r3,r1,r3
        0x000035fa:    009b        ..      LSLS     r3,r3,#2
        0x000035fc:    4c2d        -L      LDR      r4,[pc,#180] ; [0x36b4] = 0x20000074
        0x000035fe:    58e0        .X      LDR      r0,[r4,r3]
        0x00003600:    0fc2        ..      LSRS     r2,r0,#31
        0x00003602:    0040        @.      LSLS     r0,r0,#1
        0x00003604:    008b        ..      LSLS     r3,r1,#2
        0x00003606:    18cb        ..      ADDS     r3,r1,r3
        0x00003608:    009b        ..      LSLS     r3,r3,#2
        0x0000360a:    50e0        .P      STR      r0,[r4,r3]
        0x0000360c:    008b        ..      LSLS     r3,r1,#2
        0x0000360e:    18cb        ..      ADDS     r3,r1,r3
        0x00003610:    1c5b        [.      ADDS     r3,r3,#1
        0x00003612:    009b        ..      LSLS     r3,r3,#2
        0x00003614:    58e0        .X      LDR      r0,[r4,r3]
        0x00003616:    0040        @.      LSLS     r0,r0,#1
        0x00003618:    2a00        .*      CMP      r2,#0
        0x0000361a:    d002        ..      BEQ      0x3622 ; rotateBufferLongLeft + 50
        0x0000361c:    2301        .#      MOVS     r3,#1
        0x0000361e:    4318        .C      ORRS     r0,r0,r3
        0x00003620:    e001        ..      B        0x3626 ; rotateBufferLongLeft + 54
        0x00003622:    0840        @.      LSRS     r0,r0,#1
        0x00003624:    0040        @.      LSLS     r0,r0,#1
        0x00003626:    008b        ..      LSLS     r3,r1,#2
        0x00003628:    18cb        ..      ADDS     r3,r1,r3
        0x0000362a:    1c5b        [.      ADDS     r3,r3,#1
        0x0000362c:    009b        ..      LSLS     r3,r3,#2
        0x0000362e:    4c21        !L      LDR      r4,[pc,#132] ; [0x36b4] = 0x20000074
        0x00003630:    50e0        .P      STR      r0,[r4,r3]
        0x00003632:    0fc2        ..      LSRS     r2,r0,#31
        0x00003634:    008b        ..      LSLS     r3,r1,#2
        0x00003636:    18cb        ..      ADDS     r3,r1,r3
        0x00003638:    1c9b        ..      ADDS     r3,r3,#2
        0x0000363a:    009b        ..      LSLS     r3,r3,#2
        0x0000363c:    58e0        .X      LDR      r0,[r4,r3]
        0x0000363e:    0040        @.      LSLS     r0,r0,#1
        0x00003640:    2a00        .*      CMP      r2,#0
        0x00003642:    d002        ..      BEQ      0x364a ; rotateBufferLongLeft + 90
        0x00003644:    2301        .#      MOVS     r3,#1
        0x00003646:    4318        .C      ORRS     r0,r0,r3
        0x00003648:    e001        ..      B        0x364e ; rotateBufferLongLeft + 94
        0x0000364a:    0840        @.      LSRS     r0,r0,#1
        0x0000364c:    0040        @.      LSLS     r0,r0,#1
        0x0000364e:    008b        ..      LSLS     r3,r1,#2
        0x00003650:    18cb        ..      ADDS     r3,r1,r3
        0x00003652:    1c9b        ..      ADDS     r3,r3,#2
        0x00003654:    009b        ..      LSLS     r3,r3,#2
        0x00003656:    4c17        .L      LDR      r4,[pc,#92] ; [0x36b4] = 0x20000074
        0x00003658:    50e0        .P      STR      r0,[r4,r3]
        0x0000365a:    0fc2        ..      LSRS     r2,r0,#31
        0x0000365c:    008b        ..      LSLS     r3,r1,#2
        0x0000365e:    18cb        ..      ADDS     r3,r1,r3
        0x00003660:    1cdb        ..      ADDS     r3,r3,#3
        0x00003662:    009b        ..      LSLS     r3,r3,#2
        0x00003664:    58e0        .X      LDR      r0,[r4,r3]
        0x00003666:    0040        @.      LSLS     r0,r0,#1
        0x00003668:    2a00        .*      CMP      r2,#0
        0x0000366a:    d002        ..      BEQ      0x3672 ; rotateBufferLongLeft + 130
        0x0000366c:    2301        .#      MOVS     r3,#1
        0x0000366e:    4318        .C      ORRS     r0,r0,r3
        0x00003670:    e001        ..      B        0x3676 ; rotateBufferLongLeft + 134
        0x00003672:    0840        @.      LSRS     r0,r0,#1
        0x00003674:    0040        @.      LSLS     r0,r0,#1
        0x00003676:    008b        ..      LSLS     r3,r1,#2
        0x00003678:    18cb        ..      ADDS     r3,r1,r3
        0x0000367a:    1cdb        ..      ADDS     r3,r3,#3
        0x0000367c:    009b        ..      LSLS     r3,r3,#2
        0x0000367e:    4c0d        .L      LDR      r4,[pc,#52] ; [0x36b4] = 0x20000074
        0x00003680:    50e0        .P      STR      r0,[r4,r3]
        0x00003682:    0fc2        ..      LSRS     r2,r0,#31
        0x00003684:    008b        ..      LSLS     r3,r1,#2
        0x00003686:    18cb        ..      ADDS     r3,r1,r3
        0x00003688:    1d1b        ..      ADDS     r3,r3,#4
        0x0000368a:    009b        ..      LSLS     r3,r3,#2
        0x0000368c:    58e0        .X      LDR      r0,[r4,r3]
        0x0000368e:    0040        @.      LSLS     r0,r0,#1
        0x00003690:    2a00        .*      CMP      r2,#0
        0x00003692:    d002        ..      BEQ      0x369a ; rotateBufferLongLeft + 170
        0x00003694:    2301        .#      MOVS     r3,#1
        0x00003696:    4318        .C      ORRS     r0,r0,r3
        0x00003698:    e001        ..      B        0x369e ; rotateBufferLongLeft + 174
        0x0000369a:    0840        @.      LSRS     r0,r0,#1
        0x0000369c:    0040        @.      LSLS     r0,r0,#1
        0x0000369e:    008b        ..      LSLS     r3,r1,#2
        0x000036a0:    18cb        ..      ADDS     r3,r1,r3
        0x000036a2:    1d1b        ..      ADDS     r3,r3,#4
        0x000036a4:    009b        ..      LSLS     r3,r3,#2
        0x000036a6:    4c03        .L      LDR      r4,[pc,#12] ; [0x36b4] = 0x20000074
        0x000036a8:    50e0        .P      STR      r0,[r4,r3]
        0x000036aa:    1c49        I.      ADDS     r1,r1,#1
        0x000036ac:    2907        .)      CMP      r1,#7
        0x000036ae:    dba2        ..      BLT      0x35f6 ; rotateBufferLongLeft + 6
        0x000036b0:    bd10        ..      POP      {r4,pc}
    $d
        0x000036b2:    0000        ..      DCW    0
        0x000036b4:    20000074    t..     DCD    536871028
    $t
    i.rotateBufferLongRight
    rotateBufferLongRight
        0x000036b8:    b510        ..      PUSH     {r4,lr}
        0x000036ba:    2100        .!      MOVS     r1,#0
        0x000036bc:    e071        q.      B        0x37a2 ; rotateBufferLongRight + 234
        0x000036be:    008b        ..      LSLS     r3,r1,#2
        0x000036c0:    18cb        ..      ADDS     r3,r1,r3
        0x000036c2:    1d1b        ..      ADDS     r3,r3,#4
        0x000036c4:    009b        ..      LSLS     r3,r3,#2
        0x000036c6:    4c38        8L      LDR      r4,[pc,#224] ; [0x37a8] = 0x20000074
        0x000036c8:    58e0        .X      LDR      r0,[r4,r3]
        0x000036ca:    07c2        ..      LSLS     r2,r0,#31
        0x000036cc:    0fd2        ..      LSRS     r2,r2,#31
        0x000036ce:    0840        @.      LSRS     r0,r0,#1
        0x000036d0:    008b        ..      LSLS     r3,r1,#2
        0x000036d2:    18cb        ..      ADDS     r3,r1,r3
        0x000036d4:    1d1b        ..      ADDS     r3,r3,#4
        0x000036d6:    009b        ..      LSLS     r3,r3,#2
        0x000036d8:    50e0        .P      STR      r0,[r4,r3]
        0x000036da:    008b        ..      LSLS     r3,r1,#2
        0x000036dc:    18cb        ..      ADDS     r3,r1,r3
        0x000036de:    1cdb        ..      ADDS     r3,r3,#3
        0x000036e0:    009b        ..      LSLS     r3,r3,#2
        0x000036e2:    58e0        .X      LDR      r0,[r4,r3]
        0x000036e4:    0840        @.      LSRS     r0,r0,#1
        0x000036e6:    2a00        .*      CMP      r2,#0
        0x000036e8:    d003        ..      BEQ      0x36f2 ; rotateBufferLongRight + 58
        0x000036ea:    2301        .#      MOVS     r3,#1
        0x000036ec:    07db        ..      LSLS     r3,r3,#31
        0x000036ee:    4318        .C      ORRS     r0,r0,r3
        0x000036f0:    e001        ..      B        0x36f6 ; rotateBufferLongRight + 62
        0x000036f2:    0040        @.      LSLS     r0,r0,#1
        0x000036f4:    0840        @.      LSRS     r0,r0,#1
        0x000036f6:    008b        ..      LSLS     r3,r1,#2
        0x000036f8:    18cb        ..      ADDS     r3,r1,r3
        0x000036fa:    1cdb        ..      ADDS     r3,r3,#3
        0x000036fc:    009b        ..      LSLS     r3,r3,#2
        0x000036fe:    4c2a        *L      LDR      r4,[pc,#168] ; [0x37a8] = 0x20000074
        0x00003700:    50e0        .P      STR      r0,[r4,r3]
        0x00003702:    008b        ..      LSLS     r3,r1,#2
        0x00003704:    18cb        ..      ADDS     r3,r1,r3
        0x00003706:    1cdb        ..      ADDS     r3,r3,#3
        0x00003708:    009b        ..      LSLS     r3,r3,#2
        0x0000370a:    58e0        .X      LDR      r0,[r4,r3]
        0x0000370c:    07c2        ..      LSLS     r2,r0,#31
        0x0000370e:    0fd2        ..      LSRS     r2,r2,#31
        0x00003710:    008b        ..      LSLS     r3,r1,#2
        0x00003712:    18cb        ..      ADDS     r3,r1,r3
        0x00003714:    1c9b        ..      ADDS     r3,r3,#2
        0x00003716:    009b        ..      LSLS     r3,r3,#2
        0x00003718:    58e0        .X      LDR      r0,[r4,r3]
        0x0000371a:    0840        @.      LSRS     r0,r0,#1
        0x0000371c:    2a00        .*      CMP      r2,#0
        0x0000371e:    d003        ..      BEQ      0x3728 ; rotateBufferLongRight + 112
        0x00003720:    2301        .#      MOVS     r3,#1
        0x00003722:    07db        ..      LSLS     r3,r3,#31
        0x00003724:    4318        .C      ORRS     r0,r0,r3
        0x00003726:    e001        ..      B        0x372c ; rotateBufferLongRight + 116
        0x00003728:    0040        @.      LSLS     r0,r0,#1
        0x0000372a:    0840        @.      LSRS     r0,r0,#1
        0x0000372c:    008b        ..      LSLS     r3,r1,#2
        0x0000372e:    18cb        ..      ADDS     r3,r1,r3
        0x00003730:    1c9b        ..      ADDS     r3,r3,#2
        0x00003732:    009b        ..      LSLS     r3,r3,#2
        0x00003734:    4c1c        .L      LDR      r4,[pc,#112] ; [0x37a8] = 0x20000074
        0x00003736:    50e0        .P      STR      r0,[r4,r3]
        0x00003738:    008b        ..      LSLS     r3,r1,#2
        0x0000373a:    18cb        ..      ADDS     r3,r1,r3
        0x0000373c:    1c9b        ..      ADDS     r3,r3,#2
        0x0000373e:    009b        ..      LSLS     r3,r3,#2
        0x00003740:    5ce0        .\      LDRB     r0,[r4,r3]
        0x00003742:    07c2        ..      LSLS     r2,r0,#31
        0x00003744:    0fd2        ..      LSRS     r2,r2,#31
        0x00003746:    008b        ..      LSLS     r3,r1,#2
        0x00003748:    18cb        ..      ADDS     r3,r1,r3
        0x0000374a:    1c5b        [.      ADDS     r3,r3,#1
        0x0000374c:    009b        ..      LSLS     r3,r3,#2
        0x0000374e:    58e0        .X      LDR      r0,[r4,r3]
        0x00003750:    0840        @.      LSRS     r0,r0,#1
        0x00003752:    2a00        .*      CMP      r2,#0
        0x00003754:    d003        ..      BEQ      0x375e ; rotateBufferLongRight + 166
        0x00003756:    2301        .#      MOVS     r3,#1
        0x00003758:    07db        ..      LSLS     r3,r3,#31
        0x0000375a:    4318        .C      ORRS     r0,r0,r3
        0x0000375c:    e001        ..      B        0x3762 ; rotateBufferLongRight + 170
        0x0000375e:    0040        @.      LSLS     r0,r0,#1
        0x00003760:    0840        @.      LSRS     r0,r0,#1
        0x00003762:    008b        ..      LSLS     r3,r1,#2
        0x00003764:    18cb        ..      ADDS     r3,r1,r3
        0x00003766:    1c5b        [.      ADDS     r3,r3,#1
        0x00003768:    009b        ..      LSLS     r3,r3,#2
        0x0000376a:    4c0f        .L      LDR      r4,[pc,#60] ; [0x37a8] = 0x20000074
        0x0000376c:    50e0        .P      STR      r0,[r4,r3]
        0x0000376e:    008b        ..      LSLS     r3,r1,#2
        0x00003770:    18cb        ..      ADDS     r3,r1,r3
        0x00003772:    1c5b        [.      ADDS     r3,r3,#1
        0x00003774:    009b        ..      LSLS     r3,r3,#2
        0x00003776:    5ce0        .\      LDRB     r0,[r4,r3]
        0x00003778:    07c2        ..      LSLS     r2,r0,#31
        0x0000377a:    0fd2        ..      LSRS     r2,r2,#31
        0x0000377c:    008b        ..      LSLS     r3,r1,#2
        0x0000377e:    18cb        ..      ADDS     r3,r1,r3
        0x00003780:    009b        ..      LSLS     r3,r3,#2
        0x00003782:    58e0        .X      LDR      r0,[r4,r3]
        0x00003784:    0840        @.      LSRS     r0,r0,#1
        0x00003786:    2a00        .*      CMP      r2,#0
        0x00003788:    d003        ..      BEQ      0x3792 ; rotateBufferLongRight + 218
        0x0000378a:    2301        .#      MOVS     r3,#1
        0x0000378c:    07db        ..      LSLS     r3,r3,#31
        0x0000378e:    4318        .C      ORRS     r0,r0,r3
        0x00003790:    e001        ..      B        0x3796 ; rotateBufferLongRight + 222
        0x00003792:    0040        @.      LSLS     r0,r0,#1
        0x00003794:    0840        @.      LSRS     r0,r0,#1
        0x00003796:    008b        ..      LSLS     r3,r1,#2
        0x00003798:    18cb        ..      ADDS     r3,r1,r3
        0x0000379a:    009b        ..      LSLS     r3,r3,#2
        0x0000379c:    4c02        .L      LDR      r4,[pc,#8] ; [0x37a8] = 0x20000074
        0x0000379e:    50e0        .P      STR      r0,[r4,r3]
        0x000037a0:    1c49        I.      ADDS     r1,r1,#1
        0x000037a2:    2907        .)      CMP      r1,#7
        0x000037a4:    db8b        ..      BLT      0x36be ; rotateBufferLongRight + 6
        0x000037a6:    bd10        ..      POP      {r4,pc}
    $d
        0x000037a8:    20000074    t..     DCD    536871028
    $t
    i.scrollMessage
    scrollMessage
        0x000037ac:    b570        p.      PUSH     {r4-r6,lr}
        0x000037ae:    4605        .F      MOV      r5,r0
        0x000037b0:    2600        .&      MOVS     r6,#0
        0x000037b2:    2400        .$      MOVS     r4,#0
        0x000037b4:    bf00        ..      NOP      
        0x000037b6:    5dac        .]      LDRB     r4,[r5,r6]
        0x000037b8:    2c00        .,      CMP      r4,#0
        0x000037ba:    d003        ..      BEQ      0x37c4 ; scrollMessage + 24
        0x000037bc:    2100        .!      MOVS     r1,#0
        0x000037be:    4620         F      MOV      r0,r4
        0x000037c0:    f7feffb6    ....    BL       loadBufferLong ; 0x2730
        0x000037c4:    1c70        p.      ADDS     r0,r6,#1
        0x000037c6:    b2c6        ..      UXTB     r6,r0
        0x000037c8:    2c00        .,      CMP      r4,#0
        0x000037ca:    d1f4        ..      BNE      0x37b6 ; scrollMessage + 10
        0x000037cc:    bd70        p.      POP      {r4-r6,pc}
    i.sendchar
    sendchar
        0x000037ce:    b570        p.      PUSH     {r4-r6,lr}
        0x000037d0:    4604        .F      MOV      r4,r0
        0x000037d2:    460d        .F      MOV      r5,r1
        0x000037d4:    bf00        ..      NOP      
        0x000037d6:    4620         F      MOV      r0,r4
        0x000037d8:    f7fefd1c    ....    BL       apUART_Check_TXFIFO_FULL ; 0x2214
        0x000037dc:    2801        .(      CMP      r0,#1
        0x000037de:    d0fa        ..      BEQ      0x37d6 ; sendchar + 8
        0x000037e0:    4629        )F      MOV      r1,r5
        0x000037e2:    4620         F      MOV      r0,r4
        0x000037e4:    f7fdfef2    ....    BL       UART_SendData ; 0x15cc
        0x000037e8:    bd70        p.      POP      {r4-r6,pc}
        0x000037ea:    0000        ..      MOVS     r0,r0
    i.setIntensity
    setIntensity
        0x000037ec:    b570        p.      PUSH     {r4-r6,lr}
        0x000037ee:    4604        .F      MOV      r4,r0
        0x000037f0:    460d        .F      MOV      r5,r1
        0x000037f2:    2c00        .,      CMP      r4,#0
        0x000037f4:    db03        ..      BLT      0x37fe ; setIntensity + 18
        0x000037f6:    4808        .H      LDR      r0,[pc,#32] ; [0x3818] = 0x20000064
        0x000037f8:    7800        .x      LDRB     r0,[r0,#0]
        0x000037fa:    4284        .B      CMP      r4,r0
        0x000037fc:    db00        ..      BLT      0x3800 ; setIntensity + 20
        0x000037fe:    bd70        p.      POP      {r4-r6,pc}
        0x00003800:    2d00        .-      CMP      r5,#0
        0x00003802:    db06        ..      BLT      0x3812 ; setIntensity + 38
        0x00003804:    2d10        .-      CMP      r5,#0x10
        0x00003806:    da04        ..      BGE      0x3812 ; setIntensity + 38
        0x00003808:    b2ea        ..      UXTB     r2,r5
        0x0000380a:    b2e0        ..      UXTB     r0,r4
        0x0000380c:    210a        .!      MOVS     r1,#0xa
        0x0000380e:    f000f85d    ..].    BL       spiTransfer ; 0x38cc
        0x00003812:    bf00        ..      NOP      
        0x00003814:    e7f3        ..      B        0x37fe ; setIntensity + 18
    $d
        0x00003816:    0000        ..      DCW    0
        0x00003818:    20000064    d..     DCD    536871012
    $t
    i.setRow
    setRow
        0x0000381c:    b5f8        ..      PUSH     {r3-r7,lr}
        0x0000381e:    4605        .F      MOV      r5,r0
        0x00003820:    460c        .F      MOV      r4,r1
        0x00003822:    4617        .F      MOV      r7,r2
        0x00003824:    2d00        .-      CMP      r5,#0
        0x00003826:    db03        ..      BLT      0x3830 ; setRow + 20
        0x00003828:    480c        .H      LDR      r0,[pc,#48] ; [0x385c] = 0x20000064
        0x0000382a:    7800        .x      LDRB     r0,[r0,#0]
        0x0000382c:    4285        .B      CMP      r5,r0
        0x0000382e:    db00        ..      BLT      0x3832 ; setRow + 22
        0x00003830:    bdf8        ..      POP      {r3-r7,pc}
        0x00003832:    2c00        .,      CMP      r4,#0
        0x00003834:    db01        ..      BLT      0x383a ; setRow + 30
        0x00003836:    2c07        .,      CMP      r4,#7
        0x00003838:    dd00        ..      BLE      0x383c ; setRow + 32
        0x0000383a:    e7f9        ..      B        0x3830 ; setRow + 20
        0x0000383c:    00ee        ..      LSLS     r6,r5,#3
        0x0000383e:    1930        0.      ADDS     r0,r6,r4
        0x00003840:    4907        .I      LDR      r1,[pc,#28] ; [0x3860] = 0x20000204
        0x00003842:    540f        .T      STRB     r7,[r1,r0]
        0x00003844:    1930        0.      ADDS     r0,r6,r4
        0x00003846:    460b        .F      MOV      r3,r1
        0x00003848:    5c1a        .\      LDRB     r2,[r3,r0]
        0x0000384a:    1c60        `.      ADDS     r0,r4,#1
        0x0000384c:    b2c1        ..      UXTB     r1,r0
        0x0000384e:    b2e8        ..      UXTB     r0,r5
        0x00003850:    9000        ..      STR      r0,[sp,#0]
        0x00003852:    f000f83b    ..;.    BL       spiTransfer ; 0x38cc
        0x00003856:    bf00        ..      NOP      
        0x00003858:    e7ea        ..      B        0x3830 ; setRow + 20
    $d
        0x0000385a:    0000        ..      DCW    0
        0x0000385c:    20000064    d..     DCD    536871012
        0x00003860:    20000204    ...     DCD    536871428
    $t
    i.setScanLimit
    setScanLimit
        0x00003864:    b570        p.      PUSH     {r4-r6,lr}
        0x00003866:    4604        .F      MOV      r4,r0
        0x00003868:    460d        .F      MOV      r5,r1
        0x0000386a:    2c00        .,      CMP      r4,#0
        0x0000386c:    db03        ..      BLT      0x3876 ; setScanLimit + 18
        0x0000386e:    4808        .H      LDR      r0,[pc,#32] ; [0x3890] = 0x20000064
        0x00003870:    7800        .x      LDRB     r0,[r0,#0]
        0x00003872:    4284        .B      CMP      r4,r0
        0x00003874:    db00        ..      BLT      0x3878 ; setScanLimit + 20
        0x00003876:    bd70        p.      POP      {r4-r6,pc}
        0x00003878:    2d00        .-      CMP      r5,#0
        0x0000387a:    db06        ..      BLT      0x388a ; setScanLimit + 38
        0x0000387c:    2d08        .-      CMP      r5,#8
        0x0000387e:    da04        ..      BGE      0x388a ; setScanLimit + 38
        0x00003880:    b2ea        ..      UXTB     r2,r5
        0x00003882:    b2e0        ..      UXTB     r0,r4
        0x00003884:    210b        .!      MOVS     r1,#0xb
        0x00003886:    f000f821    ..!.    BL       spiTransfer ; 0x38cc
        0x0000388a:    bf00        ..      NOP      
        0x0000388c:    e7f3        ..      B        0x3876 ; setScanLimit + 18
    $d
        0x0000388e:    0000        ..      DCW    0
        0x00003890:    20000064    d..     DCD    536871012
    $t
    i.shutdown
    shutdown
        0x00003894:    b570        p.      PUSH     {r4-r6,lr}
        0x00003896:    4604        .F      MOV      r4,r0
        0x00003898:    460d        .F      MOV      r5,r1
        0x0000389a:    2c00        .,      CMP      r4,#0
        0x0000389c:    db03        ..      BLT      0x38a6 ; shutdown + 18
        0x0000389e:    480a        .H      LDR      r0,[pc,#40] ; [0x38c8] = 0x20000064
        0x000038a0:    7800        .x      LDRB     r0,[r0,#0]
        0x000038a2:    4284        .B      CMP      r4,r0
        0x000038a4:    db00        ..      BLT      0x38a8 ; shutdown + 20
        0x000038a6:    bd70        p.      POP      {r4-r6,pc}
        0x000038a8:    2d00        .-      CMP      r5,#0
        0x000038aa:    d005        ..      BEQ      0x38b8 ; shutdown + 36
        0x000038ac:    b2e0        ..      UXTB     r0,r4
        0x000038ae:    2200        ."      MOVS     r2,#0
        0x000038b0:    210c        .!      MOVS     r1,#0xc
        0x000038b2:    f000f80b    ....    BL       spiTransfer ; 0x38cc
        0x000038b6:    e004        ..      B        0x38c2 ; shutdown + 46
        0x000038b8:    b2e0        ..      UXTB     r0,r4
        0x000038ba:    2201        ."      MOVS     r2,#1
        0x000038bc:    210c        .!      MOVS     r1,#0xc
        0x000038be:    f000f805    ....    BL       spiTransfer ; 0x38cc
        0x000038c2:    bf00        ..      NOP      
        0x000038c4:    e7ef        ..      B        0x38a6 ; shutdown + 18
    $d
        0x000038c6:    0000        ..      DCW    0
        0x000038c8:    20000064    d..     DCD    536871012
    $t
    i.spiTransfer
    spiTransfer
        0x000038cc:    b5f7        ..      PUSH     {r0-r2,r4-r7,lr}
        0x000038ce:    4605        .F      MOV      r5,r0
        0x000038d0:    006e        n.      LSLS     r6,r5,#1
        0x000038d2:    481c        .H      LDR      r0,[pc,#112] ; [0x3944] = 0x20000064
        0x000038d4:    7800        .x      LDRB     r0,[r0,#0]
        0x000038d6:    0047        G.      LSLS     r7,r0,#1
        0x000038d8:    2000        .       MOVS     r0,#0
        0x000038da:    e003        ..      B        0x38e4 ; spiTransfer + 24
        0x000038dc:    2100        .!      MOVS     r1,#0
        0x000038de:    4a1a        .J      LDR      r2,[pc,#104] ; [0x3948] = 0x200001f4
        0x000038e0:    5411        .T      STRB     r1,[r2,r0]
        0x000038e2:    1c40        @.      ADDS     r0,r0,#1
        0x000038e4:    42b8        .B      CMP      r0,r7
        0x000038e6:    dbf9        ..      BLT      0x38dc ; spiTransfer + 16
        0x000038e8:    4668        hF      MOV      r0,sp
        0x000038ea:    7901        .y      LDRB     r1,[r0,#4]
        0x000038ec:    4a16        .J      LDR      r2,[pc,#88] ; [0x3948] = 0x200001f4
        0x000038ee:    1c70        p.      ADDS     r0,r6,#1
        0x000038f0:    5411        .T      STRB     r1,[r2,r0]
        0x000038f2:    4668        hF      MOV      r0,sp
        0x000038f4:    7a00        .z      LDRB     r0,[r0,#8]
        0x000038f6:    4611        .F      MOV      r1,r2
        0x000038f8:    5588        .U      STRB     r0,[r1,r6]
        0x000038fa:    4814        .H      LDR      r0,[pc,#80] ; [0x394c] = 0x20000060
        0x000038fc:    6801        .h      LDR      r1,[r0,#0]
        0x000038fe:    2001        .       MOVS     r0,#1
        0x00003900:    0780        ..      LSLS     r0,r0,#30
        0x00003902:    6181        .a      STR      r1,[r0,#0x18]
        0x00003904:    463c        <F      MOV      r4,r7
        0x00003906:    e014        ..      B        0x3932 ; spiTransfer + 102
        0x00003908:    1e60        `.      SUBS     r0,r4,#1
        0x0000390a:    490f        .I      LDR      r1,[pc,#60] ; [0x3948] = 0x200001f4
        0x0000390c:    5c08        .\      LDRB     r0,[r1,r0]
        0x0000390e:    4910        .I      LDR      r1,[pc,#64] ; [0x3950] = 0x40018000
        0x00003910:    6088        .`      STR      r0,[r1,#8]
        0x00003912:    4608        .F      MOV      r0,r1
        0x00003914:    f7fefc2c    ..,.    BL       apSSP_DeviceEnable ; 0x2170
        0x00003918:    bf00        ..      NOP      
        0x0000391a:    480d        .H      LDR      r0,[pc,#52] ; [0x3950] = 0x40018000
        0x0000391c:    f7fefc1e    ....    BL       apSSP_DeviceBusyGet ; 0x215c
        0x00003920:    2800        .(      CMP      r0,#0
        0x00003922:    d1fa        ..      BNE      0x391a ; spiTransfer + 78
        0x00003924:    480a        .H      LDR      r0,[pc,#40] ; [0x3950] = 0x40018000
        0x00003926:    f7fefc1e    ....    BL       apSSP_DeviceDisable ; 0x2166
        0x0000392a:    4809        .H      LDR      r0,[pc,#36] ; [0x3950] = 0x40018000
        0x0000392c:    f7fefc44    ..D.    BL       apSSP_ReadFIFO ; 0x21b8
        0x00003930:    1e64        d.      SUBS     r4,r4,#1
        0x00003932:    2c00        .,      CMP      r4,#0
        0x00003934:    dce8        ..      BGT      0x3908 ; spiTransfer + 60
        0x00003936:    4805        .H      LDR      r0,[pc,#20] ; [0x394c] = 0x20000060
        0x00003938:    6801        .h      LDR      r1,[r0,#0]
        0x0000393a:    2001        .       MOVS     r0,#1
        0x0000393c:    0780        ..      LSLS     r0,r0,#30
        0x0000393e:    6141        Aa      STR      r1,[r0,#0x14]
        0x00003940:    bdfe        ..      POP      {r1-r7,pc}
    $d
        0x00003942:    0000        ..      DCW    0
        0x00003944:    20000064    d..     DCD    536871012
        0x00003948:    200001f4    ...     DCD    536871412
        0x0000394c:    20000060    `..     DCD    536871008
        0x00003950:    40018000    ...@    DCD    1073840128
    $t
    i.sqrt
    sqrt
        0x00003954:    b5f8        ..      PUSH     {r3-r7,lr}
        0x00003956:    4606        .F      MOV      r6,r0
        0x00003958:    460c        .F      MOV      r4,r1
        0x0000395a:    f7fdf824    ..$.    BL       _dsqrt ; 0x9a6
        0x0000395e:    1e05        ..      SUBS     r5,r0,#0
        0x00003960:    460f        .F      MOV      r7,r1
        0x00003962:    d000        ..      BEQ      0x3966 ; sqrt + 18
        0x00003964:    2001        .       MOVS     r0,#1
        0x00003966:    4301        .C      ORRS     r1,r1,r0
        0x00003968:    0049        I.      LSLS     r1,r1,#1
        0x0000396a:    480b        .H      LDR      r0,[pc,#44] ; [0x3998] = 0x7ff00000
        0x0000396c:    0849        I.      LSRS     r1,r1,#1
        0x0000396e:    1a41        A.      SUBS     r1,r0,r1
        0x00003970:    0fc9        ..      LSRS     r1,r1,#31
        0x00003972:    d00d        ..      BEQ      0x3990 ; sqrt + 60
        0x00003974:    2e00        ..      CMP      r6,#0
        0x00003976:    d001        ..      BEQ      0x397c ; sqrt + 40
        0x00003978:    2101        .!      MOVS     r1,#1
        0x0000397a:    e000        ..      B        0x397e ; sqrt + 42
        0x0000397c:    2100        .!      MOVS     r1,#0
        0x0000397e:    430c        .C      ORRS     r4,r4,r1
        0x00003980:    0061        a.      LSLS     r1,r4,#1
        0x00003982:    0849        I.      LSRS     r1,r1,#1
        0x00003984:    1a40        @.      SUBS     r0,r0,r1
        0x00003986:    0fc0        ..      LSRS     r0,r0,#31
        0x00003988:    d102        ..      BNE      0x3990 ; sqrt + 60
        0x0000398a:    2001        .       MOVS     r0,#1
        0x0000398c:    f7fdff10    ....    BL       __set_errno ; 0x17b0
        0x00003990:    4628        (F      MOV      r0,r5
        0x00003992:    4639        9F      MOV      r1,r7
        0x00003994:    bdf8        ..      POP      {r3-r7,pc}
    $d
        0x00003996:    0000        ..      DCW    0
        0x00003998:    7ff00000    ....    DCD    2146435072
    $t
    i.ssp_config
    ssp_config
        0x0000399c:    b53e        >.      PUSH     {r1-r5,lr}
        0x0000399e:    4605        .F      MOV      r5,r0
        0x000039a0:    466c        lF      MOV      r4,sp
        0x000039a2:    480a        .H      LDR      r0,[pc,#40] ; [0x39cc] = 0x40018000
        0x000039a4:    f7fefc02    ....    BL       apSSP_Initialize ; 0x21ac
        0x000039a8:    2000        .       MOVS     r0,#0
        0x000039aa:    7060        `p      STRB     r0,[r4,#1]
        0x000039ac:    7025        %p      STRB     r5,[r4,#0]
        0x000039ae:    70a0        .p      STRB     r0,[r4,#2]
        0x000039b0:    70e0        .p      STRB     r0,[r4,#3]
        0x000039b2:    7120         q      STRB     r0,[r4,#4]
        0x000039b4:    2007        .       MOVS     r0,#7
        0x000039b6:    7160        `q      STRB     r0,[r4,#5]
        0x000039b8:    2000        .       MOVS     r0,#0
        0x000039ba:    71a0        .q      STRB     r0,[r4,#6]
        0x000039bc:    71e0        .q      STRB     r0,[r4,#7]
        0x000039be:    2001        .       MOVS     r0,#1
        0x000039c0:    7220         r      STRB     r0,[r4,#8]
        0x000039c2:    4621        !F      MOV      r1,r4
        0x000039c4:    4801        .H      LDR      r0,[pc,#4] ; [0x39cc] = 0x40018000
        0x000039c6:    f7fefbd8    ....    BL       apSSP_DeviceParametersSet ; 0x217a
        0x000039ca:    bd3e        >.      POP      {r1-r5,pc}
    $d
        0x000039cc:    40018000    ...@    DCD    1073840128
    $d.realdata
    .constdata
    numDevices
        0x000039d0:    00000010    ....    DCD    16
    scrollDelay
        0x000039d4:    00000002    ....    DCD    2
    bufferLongSpace
        0x000039d8:    30          0       DCB    48
    spaces
        0x000039d9:    202020              DCB    32,32,32
        0x000039dc:    20202020            DCD    538976288
        0x000039e0:    20202020            DCD    538976288
        0x000039e4:    20202020            DCD    538976288
        0x000039e8:    20202020            DCD    538976288
        0x000039ec:    20202020            DCD    538976288
        0x000039f0:    20202020            DCD    538976288
        0x000039f4:    00          .       DCB    0
    scrollText
        0x000039f5:    412d43      A-C     DCB    65,45,67
        0x000039f8:    616e6968    hina    DCD    1634625896
        0x000039fc:    20202020            DCD    538976288
        0x00003a00:    53202020       S    DCD    1394614304
        0x00003a04:    63696d65    emic    DCD    1667853669
        0x00003a08:    20206e6f    on      DCD    538996335
        0x00003a0c:    2020                DCW    8224
        0x00003a0e:    00          .       DCB    0
    scrollText2
        0x00003a0f:    20                  DCB    32
        0x00003a10:    20465550    PUF     DCD    541480272
        0x00003a14:    2055434d    MCU     DCD    542458701
        0x00003a18:    20202020            DCD    538976288
        0x00003a1c:    3055434d    MCU0    DCD    810894157
        0x00003a20:    6e203730    07 n    DCD    1847605040
        0x00003a24:    20202038    8       DCD    538976312
        0x00003a28:    00          .       DCB    0
    scrollText3
        0x00003a29:    414243      ABC     DCB    65,66,67
        0x00003a2c:    47464544    DEFG    DCD    1195787588
        0x00003a30:    4b4a4948    HIJK    DCD    1263159624
        0x00003a34:    4f4e4d4c    LMNO    DCD    1330531660
        0x00003a38:    53525150    PQRS    DCD    1397903696
        0x00003a3c:    57565554    TUVW    DCD    1465275732
        0x00003a40:    005a5958    XYZ.    DCD    5921112
    cortex
        0x00003a44:    20202020            DCD    538976288
        0x00003a48:    20202020            DCD    538976288
        0x00003a4c:    20202020            DCD    538976288
        0x00003a50:    20202020            DCD    538976288
        0x00003a54:    20202020            DCD    538976288
        0x00003a58:    20202020            DCD    538976288
        0x00003a5c:    726f4320     Cor    DCD    1919894304
        0x00003a60:    2d786574    tex-    DCD    762865012
        0x00003a64:    2020304d    M0      DCD    538980429
        0x00003a68:    00          .       DCB    0
    font5x7
        0x00003a69:    000000      ...     DCB    0,0,0
        0x00003a6c:    00000000    ....    DCD    0
        0x00003a70:    40404003    .@@@    DCD    1077952515
        0x00003a74:    40004040    @@.@    DCD    1073758272
        0x00003a78:    a0a0a002    ....    DCD    2694881282
        0x00003a7c:    00000000    ....    DCD    0
        0x00003a80:    f8505004    .PP.    DCD    4166012932
        0x00003a84:    5050f850    P.PP    DCD    1347483728
        0x00003a88:    a0782006    . x.    DCD    2692227078
        0x00003a8c:    20f02870    p(.     DCD    552609904
        0x00003a90:    10c8c006    ....    DCD    281591814
        0x00003a94:    18984020     @..    DCD    412631072
        0x00003a98:    a0906006    .`..    DCD    2693816326
        0x00003a9c:    6890a840    @..h    DCD    1754310720
        0x00003aa0:    8040c006    ..@.    DCD    2151727110
        0x00003aa4:    00000000    ....    DCD    0
        0x00003aa8:    80402003    . @.    DCD    2151686147
        0x00003aac:    40408080    ..@@    DCD    1077969024
        0x00003ab0:    20408004    ..@     DCD    541097988
        0x00003ab4:    80402020      @.    DCD    2151686176
        0x00003ab8:    a8200004    .. .    DCD    2820669444
        0x00003abc:    0020a870    p. .    DCD    2140272
        0x00003ac0:    20200006    ..      DCD    538968070
        0x00003ac4:    002020f8    .  .    DCD    2105592
        0x00003ac8:    00000006    ....    DCD    6
        0x00003acc:    8040c000    ..@.    DCD    2151727104
        0x00003ad0:    00000003    ....    DCD    3
        0x00003ad4:    000000f8    ....    DCD    248
        0x00003ad8:    00000006    ....    DCD    6
        0x00003adc:    c0c00000    ....    DCD    3233808384
        0x00003ae0:    10080003    ....    DCD    268959747
        0x00003ae4:    00804020     @..    DCD    8405024
        0x00003ae8:    98887006    .p..    DCD    2559078406
        0x00003aec:    7088c8a8    ...p    DCD    1888012456
        0x00003af0:    40c04006    .@.@    DCD    1086341126
        0x00003af4:    e0404040    @@@.    DCD    3762307136
        0x00003af8:    08887004    .p..    DCD    143159300
        0x00003afc:    f8402010    . @.    DCD    4164952080
        0x00003b00:    2010f806    ...     DCD    537982982
        0x00003b04:    70880810    ...p    DCD    1887963152
        0x00003b08:    50301006    ..0P    DCD    1345327110
        0x00003b0c:    1010f890    ....    DCD    269547664
        0x00003b10:    f080f806    ....    DCD    4034983942
        0x00003b14:    70880808    ...p    DCD    1887963144
        0x00003b18:    80403006    .0@.    DCD    2151690246
        0x00003b1c:    708888f0    ...p    DCD    1887996144
        0x00003b20:    0888f806    ....    DCD    143194118
        0x00003b24:    20202010    .       DCD    538976272
        0x00003b28:    88887006    .p..    DCD    2290642950
        0x00003b2c:    70888870    p..p    DCD    1887996016
        0x00003b30:    88887006    .p..    DCD    2290642950
        0x00003b34:    60100878    x..`    DCD    1611663480
        0x00003b38:    c0c00006    ....    DCD    3233808390
        0x00003b3c:    00c0c000    ....    DCD    12632064
        0x00003b40:    c0c00003    ....    DCD    3233808387
        0x00003b44:    8040c000    ..@.    DCD    2151727104
        0x00003b48:    40201003    .. @    DCD    1075843075
        0x00003b4c:    10204080    .@ .    DCD    270549120
        0x00003b50:    f8000005    ....    DCD    4160749573
        0x00003b54:    0000f800    ....    DCD    63488
        0x00003b58:    20408006    ..@     DCD    541097990
        0x00003b5c:    80402010    . @.    DCD    2151686160
        0x00003b60:    08887005    .p..    DCD    143159301
        0x00003b64:    20002010    . .     DCD    536879120
        0x00003b68:    08887006    .p..    DCD    143159302
        0x00003b6c:    70a8a868    h..p    DCD    1890101352
        0x00003b70:    88887006    .p..    DCD    2290642950
        0x00003b74:    8888f888    ....    DCD    2290677896
        0x00003b78:    8888f006    ....    DCD    2290675718
        0x00003b7c:    f08888f0    ....    DCD    4035479792
        0x00003b80:    80887006    .p..    DCD    2156425222
        0x00003b84:    70888080    ...p    DCD    1887993984
        0x00003b88:    9090e006    ....    DCD    2425413638
        0x00003b8c:    e0909090    ....    DCD    3767570576
        0x00003b90:    8080f806    ....    DCD    2155935750
        0x00003b94:    f88080f0    ....    DCD    4169171184
        0x00003b98:    8080f806    ....    DCD    2155935750
        0x00003b9c:    808080f0    ....    DCD    2155905264
        0x00003ba0:    80887006    .p..    DCD    2156425222
        0x00003ba4:    f08888b8    ....    DCD    4035479736
        0x00003ba8:    88888806    ....    DCD    2290649094
        0x00003bac:    888888f8    ....    DCD    2290649336
        0x00003bb0:    4040e006    ..@@    DCD    1077993478
        0x00003bb4:    e0404040    @@@.    DCD    3762307136
        0x00003bb8:    10103804    .8..    DCD    269498372
        0x00003bbc:    60901010    ...`    DCD    1620054032
        0x00003bc0:    a0908806    ....    DCD    2693826566
        0x00003bc4:    8890a0c0    ....    DCD    2291179712
        0x00003bc8:    80808006    ....    DCD    2155905030
        0x00003bcc:    f8808080    ....    DCD    4169171072
        0x00003bd0:    a8d88806    ....    DCD    2832762886
        0x00003bd4:    888888a8    ....    DCD    2290649256
        0x00003bd8:    c8888806    ....    DCD    3364390918
        0x00003bdc:    888898a8    ....    DCD    2290653352
        0x00003be0:    88887006    .p..    DCD    2290642950
        0x00003be4:    70888888    ...p    DCD    1887996040
        0x00003be8:    8888f006    ....    DCD    2290675718
        0x00003bec:    808080f0    ....    DCD    2155905264
        0x00003bf0:    88887006    .p..    DCD    2290642950
        0x00003bf4:    6890a888    ...h    DCD    1754310792
        0x00003bf8:    8888f006    ....    DCD    2290675718
        0x00003bfc:    8890a0f0    ....    DCD    2291179760
        0x00003c00:    80807806    .x..    DCD    2155902982
        0x00003c04:    f0080870    p...    DCD    4027058288
        0x00003c08:    2020f806    ..      DCD    539031558
        0x00003c0c:    20202020            DCD    538976288
        0x00003c10:    88888806    ....    DCD    2290649094
        0x00003c14:    70888888    ...p    DCD    1887996040
        0x00003c18:    88888806    ....    DCD    2290649094
        0x00003c1c:    20508888    ..P     DCD    542148744
        0x00003c20:    88888806    ....    DCD    2290649094
        0x00003c24:    50a8a8a8    ...P    DCD    1353230504
        0x00003c28:    50888806    ...P    DCD    1351124998
        0x00003c2c:    88885020     P..    DCD    2290634784
        0x00003c30:    88888806    ....    DCD    2290649094
        0x00003c34:    20202050    P       DCD    538976336
        0x00003c38:    1008f806    ....    DCD    269023238
        0x00003c3c:    f8804020     @..    DCD    4169154592
        0x00003c40:    8080e006    ....    DCD    2155929606
        0x00003c44:    e0808080    ....    DCD    3766517888
        0x00003c48:    40800004    ...@    DCD    1082130436
        0x00003c4c:    00081020     ...    DCD    528416
        0x00003c50:    2020e006    ..      DCD    539025414
        0x00003c54:    e0202020       .    DCD    3760201760
        0x00003c58:    88502004    . P.    DCD    2286952452
        0x00003c5c:    00000000    ....    DCD    0
        0x00003c60:    00000006    ....    DCD    6
        0x00003c64:    f8000000    ....    DCD    4160749568
        0x00003c68:    20408006    ..@     DCD    541097990
        0x00003c6c:    00000000    ....    DCD    0
        0x00003c70:    70000004    ...p    DCD    1879048196
        0x00003c74:    78887808    .x.x    DCD    2022209544
        0x00003c78:    b0808006    ....    DCD    2961211398
        0x00003c7c:    f08888c8    ....    DCD    4035479752
        0x00003c80:    70000006    ...p    DCD    1879048198
        0x00003c84:    70808080    ...p    DCD    1887469696
        0x00003c88:    68080806    ...h    DCD    1745356806
        0x00003c8c:    78888898    ...x    DCD    2022213784
        0x00003c90:    70000006    ...p    DCD    1879048198
        0x00003c94:    7080f888    ...p    DCD    1887500424
        0x00003c98:    40483006    .0H@    DCD    1078472710
        0x00003c9c:    404040e0    .@@@    DCD    1077952736
        0x00003ca0:    88780006    ..x.    DCD    2289565702
        0x00003ca4:    70087888    .x.p    DCD    1879603336
        0x00003ca8:    b0808006    ....    DCD    2961211398
        0x00003cac:    888888c8    ....    DCD    2290649288
        0x00003cb0:    c0004006    .@..    DCD    3221241862
        0x00003cb4:    70404040    @@@p    DCD    1883258944
        0x00003cb8:    30001004    ...0    DCD    805310468
        0x00003cbc:    60901010    ...`    DCD    1620054032
        0x00003cc0:    90808005    ....    DCD    2424340485
        0x00003cc4:    90a0c0a0    ....    DCD    2426454176
        0x00003cc8:    4040c005    ..@@    DCD    1077985285
        0x00003ccc:    e0404040    @@@.    DCD    3762307136
        0x00003cd0:    d0000004    ....    DCD    3489660932
        0x00003cd4:    8888a8a8    ....    DCD    2290657448
        0x00003cd8:    b0000006    ....    DCD    2952790022
        0x00003cdc:    888888c8    ....    DCD    2290649288
        0x00003ce0:    70000006    ...p    DCD    1879048198
        0x00003ce4:    70888888    ...p    DCD    1887996040
        0x00003ce8:    f0000006    ....    DCD    4026531846
        0x00003cec:    8080f088    ....    DCD    2155933832
        0x00003cf0:    68000006    ...h    DCD    1744830470
        0x00003cf4:    08087898    .x..    DCD    134772888
        0x00003cf8:    b0000006    ....    DCD    2952790022
        0x00003cfc:    808080c8    ....    DCD    2155905224
        0x00003d00:    70000006    ...p    DCD    1879048198
        0x00003d04:    f0087080    .p..    DCD    4027084928
        0x00003d08:    e0404006    .@@.    DCD    3762307078
        0x00003d0c:    30484040    @@H0    DCD    810041408
        0x00003d10:    88000006    ....    DCD    2281701382
        0x00003d14:    68988888    ...h    DCD    1754826888
        0x00003d18:    88000006    ....    DCD    2281701382
        0x00003d1c:    20908888    ...     DCD    546343048
        0x00003d20:    88000006    ....    DCD    2281701382
        0x00003d24:    50a8a8a8    ...P    DCD    1353230504
        0x00003d28:    88000006    ....    DCD    2281701382
        0x00003d2c:    88502050    P P.    DCD    2286952528
        0x00003d30:    88000006    ....    DCD    2281701382
        0x00003d34:    70087888    .x.p    DCD    1879603336
        0x00003d38:    f8000006    ....    DCD    4160749574
        0x00003d3c:    f8402010    . @.    DCD    4164952080
        0x00003d40:    40402006    . @@    DCD    1077944326
        0x00003d44:    20404080    .@@     DCD    541081728
        0x00003d48:    80808004    ....    DCD    2155905028
        0x00003d4c:    80808080    ....    DCD    2155905152
        0x00003d50:    40408002    ..@@    DCD    1077968898
        0x00003d54:    80404020     @@.    DCD    2151694368
        0x00003d58:    00000004    ....    DCD    4
        0x00003d5c:    00009068    h...    DCD    36968
        0x00003d60:    90906006    .`..    DCD    2425380870
        0x00003d64:    00000060    `...    DCD    96
        0x00003d68:    66600005    ..`f    DCD    1717567493
        0x00003d6c:    18668100    ..f.    DCD    409370880
        0x00003d70:    00000005    ....    DCD    5
        0x00003d74:    00000000    ....    DCD    0
    .constdata
    bp
        0x00003d78:    00000000    ....    DCD    0
        0x00003d7c:    3ff00000    ...?    DCD    1072693248
        0x00003d80:    00000000    ....    DCD    0
        0x00003d84:    3ff80000    ...?    DCD    1073217536
    dp_h
        0x00003d88:    00000000    ....    DCD    0
        0x00003d8c:    00000000    ....    DCD    0
        0x00003d90:    40000000    ...@    DCD    1073741824
        0x00003d94:    3fe2b803    ...?    DCD    1071822851
    dp_l
        0x00003d98:    00000000    ....    DCD    0
        0x00003d9c:    00000000    ....    DCD    0
        0x00003da0:    43cfd006    ...C    DCD    1137692678
        0x00003da4:    3e4cfdeb    ..L>    DCD    1045233131
    L
        0x00003da8:    33333303    .333    DCD    858993411
        0x00003dac:    3fe33333    33.?    DCD    1071854387
        0x00003db0:    db6fabff    ..o.    DCD    3681528831
        0x00003db4:    3fdb6db6    .m.?    DCD    1071345078
        0x00003db8:    518f264d    M&.Q    DCD    1368335949
        0x00003dbc:    3fd55555    UU.?    DCD    1070945621
        0x00003dc0:    a91d4101    .A..    DCD    2837266689
        0x00003dc4:    3fd17460    `t.?    DCD    1070691424
        0x00003dc8:    93c9db65    e...    DCD    2479479653
        0x00003dcc:    3fcd864a    J..?    DCD    1070433866
        0x00003dd0:    4a454eef    .NEJ    DCD    1246056175
        0x00003dd4:    3fca7e28    (~.?    DCD    1070235176
    P
        0x00003dd8:    5555553e    >UUU    DCD    1431655742
        0x00003ddc:    3fc55555    UU.?    DCD    1069897045
        0x00003de0:    16bebd93    ....    DCD    381599123
        0x00003de4:    bf66c16c    l.f.    DCD    3211182444
        0x00003de8:    af25de2c    ,.%.    DCD    2938494508
        0x00003dec:    3f11566a    jV.?    DCD    1058100842
        0x00003df0:    c5d26bf1    .k..    DCD    3318901745
        0x00003df4:    bebbbd41    A...    DCD    3199974721
        0x00003df8:    72bea4d0    ...r    DCD    1925096656
        0x00003dfc:    3e663769    i7f>    DCD    1046886249
    .constdata
    __mathlib_zero
        0x00003e00:    00000000    ....    DCD    0
        0x00003e04:    00000000    ....    DCD    0
    Region$$Table$$Base
        0x00003e08:    00003e28    (>..    DCD    15912
        0x00003e0c:    20000000    ...     DCD    536870912
        0x00003e10:    00000074    t...    DCD    116
        0x00003e14:    00001790    ....    DCD    6032
        0x00003e18:    00003e9c    .>..    DCD    16028
        0x00003e1c:    20000074    t..     DCD    536871028
        0x00003e20:    000009d4    ....    DCD    2516
        0x00003e24:    000017a0    ....    DCD    6048
    Region$$Table$$Limit

** Section #2 'ER_RW' (SHT_PROGBITS) [SHF_ALLOC + SHF_WRITE]
    Size   : 116 bytes (alignment 4)
    Address: 0x20000000


** Section #3 'ER_ZI' (SHT_NOBITS) [SHF_ALLOC + SHF_WRITE]
    Size   : 2516 bytes (alignment 8)
    Address: 0x20000074


** Section #4 '.debug_abbrev' (SHT_PROGBITS)
    Size   : 1476 bytes


** Section #5 '.debug_frame' (SHT_PROGBITS)
    Size   : 3924 bytes


** Section #6 '.debug_info' (SHT_PROGBITS)
    Size   : 34736 bytes


** Section #7 '.debug_line' (SHT_PROGBITS)
    Size   : 11720 bytes


** Section #8 '.debug_loc' (SHT_PROGBITS)
    Size   : 5760 bytes


** Section #9 '.debug_macinfo' (SHT_PROGBITS)
    Size   : 16464 bytes


** Section #10 '.debug_pubnames' (SHT_PROGBITS)
    Size   : 2949 bytes


** Section #11 '.symtab' (SHT_SYMTAB)
    Size   : 10672 bytes (alignment 4)
    String table #12 '.strtab'
    Last local symbol no. 440


** Section #12 '.strtab' (SHT_STRTAB)
    Size   : 7640 bytes


** Section #13 '.note' (SHT_NOTE)
    Size   : 28 bytes (alignment 4)


** Section #14 '.comment' (SHT_PROGBITS)
    Size   : 24100 bytes


** Section #15 '.shstrtab' (SHT_STRTAB)
    Size   : 156 bytes


